
/home/josejuan/git_repos/fpau_tests/pqc_sw/dilithium/ref/test/test_dilithium3:     file format elf32-littleriscv


Disassembly of section .text.init:

00000000 <_start>:
.section .text.init

.globl _start
_start:
  la gp, _gp
   0:	00009197          	auipc	gp,0x9
   4:	52418193          	addi	gp,gp,1316 # 9524 <_gp>
  la sp, _end_of_memory
   8:	00030117          	auipc	sp,0x30
   c:	ff810113          	addi	sp,sp,-8 # 30000 <_end_of_memory>
  jal main
  10:	028080ef          	jal	ra,8038 <main>
1:
  j 1b
  14:	0000006f          	j	14 <_start+0x14>

Disassembly of section .text:

00000018 <randombytes>:
  unsigned int i;
  uint8_t buf[8];
  static uint64_t ctr = 0;

  for(i = 0; i < 8; ++i)
    buf[i] = ctr >> 8*i;
      18:	00009317          	auipc	t1,0x9
      1c:	d2030313          	addi	t1,t1,-736 # 8d38 <ctr.0>
      20:	00032683          	lw	a3,0(t1)
      24:	00432603          	lw	a2,4(t1)
      28:	ff010e37          	lui	t3,0xff010
      2c:	0086d893          	srli	a7,a3,0x8
      30:	00865813          	srli	a6,a2,0x8
      34:	0ff8f893          	zext.b	a7,a7
      38:	0ff87813          	zext.b	a6,a6
      3c:	00889893          	slli	a7,a7,0x8
      40:	0ff6f713          	zext.b	a4,a3
      44:	00881813          	slli	a6,a6,0x8
      48:	0ff67793          	zext.b	a5,a2
      4c:	fffe0e13          	addi	t3,t3,-1 # ff00ffff <_end_of_memory+0xfefdffff>
      50:	01176733          	or	a4,a4,a7
      54:	0107e7b3          	or	a5,a5,a6
      58:	00ff0eb7          	lui	t4,0xff0
      5c:	00ff08b7          	lui	a7,0xff0
      60:	01d6feb3          	and	t4,a3,t4
      64:	011678b3          	and	a7,a2,a7
      68:	01c77733          	and	a4,a4,t3
      6c:	01c7f7b3          	and	a5,a5,t3
      70:	01000837          	lui	a6,0x1000
      74:	fff80813          	addi	a6,a6,-1 # ffffff <_end_of_memory+0xfcffff>

  ctr++;
      78:	00168f13          	addi	t5,a3,1
    buf[i] = ctr >> 8*i;
      7c:	01d76733          	or	a4,a4,t4
      80:	0186de13          	srli	t3,a3,0x18
      84:	0117e7b3          	or	a5,a5,a7
      88:	01865893          	srli	a7,a2,0x18
void randombytes(uint8_t *out, size_t outlen) {
      8c:	fe010113          	addi	sp,sp,-32
  ctr++;
      90:	00df36b3          	sltu	a3,t5,a3
    buf[i] = ctr >> 8*i;
      94:	018e1e13          	slli	t3,t3,0x18
      98:	01077733          	and	a4,a4,a6
      9c:	01889893          	slli	a7,a7,0x18
      a0:	0107f7b3          	and	a5,a5,a6
      a4:	01c76733          	or	a4,a4,t3
  ctr++;
      a8:	00c68833          	add	a6,a3,a2
    buf[i] = ctr >> 8*i;
      ac:	0117e7b3          	or	a5,a5,a7
  shake128(out, outlen, buf, 8);
      b0:	00810613          	addi	a2,sp,8
      b4:	00800693          	li	a3,8
void randombytes(uint8_t *out, size_t outlen) {
      b8:	00112e23          	sw	ra,28(sp)
    buf[i] = ctr >> 8*i;
      bc:	00e12423          	sw	a4,8(sp)
      c0:	00f12623          	sw	a5,12(sp)
  ctr++;
      c4:	01e32023          	sw	t5,0(t1)
      c8:	01032223          	sw	a6,4(t1)
  shake128(out, outlen, buf, 8);
      cc:	6a8060ef          	jal	ra,6774 <pqcrystals_dilithium_fips202_ref_shake128>
}
      d0:	01c12083          	lw	ra,28(sp)
      d4:	02010113          	addi	sp,sp,32
      d8:	00008067          	ret

000000dc <orca_register_timer_handler>:

#endif //#if ORCA_INTERRUPT_HANDLERS


orca_exception_handler orca_register_timer_handler(orca_exception_handler the_handler,void** the_context){
	orca_exception_handler old=timer_handler;
      dc:	00009797          	auipc	a5,0x9
      e0:	c7078793          	addi	a5,a5,-912 # 8d4c <timer_handler>
      e4:	0007a683          	lw	a3,0(a5)
	void* old_context=timer_context;
      e8:	00009717          	auipc	a4,0x9
      ec:	c6070713          	addi	a4,a4,-928 # 8d48 <timer_context>
	timer_handler = the_handler;
      f0:	00a7a023          	sw	a0,0(a5)
	void* old_context=timer_context;
      f4:	00072783          	lw	a5,0(a4)
	if(the_context){
      f8:	00058863          	beqz	a1,108 <orca_register_timer_handler+0x2c>
		timer_context = *the_context;
      fc:	0005a603          	lw	a2,0(a1)
		*the_context = old_context;
     100:	00f5a023          	sw	a5,0(a1)
		timer_context = *the_context;
     104:	00c72023          	sw	a2,0(a4)
	}
	return old;
}
     108:	00068513          	mv	a0,a3
     10c:	00008067          	ret

00000110 <orca_register_ecall_handler>:
orca_exception_handler orca_register_ecall_handler(orca_exception_handler the_handler,void** the_context){
	orca_exception_handler old=ecall_handler;
     110:	00009797          	auipc	a5,0x9
     114:	c3478793          	addi	a5,a5,-972 # 8d44 <ecall_handler>
     118:	0007a683          	lw	a3,0(a5)
	void* old_context=ecall_context;
     11c:	00009717          	auipc	a4,0x9
     120:	c2470713          	addi	a4,a4,-988 # 8d40 <ecall_context>
	ecall_handler = the_handler;
     124:	00a7a023          	sw	a0,0(a5)
	void* old_context=ecall_context;
     128:	00072783          	lw	a5,0(a4)
	if(the_context){
     12c:	00058863          	beqz	a1,13c <orca_register_ecall_handler+0x2c>
		ecall_context = *the_context;
     130:	0005a603          	lw	a2,0(a1)
		*the_context = old_context;
     134:	00f5a023          	sw	a5,0(a1)
		ecall_context = *the_context;
     138:	00c72023          	sw	a2,0(a4)
	}
	return old;
}
     13c:	00068513          	mv	a0,a3
     140:	00008067          	ret

00000144 <register_orca_illegal_instruction_handler>:

//Register an illegal instruction
int register_orca_illegal_instruction_handler(orca_illegal_instruction_handler the_handler, void *the_context){
	int return_code = 0;
	if(illegal_instruction_handler){
     144:	00009797          	auipc	a5,0x9
     148:	c1078793          	addi	a5,a5,-1008 # 8d54 <illegal_instruction_handler>
     14c:	0007a703          	lw	a4,0(a5)
		return_code |= ORCA_EXCEPTION_ALREADY_REGISTERED;
	}
	illegal_instruction_handler = the_handler;
     150:	00a7a023          	sw	a0,0(a5)
	illegal_instruction_context = the_context;
     154:	00009797          	auipc	a5,0x9
     158:	bfc78793          	addi	a5,a5,-1028 # 8d50 <illegal_instruction_context>
     15c:	00b7a023          	sw	a1,0(a5)
	return return_code;
}
     160:	00e03533          	snez	a0,a4
     164:	00008067          	ret

00000168 <orca_register_interrupt_handler>:

	return return_code;
#else //#if ORCA_INTERRUPT_HANDLERS
		return ORCA_UNSUPPORTED_EXCEPTION_REGISTRATION;
#endif //#else //#if ORCA_INTERRUPT_HANDLERS
}
     168:	00200513          	li	a0,2
     16c:	00008067          	ret

00000170 <handle_exception>:

//Handle an exception.  Illegal instructions and interrupts can be
//passed to handlers set using the
//register_orca_illegal_instruction_handler() and
//register_orca_interrupt_handler() calls respectively.
int handle_exception(size_t cause, size_t epc, size_t regs[32]){
     170:	ff010113          	addi	sp,sp,-16
     174:	00812423          	sw	s0,8(sp)
     178:	00112623          	sw	ra,12(sp)
	switch(cause){
     17c:	00b00713          	li	a4,11
int handle_exception(size_t cause, size_t epc, size_t regs[32]){
     180:	00058413          	mv	s0,a1
	switch(cause){
     184:	0ee50263          	beq	a0,a4,268 <handle_exception+0xf8>
     188:	00050793          	mv	a5,a0
     18c:	06a76c63          	bltu	a4,a0,204 <handle_exception+0x94>
     190:	00400713          	li	a4,4
     194:	00060693          	mv	a3,a2
     198:	10e50463          	beq	a0,a4,2a0 <handle_exception+0x130>
     19c:	00600713          	li	a4,6
     1a0:	08e51663          	bne	a0,a4,22c <handle_exception+0xbc>
		if(timer_handler){
			timer_handler(timer_context);
			break;
		}else{ while(1); }
	case CAUSE_MISALIGNED_STORE:
		handle_misaligned_store(*((size_t*)epc), regs);
     1a4:	0005a783          	lw	a5,0(a1)
	csrr(mtval,address);
     1a8:	34302673          	csrr	a2,mtval
	size_t regval =reg[(instr>>15) & 0x1F] ;
     1ac:	00d7d713          	srli	a4,a5,0xd
     1b0:	07c77713          	andi	a4,a4,124
     1b4:	00e68733          	add	a4,a3,a4
     1b8:	00072703          	lw	a4,0(a4)
	switch((instr >>12) &3){
     1bc:	00c7d793          	srli	a5,a5,0xc
     1c0:	0037f793          	andi	a5,a5,3
		address[1] = ((regval>>8)&0xFF);
     1c4:	00875693          	srli	a3,a4,0x8
	switch((instr >>12) &3){
     1c8:	00100513          	li	a0,1
		address[0] = regval&0xFF;
     1cc:	0ff77593          	zext.b	a1,a4
		address[1] = ((regval>>8)&0xFF);
     1d0:	0ff6f693          	zext.b	a3,a3
	switch((instr >>12) &3){
     1d4:	00a78a63          	beq	a5,a0,1e8 <handle_exception+0x78>
		address[2] = ((regval>>16)&0xFF);
     1d8:	01075793          	srli	a5,a4,0x10
		address[3] = ((regval>>24)&0xFF);
     1dc:	01875713          	srli	a4,a4,0x18
		address[2] = ((regval>>16)&0xFF);
     1e0:	00f60123          	sb	a5,2(a2)
		address[3] = ((regval>>24)&0xFF);
     1e4:	00e601a3          	sb	a4,3(a2)
		break;
     1e8:	00d600a3          	sb	a3,1(a2)
     1ec:	00b60023          	sb	a1,0(a2)
	default:
		while(1);

	}
	return epc;
}
     1f0:	00c12083          	lw	ra,12(sp)
		epc+=4;
     1f4:	00440513          	addi	a0,s0,4
}
     1f8:	00812403          	lw	s0,8(sp)
     1fc:	01010113          	addi	sp,sp,16
     200:	00008067          	ret
	switch(cause){
     204:	80000737          	lui	a4,0x80000
     208:	00770693          	addi	a3,a4,7 # 80000007 <_end_of_memory+0x7ffd0007>
     20c:	0ed50c63          	beq	a0,a3,304 <handle_exception+0x194>
     210:	00b70713          	addi	a4,a4,11
	return epc;
     214:	00058513          	mv	a0,a1
	switch(cause){
     218:	14e79663          	bne	a5,a4,364 <handle_exception+0x1f4>
}
     21c:	00c12083          	lw	ra,12(sp)
     220:	00812403          	lw	s0,8(sp)
     224:	01010113          	addi	sp,sp,16
     228:	00008067          	ret
	switch(cause){
     22c:	00200713          	li	a4,2
     230:	02e51a63          	bne	a0,a4,264 <handle_exception+0xf4>
		if(illegal_instruction_handler){
     234:	00009797          	auipc	a5,0x9
     238:	b2078793          	addi	a5,a5,-1248 # 8d54 <illegal_instruction_handler>
     23c:	0007a783          	lw	a5,0(a5)
     240:	02078063          	beqz	a5,260 <handle_exception+0xf0>
}
     244:	00812403          	lw	s0,8(sp)
			epc=illegal_instruction_handler(cause,epc,regs,illegal_instruction_context);
     248:	00009717          	auipc	a4,0x9
     24c:	b0870713          	addi	a4,a4,-1272 # 8d50 <illegal_instruction_context>
}
     250:	00c12083          	lw	ra,12(sp)
			epc=illegal_instruction_handler(cause,epc,regs,illegal_instruction_context);
     254:	00072683          	lw	a3,0(a4)
}
     258:	01010113          	addi	sp,sp,16
			epc=illegal_instruction_handler(cause,epc,regs,illegal_instruction_context);
     25c:	00078067          	jr	a5
		}else{while(1);}
     260:	0000006f          	j	260 <handle_exception+0xf0>
		while(1);
     264:	0000006f          	j	264 <handle_exception+0xf4>
		if(ecall_handler){
     268:	00009797          	auipc	a5,0x9
     26c:	adc78793          	addi	a5,a5,-1316 # 8d44 <ecall_handler>
     270:	0007a783          	lw	a5,0(a5)
     274:	02078463          	beqz	a5,29c <handle_exception+0x12c>
			ecall_handler(ecall_context);
     278:	00009717          	auipc	a4,0x9
     27c:	ac870713          	addi	a4,a4,-1336 # 8d40 <ecall_context>
     280:	00072503          	lw	a0,0(a4)
     284:	000780e7          	jalr	a5
}
     288:	00c12083          	lw	ra,12(sp)
			epc+=4;
     28c:	00440513          	addi	a0,s0,4
}
     290:	00812403          	lw	s0,8(sp)
     294:	01010113          	addi	sp,sp,16
     298:	00008067          	ret
		}else{ while(1); }
     29c:	0000006f          	j	29c <handle_exception+0x12c>
		handle_misaligned_load(*((size_t*)epc), regs);
     2a0:	0005a783          	lw	a5,0(a1)
	csrr(mtval,address);
     2a4:	34302673          	csrr	a2,mtval
	switch((instr >>12) &3){
     2a8:	00c7d713          	srli	a4,a5,0xc
     2ac:	00377713          	andi	a4,a4,3
     2b0:	00100593          	li	a1,1
     2b4:	08b70463          	beq	a4,a1,33c <handle_exception+0x1cc>
		intval=(address[3]<<24) | (address[2] << 16) | (address[1] <<8) | address[0];
     2b8:	00164503          	lbu	a0,1(a2)
     2bc:	00064803          	lbu	a6,0(a2)
     2c0:	00264583          	lbu	a1,2(a2)
     2c4:	00364703          	lbu	a4,3(a2)
     2c8:	00851513          	slli	a0,a0,0x8
     2cc:	01056533          	or	a0,a0,a6
     2d0:	01059613          	slli	a2,a1,0x10
     2d4:	00a66633          	or	a2,a2,a0
     2d8:	01871713          	slli	a4,a4,0x18
     2dc:	00c76733          	or	a4,a4,a2
	reg[(instr>>7) & 0x1F] = intval;
     2e0:	0057d793          	srli	a5,a5,0x5
}
     2e4:	00c12083          	lw	ra,12(sp)
		epc+=4;
     2e8:	00440513          	addi	a0,s0,4
	reg[(instr>>7) & 0x1F] = intval;
     2ec:	07c7f793          	andi	a5,a5,124
}
     2f0:	00812403          	lw	s0,8(sp)
	reg[(instr>>7) & 0x1F] = intval;
     2f4:	00f686b3          	add	a3,a3,a5
     2f8:	00e6a023          	sw	a4,0(a3)
}
     2fc:	01010113          	addi	sp,sp,16
     300:	00008067          	ret
		if(timer_handler){
     304:	00009797          	auipc	a5,0x9
     308:	a4878793          	addi	a5,a5,-1464 # 8d4c <timer_handler>
     30c:	0007a783          	lw	a5,0(a5)
     310:	02078463          	beqz	a5,338 <handle_exception+0x1c8>
			timer_handler(timer_context);
     314:	00009717          	auipc	a4,0x9
     318:	a3470713          	addi	a4,a4,-1484 # 8d48 <timer_context>
     31c:	00072503          	lw	a0,0(a4)
     320:	000780e7          	jalr	a5
}
     324:	00c12083          	lw	ra,12(sp)
	return epc;
     328:	00040513          	mv	a0,s0
}
     32c:	00812403          	lw	s0,8(sp)
     330:	01010113          	addi	sp,sp,16
     334:	00008067          	ret
		}else{ while(1); }
     338:	0000006f          	j	338 <handle_exception+0x1c8>
		intval=(address[1]<<8) | address[0];
     33c:	00164703          	lbu	a4,1(a2)
     340:	00064583          	lbu	a1,0(a2)
		if(!(instr & (1<<14))){//signed
     344:	00004637          	lui	a2,0x4
     348:	00871713          	slli	a4,a4,0x8
     34c:	00c7f633          	and	a2,a5,a2
     350:	00b76733          	or	a4,a4,a1
     354:	f80616e3          	bnez	a2,2e0 <handle_exception+0x170>
	reg[(instr>>7) & 0x1F] = intval;
     358:	01071713          	slli	a4,a4,0x10
     35c:	41075713          	srai	a4,a4,0x10
     360:	f81ff06f          	j	2e0 <handle_exception+0x170>
     364:	f01ff06f          	j	264 <handle_exception+0xf4>

00000368 <pqcrystals_dilithium3_ref_keypair>:
*              - uint8_t *sk: pointer to output private key (allocated
*                             array of CRYPTO_SECRETKEYBYTES bytes)
*
* Returns 0 (success)
**************************************************/
int crypto_sign_keypair(uint8_t *pk, uint8_t *sk) {
     368:	ffff22b7          	lui	t0,0xffff2
     36c:	81010113          	addi	sp,sp,-2032
     370:	f2028293          	addi	t0,t0,-224 # ffff1f20 <_end_of_memory+0xfffc1f20>
     374:	7e112623          	sw	ra,2028(sp)
     378:	7e812423          	sw	s0,2024(sp)
     37c:	7e912223          	sw	s1,2020(sp)
     380:	7f212023          	sw	s2,2016(sp)
     384:	7d312e23          	sw	s3,2012(sp)
     388:	7d412c23          	sw	s4,2008(sp)
     38c:	7d512a23          	sw	s5,2004(sp)
     390:	00510133          	add	sp,sp,t0
#if defined(HW_TESTING_SEEDINIT_TO_ZERO)
  uint8_t seedbuf[2*SEEDBYTES + CRHBYTES] = {0};
     394:	07c00613          	li	a2,124
int crypto_sign_keypair(uint8_t *pk, uint8_t *sk) {
     398:	00050913          	mv	s2,a0
     39c:	00058993          	mv	s3,a1
  uint8_t seedbuf[2*SEEDBYTES + CRHBYTES] = {0};
     3a0:	03410513          	addi	a0,sp,52
     3a4:	00000593          	li	a1,0
  polyvecl mat[K];
  polyvecl s1, s1hat;
  polyveck s2, t1, t0;

  /* Get randomness for rho, rhoprime and key */
  randombytes(seedbuf, SEEDBYTES);
     3a8:	0000fa37          	lui	s4,0xf
  uint8_t seedbuf[2*SEEDBYTES + CRHBYTES] = {0};
     3ac:	ffff1437          	lui	s0,0xffff1
     3b0:	02012823          	sw	zero,48(sp)
     3b4:	3a9070ef          	jal	ra,7f5c <memset>
  randombytes(seedbuf, SEEDBYTES);
     3b8:	78040413          	addi	s0,s0,1920 # ffff1780 <_end_of_memory+0xfffc1780>
     3bc:	8a0a0793          	addi	a5,s4,-1888 # e8a0 <_gp+0x537c>
     3c0:	008787b3          	add	a5,a5,s0
     3c4:	01010713          	addi	a4,sp,16
     3c8:	00e78433          	add	s0,a5,a4
     3cc:	00040513          	mv	a0,s0
     3d0:	02000593          	li	a1,32
     3d4:	c45ff0ef          	jal	ra,18 <randombytes>
  shake256(seedbuf, 2*SEEDBYTES + CRHBYTES, seedbuf, SEEDBYTES);
     3d8:	02000693          	li	a3,32
     3dc:	00040613          	mv	a2,s0
     3e0:	00040513          	mv	a0,s0
     3e4:	08000593          	li	a1,128
     3e8:	54c060ef          	jal	ra,6934 <pqcrystals_dilithium_fips202_ref_shake256>
  rhoprime = rho + SEEDBYTES;
  key = rhoprime + CRHBYTES;

  /* Expand matrix */
#ifndef NTT_TESTING
  polyvec_matrix_expand(mat, rho);
     3ec:	ffff9537          	lui	a0,0xffff9
     3f0:	80050513          	addi	a0,a0,-2048 # ffff8800 <_end_of_memory+0xfffc8800>
     3f4:	8a0a0793          	addi	a5,s4,-1888
     3f8:	00a787b3          	add	a5,a5,a0
     3fc:	01010713          	addi	a4,sp,16
     400:	00e78533          	add	a0,a5,a4
     404:	00040593          	mv	a1,s0
     408:	514010ef          	jal	ra,191c <pqcrystals_dilithium3_ref_polyvec_matrix_expand>
#endif

  /* Sample short vectors s1 and s2 */
  polyvecl_uniform_eta(&s1, rhoprime, 0);
     40c:	ffff24b7          	lui	s1,0xffff2
     410:	80048513          	addi	a0,s1,-2048 # ffff1800 <_end_of_memory+0xfffc1800>
     414:	8a0a0793          	addi	a5,s4,-1888
     418:	00a787b3          	add	a5,a5,a0
     41c:	01010713          	addi	a4,sp,16
     420:	02040413          	addi	s0,s0,32
     424:	00e78533          	add	a0,a5,a4
     428:	00000613          	li	a2,0
     42c:	00040593          	mv	a1,s0
     430:	684010ef          	jal	ra,1ab4 <pqcrystals_dilithium3_ref_polyvecl_uniform_eta>
#ifndef NTT_TESTING
  polyveck_uniform_eta(&s2, rhoprime, L);
     434:	ffff4537          	lui	a0,0xffff4
     438:	8a0a0793          	addi	a5,s4,-1888
     43c:	00a787b3          	add	a5,a5,a0
     440:	01010713          	addi	a4,sp,16
     444:	00e78533          	add	a0,a5,a4
     448:	00500613          	li	a2,5
     44c:	00040593          	mv	a1,s0
     450:	1fd010ef          	jal	ra,1e4c <pqcrystals_dilithium3_ref_polyveck_uniform_eta>
#endif

  /* Matrix-vector multiplication */
  s1hat = s1;
     454:	8a0a0793          	addi	a5,s4,-1888
     458:	01010713          	addi	a4,sp,16
     45c:	009787b3          	add	a5,a5,s1
     460:	00e787b3          	add	a5,a5,a4
     464:	8a0a0693          	addi	a3,s4,-1888
     468:	ffff3737          	lui	a4,0xffff3
     46c:	00e686b3          	add	a3,a3,a4
     470:	01010713          	addi	a4,sp,16
     474:	00e68733          	add	a4,a3,a4
     478:	000016b7          	lui	a3,0x1
     47c:	80078793          	addi	a5,a5,-2048
     480:	40068693          	addi	a3,a3,1024 # 1400 <pqcrystals_dilithium3_ref_unpack_sk+0x94>
     484:	00e12423          	sw	a4,8(sp)
     488:	00d786b3          	add	a3,a5,a3
     48c:	c0070713          	addi	a4,a4,-1024 # ffff2c00 <_end_of_memory+0xfffc2c00>
     490:	0007a803          	lw	a6,0(a5)
     494:	0047a503          	lw	a0,4(a5)
     498:	0087a583          	lw	a1,8(a5)
     49c:	00c7a603          	lw	a2,12(a5)
     4a0:	01072023          	sw	a6,0(a4)
     4a4:	00a72223          	sw	a0,4(a4)
     4a8:	00b72423          	sw	a1,8(a4)
     4ac:	00c72623          	sw	a2,12(a4)
     4b0:	01078793          	addi	a5,a5,16
     4b4:	01070713          	addi	a4,a4,16
     4b8:	fcd79ce3          	bne	a5,a3,490 <pqcrystals_dilithium3_ref_keypair+0x128>
  polyvecl_ntt(&s1hat);
     4bc:	0000fa37          	lui	s4,0xf
     4c0:	ffff34b7          	lui	s1,0xffff3
     4c4:	c0048493          	addi	s1,s1,-1024 # ffff2c00 <_end_of_memory+0xfffc2c00>
     4c8:	8a0a0793          	addi	a5,s4,-1888 # e8a0 <_gp+0x537c>
     4cc:	01010713          	addi	a4,sp,16
     4d0:	009787b3          	add	a5,a5,s1
     4d4:	00e784b3          	add	s1,a5,a4
     4d8:	00048513          	mv	a0,s1
     4dc:	774010ef          	jal	ra,1c50 <pqcrystals_dilithium3_ref_polyvecl_ntt>
    uart_send_string("\r");
    uart_send_string(str);
  }
  #endif

  polyvec_matrix_pointwise_montgomery(&t1, mat, &s1hat);
     4e0:	ffff6437          	lui	s0,0xffff6
     4e4:	80040413          	addi	s0,s0,-2048 # ffff5800 <_end_of_memory+0xfffc5800>
     4e8:	8a0a0713          	addi	a4,s4,-1888
     4ec:	ffff95b7          	lui	a1,0xffff9
     4f0:	01010693          	addi	a3,sp,16
     4f4:	00870733          	add	a4,a4,s0
     4f8:	80058593          	addi	a1,a1,-2048 # ffff8800 <_end_of_memory+0xfffc8800>
     4fc:	8a0a0793          	addi	a5,s4,-1888
     500:	00d70433          	add	s0,a4,a3
     504:	00b787b3          	add	a5,a5,a1
     508:	00d785b3          	add	a1,a5,a3
     50c:	00048613          	mv	a2,s1
     510:	00040513          	mv	a0,s0
     514:	4bc010ef          	jal	ra,19d0 <pqcrystals_dilithium3_ref_polyvec_matrix_pointwise_montgomery>
#endif

#ifndef FPAU
  polyveck_reduce(&t1);
#endif
  polyveck_invntt_tomont(&t1);
     518:	00040513          	mv	a0,s0
     51c:	389010ef          	jal	ra,20a4 <pqcrystals_dilithium3_ref_polyveck_invntt_tomont>
    uart_send_string(str);
  }
#endif

  /* Add error vector s2 */
  polyveck_add(&t1, &t1, &s2);
     520:	ffff47b7          	lui	a5,0xffff4
     524:	8a0a0713          	addi	a4,s4,-1888
     528:	00f70733          	add	a4,a4,a5
     52c:	01010793          	addi	a5,sp,16
     530:	00f707b3          	add	a5,a4,a5
     534:	00078613          	mv	a2,a5
     538:	00040593          	mv	a1,s0
     53c:	00040513          	mv	a0,s0
     540:	00f12423          	sw	a5,8(sp)
     544:	201010ef          	jal	ra,1f44 <pqcrystals_dilithium3_ref_polyveck_add>

  /* Extract t1 and write public key */
  polyveck_caddq(&t1);
     548:	00040513          	mv	a0,s0
     54c:	1b5010ef          	jal	ra,1f00 <pqcrystals_dilithium3_ref_polyveck_caddq>
  polyveck_power2round(&t1, &t0, &t1);
     550:	ffff77b7          	lui	a5,0xffff7
     554:	8a0a0713          	addi	a4,s4,-1888
     558:	00f70733          	add	a4,a4,a5
     55c:	01010793          	addi	a5,sp,16
     560:	00f707b3          	add	a5,a4,a5
     564:	00040613          	mv	a2,s0
     568:	00078593          	mv	a1,a5
     56c:	00040513          	mv	a0,s0
  polyvec_matrix_pointwise_montgomery(&t1, mat, &s1hat);
     570:	000a0a93          	mv	s5,s4
  polyveck_power2round(&t1, &t0, &t1);
     574:	00f12623          	sw	a5,12(sp)
  pack_pk(pk, rho, &t1);
     578:	ffff14b7          	lui	s1,0xffff1
  polyveck_power2round(&t1, &t0, &t1);
     57c:	449010ef          	jal	ra,21c4 <pqcrystals_dilithium3_ref_polyveck_power2round>
  pack_pk(pk, rho, &t1);
     580:	78048a13          	addi	s4,s1,1920 # ffff1780 <_end_of_memory+0xfffc1780>
     584:	8a0a8793          	addi	a5,s5,-1888
     588:	01010713          	addi	a4,sp,16
     58c:	014787b3          	add	a5,a5,s4
     590:	00e78a33          	add	s4,a5,a4
     594:	00040613          	mv	a2,s0
     598:	000a0593          	mv	a1,s4
     59c:	00090513          	mv	a0,s2
     5a0:	1e9000ef          	jal	ra,f88 <pqcrystals_dilithium3_ref_pack_pk>

  /* Compute H(rho, t1) and write secret key */
  shake256(tr, SEEDBYTES, pk, CRYPTO_PUBLICKEYBYTES);
     5a4:	76048493          	addi	s1,s1,1888
     5a8:	8a0a8793          	addi	a5,s5,-1888
     5ac:	01010713          	addi	a4,sp,16
     5b0:	009787b3          	add	a5,a5,s1
     5b4:	00e784b3          	add	s1,a5,a4
     5b8:	00090613          	mv	a2,s2
     5bc:	00048513          	mv	a0,s1
     5c0:	7a000693          	li	a3,1952
     5c4:	02000593          	li	a1,32
     5c8:	36c060ef          	jal	ra,6934 <pqcrystals_dilithium_fips202_ref_shake256>
  pack_sk(sk, rho, tr, key, &t0, &s1, &s2);
     5cc:	ffff27b7          	lui	a5,0xffff2
     5d0:	80078793          	addi	a5,a5,-2048 # ffff1800 <_end_of_memory+0xfffc1800>
     5d4:	8a0a8713          	addi	a4,s5,-1888
     5d8:	00f70733          	add	a4,a4,a5
     5dc:	01010793          	addi	a5,sp,16
     5e0:	00812803          	lw	a6,8(sp)
     5e4:	00f707b3          	add	a5,a4,a5
     5e8:	00c12703          	lw	a4,12(sp)
     5ec:	00098513          	mv	a0,s3
     5f0:	060a0693          	addi	a3,s4,96
     5f4:	00048613          	mv	a2,s1
     5f8:	000a0593          	mv	a1,s4
     5fc:	32d000ef          	jal	ra,1128 <pqcrystals_dilithium3_ref_pack_sk>

  return 0;
}
     600:	0000e2b7          	lui	t0,0xe
     604:	0e028293          	addi	t0,t0,224 # e0e0 <_gp+0x4bbc>
     608:	00510133          	add	sp,sp,t0
     60c:	7ec12083          	lw	ra,2028(sp)
     610:	7e812403          	lw	s0,2024(sp)
     614:	7e412483          	lw	s1,2020(sp)
     618:	7e012903          	lw	s2,2016(sp)
     61c:	7dc12983          	lw	s3,2012(sp)
     620:	7d812a03          	lw	s4,2008(sp)
     624:	7d412a83          	lw	s5,2004(sp)
     628:	00000513          	li	a0,0
     62c:	7f010113          	addi	sp,sp,2032
     630:	00008067          	ret

00000634 <pqcrystals_dilithium3_ref_signature>:
int crypto_sign_signature(uint8_t *sig,
                          size_t *siglen,
                          const uint8_t *m,
                          size_t mlen,
                          const uint8_t *sk)
{
     634:	df010113          	addi	sp,sp,-528
     638:	fffed2b7          	lui	t0,0xfffed
     63c:	20912223          	sw	s1,516(sp)
     640:	1f912223          	sw	s9,484(sp)
  rho = seedbuf;
  tr = rho + SEEDBYTES;
  key = tr + SEEDBYTES;
  mu = key + SEEDBYTES;
  rhoprime = mu + CRHBYTES;
  unpack_sk(rho, tr, key, &t0, &s1, &s2, sk);
     644:	fffed4b7          	lui	s1,0xfffed
     648:	00013cb7          	lui	s9,0x13
{
     64c:	20112623          	sw	ra,524(sp)
     650:	20812423          	sw	s0,520(sp)
     654:	21212023          	sw	s2,512(sp)
     658:	1f312e23          	sw	s3,508(sp)
     65c:	1f412c23          	sw	s4,504(sp)
     660:	1f512a23          	sw	s5,500(sp)
     664:	1f612823          	sw	s6,496(sp)
     668:	1f712623          	sw	s7,492(sp)
     66c:	1f812423          	sw	s8,488(sp)
     670:	1fa12023          	sw	s10,480(sp)
  unpack_sk(rho, tr, key, &t0, &s1, &s2, sk);
     674:	f2048b93          	addi	s7,s1,-224 # fffecf20 <_end_of_memory+0xfffbcf20>
{
     678:	1db12e23          	sw	s11,476(sp)
  unpack_sk(rho, tr, key, &t0, &s1, &s2, sk);
     67c:	1b0c8793          	addi	a5,s9,432 # 131b0 <_gp+0x9c8c>
{
     680:	00510133          	add	sp,sp,t0
  unpack_sk(rho, tr, key, &t0, &s1, &s2, sk);
     684:	02010813          	addi	a6,sp,32
     688:	017787b3          	add	a5,a5,s7
     68c:	ffff3437          	lui	s0,0xffff3
     690:	01078bb3          	add	s7,a5,a6
     694:	80040413          	addi	s0,s0,-2048 # ffff2800 <_end_of_memory+0xfffc2800>
     698:	1b0c8793          	addi	a5,s9,432
     69c:	008787b3          	add	a5,a5,s0
     6a0:	01078433          	add	s0,a5,a6
     6a4:	40048c13          	addi	s8,s1,1024
     6a8:	1b0c8793          	addi	a5,s9,432
     6ac:	018787b3          	add	a5,a5,s8
     6b0:	01078c33          	add	s8,a5,a6
     6b4:	ffff17b7          	lui	a5,0xffff1
     6b8:	1b0c8813          	addi	a6,s9,432
     6bc:	00f80833          	add	a6,a6,a5
     6c0:	02010793          	addi	a5,sp,32
     6c4:	00f807b3          	add	a5,a6,a5
     6c8:	00f12623          	sw	a5,12(sp)
{
     6cc:	00068a13          	mv	s4,a3
  unpack_sk(rho, tr, key, &t0, &s1, &s2, sk);
     6d0:	00c12683          	lw	a3,12(sp)
     6d4:	040b8a93          	addi	s5,s7,64
     6d8:	020b8b13          	addi	s6,s7,32
{
     6dc:	00058893          	mv	a7,a1
  unpack_sk(rho, tr, key, &t0, &s1, &s2, sk);
     6e0:	00070813          	mv	a6,a4
     6e4:	00040793          	mv	a5,s0
{
     6e8:	00060913          	mv	s2,a2
  unpack_sk(rho, tr, key, &t0, &s1, &s2, sk);
     6ec:	000b0593          	mv	a1,s6
     6f0:	000a8613          	mv	a2,s5
     6f4:	000c0713          	mv	a4,s8
{
     6f8:	00050993          	mv	s3,a0
  unpack_sk(rho, tr, key, &t0, &s1, &s2, sk);
     6fc:	000b8513          	mv	a0,s7
{
     700:	01112e23          	sw	a7,28(sp)
  unpack_sk(rho, tr, key, &t0, &s1, &s2, sk);
     704:	469000ef          	jal	ra,136c <pqcrystals_dilithium3_ref_unpack_sk>

  /* Compute CRH(tr, msg) */
  shake256_init(&state);
     708:	e5048493          	addi	s1,s1,-432
     70c:	1b0c8793          	addi	a5,s9,432
     710:	02010713          	addi	a4,sp,32
     714:	009787b3          	add	a5,a5,s1
     718:	00e784b3          	add	s1,a5,a4
     71c:	00048513          	mv	a0,s1
     720:	561050ef          	jal	ra,6480 <pqcrystals_dilithium_fips202_ref_shake256_init>
  shake256_absorb(&state, tr, SEEDBYTES);
     724:	02000613          	li	a2,32
     728:	000b0593          	mv	a1,s6
     72c:	00048513          	mv	a0,s1
     730:	581050ef          	jal	ra,64b0 <pqcrystals_dilithium_fips202_ref_shake256_absorb>
  shake256_absorb(&state, m, mlen);
     734:	000a0613          	mv	a2,s4
     738:	00090593          	mv	a1,s2
     73c:	00048513          	mv	a0,s1
     740:	571050ef          	jal	ra,64b0 <pqcrystals_dilithium_fips202_ref_shake256_absorb>
  shake256_finalize(&state);
     744:	00048513          	mv	a0,s1
     748:	5a1050ef          	jal	ra,64e8 <pqcrystals_dilithium_fips202_ref_shake256_finalize>
  shake256_squeeze(mu, CRHBYTES, &state);
     74c:	00048613          	mv	a2,s1
     750:	04000593          	li	a1,64
     754:	060b8513          	addi	a0,s7,96
     758:	605050ef          	jal	ra,655c <pqcrystals_dilithium_fips202_ref_shake256_squeeze>

#ifdef DILITHIUM_RANDOMIZED_SIGNING
  randombytes(rhoprime, CRHBYTES);
#else
  shake256(rhoprime, CRHBYTES, key, SEEDBYTES + CRHBYTES);
     75c:	0a0b8793          	addi	a5,s7,160
     760:	000a8613          	mv	a2,s5
     764:	06000693          	li	a3,96
     768:	00078513          	mv	a0,a5
     76c:	04000593          	li	a1,64
     770:	00f12a23          	sw	a5,20(sp)
     774:	1c0060ef          	jal	ra,6934 <pqcrystals_dilithium_fips202_ref_shake256>
#endif

  /* Expand matrix and transform vectors */
  polyvec_matrix_expand(mat, rho);
     778:	ffff97b7          	lui	a5,0xffff9
     77c:	80078793          	addi	a5,a5,-2048 # ffff8800 <_end_of_memory+0xfffc8800>
     780:	1b0c8713          	addi	a4,s9,432
     784:	00f70733          	add	a4,a4,a5
     788:	02010793          	addi	a5,sp,32
     78c:	00f707b3          	add	a5,a4,a5
     790:	00078513          	mv	a0,a5
     794:	000b8593          	mv	a1,s7
     798:	00f12c23          	sw	a5,24(sp)
     79c:	180010ef          	jal	ra,191c <pqcrystals_dilithium3_ref_polyvec_matrix_expand>
  polyvecl_ntt(&s1);
     7a0:	000c0513          	mv	a0,s8
     7a4:	4ac010ef          	jal	ra,1c50 <pqcrystals_dilithium3_ref_polyvecl_ntt>
  polyveck_ntt(&s2);
     7a8:	00040513          	mv	a0,s0
     7ac:	0b5010ef          	jal	ra,2060 <pqcrystals_dilithium3_ref_polyveck_ntt>
  polyveck_ntt(&t0);
     7b0:	00c12503          	lw	a0,12(sp)
  polyvec_matrix_expand(mat, rho);
     7b4:	000c8913          	mv	s2,s9

rej:
  /* Sample intermediate vector y */
  polyvecl_uniform_gamma1(&y, rhoprime, nonce++);
     7b8:	fffefd37          	lui	s10,0xfffef
  polyveck_ntt(&t0);
     7bc:	0a5010ef          	jal	ra,2060 <pqcrystals_dilithium3_ref_polyveck_ntt>
  polyvecl_uniform_gamma1(&y, rhoprime, nonce++);
     7c0:	800d0a93          	addi	s5,s10,-2048 # fffee800 <_end_of_memory+0xfffbe800>
     7c4:	1b090793          	addi	a5,s2,432
     7c8:	02010713          	addi	a4,sp,32
     7cc:	015787b3          	add	a5,a5,s5

  /* Matrix-vector multiplication */
  z = y;
     7d0:	ffff0cb7          	lui	s9,0xffff0
  polyvecl_ntt(&z);
     7d4:	c00c8413          	addi	s0,s9,-1024 # fffefc00 <_end_of_memory+0xfffbfc00>
  polyvecl_uniform_gamma1(&y, rhoprime, nonce++);
     7d8:	00e78ab3          	add	s5,a5,a4
  polyvecl_ntt(&z);
     7dc:	1b090793          	addi	a5,s2,432
     7e0:	008787b3          	add	a5,a5,s0
#endif
  polyveck_invntt_tomont(&w1);

  /* Decompose w and call the random oracle */
  polyveck_caddq(&w1);
  polyveck_decompose(&w1, &w0, &w1);
     7e4:	ffff6a37          	lui	s4,0xffff6
     7e8:	800a0a13          	addi	s4,s4,-2048 # ffff5800 <_end_of_memory+0xfffc5800>
  polyvecl_ntt(&z);
     7ec:	00e78433          	add	s0,a5,a4
  polyveck_decompose(&w1, &w0, &w1);
     7f0:	1b090793          	addi	a5,s2,432
     7f4:	014787b3          	add	a5,a5,s4
  uint16_t nonce = 0;
     7f8:	00000613          	li	a2,0
  polyveck_decompose(&w1, &w0, &w1);
     7fc:	00e78a33          	add	s4,a5,a4
  polyvecl_uniform_gamma1(&y, rhoprime, nonce++);
     800:	01412583          	lw	a1,20(sp)
     804:	00160793          	addi	a5,a2,1 # 4001 <KeccakF1600_StatePermute+0x739>
     808:	000a8513          	mv	a0,s5
     80c:	01079913          	slli	s2,a5,0x10
     810:	314010ef          	jal	ra,1b24 <pqcrystals_dilithium3_ref_polyvecl_uniform_gamma1>
  z = y;
     814:	000027b7          	lui	a5,0x2
     818:	02010713          	addi	a4,sp,32
     81c:	1b078793          	addi	a5,a5,432 # 21b0 <pqcrystals_dilithium3_ref_polyveck_chknorm+0x60>
     820:	00e787b3          	add	a5,a5,a4
     824:	00003737          	lui	a4,0x3
     828:	02010693          	addi	a3,sp,32
     82c:	1b070713          	addi	a4,a4,432 # 31b0 <pqcrystals_dilithium3_ref_polyw1_pack+0x4>
     830:	00d70733          	add	a4,a4,a3
     834:	000016b7          	lui	a3,0x1
     838:	80078793          	addi	a5,a5,-2048
     83c:	40068693          	addi	a3,a3,1024 # 1400 <pqcrystals_dilithium3_ref_unpack_sk+0x94>
  polyvecl_uniform_gamma1(&y, rhoprime, nonce++);
     840:	01095913          	srli	s2,s2,0x10
  z = y;
     844:	c0070713          	addi	a4,a4,-1024
     848:	00d786b3          	add	a3,a5,a3
     84c:	0007a803          	lw	a6,0(a5)
     850:	0047a503          	lw	a0,4(a5)
     854:	0087a583          	lw	a1,8(a5)
     858:	00c7a603          	lw	a2,12(a5)
     85c:	01072023          	sw	a6,0(a4)
     860:	00a72223          	sw	a0,4(a4)
     864:	00b72423          	sw	a1,8(a4)
     868:	00c72623          	sw	a2,12(a4)
     86c:	01078793          	addi	a5,a5,16
     870:	01070713          	addi	a4,a4,16
     874:	fcd79ce3          	bne	a5,a3,84c <pqcrystals_dilithium3_ref_signature+0x218>
  polyvecl_ntt(&z);
     878:	00040513          	mv	a0,s0
     87c:	3d4010ef          	jal	ra,1c50 <pqcrystals_dilithium3_ref_polyvecl_ntt>
  polyvec_matrix_pointwise_montgomery(&w1, mat, &z);
     880:	00013b37          	lui	s6,0x13
     884:	ffff47b7          	lui	a5,0xffff4
     888:	1b0b0713          	addi	a4,s6,432 # 131b0 <_gp+0x9c8c>
     88c:	00f70733          	add	a4,a4,a5
     890:	01812583          	lw	a1,24(sp)
     894:	02010793          	addi	a5,sp,32
     898:	00f707b3          	add	a5,a4,a5
     89c:	00078513          	mv	a0,a5
     8a0:	00040613          	mv	a2,s0
     8a4:	00f12623          	sw	a5,12(sp)
     8a8:	128010ef          	jal	ra,19d0 <pqcrystals_dilithium3_ref_polyvec_matrix_pointwise_montgomery>
  polyveck_invntt_tomont(&w1);
     8ac:	00c12503          	lw	a0,12(sp)
     8b0:	7f4010ef          	jal	ra,20a4 <pqcrystals_dilithium3_ref_polyveck_invntt_tomont>
  polyveck_caddq(&w1);
     8b4:	00c12503          	lw	a0,12(sp)
     8b8:	648010ef          	jal	ra,1f00 <pqcrystals_dilithium3_ref_polyveck_caddq>
  polyveck_decompose(&w1, &w0, &w1);
     8bc:	00c12603          	lw	a2,12(sp)
     8c0:	000a0593          	mv	a1,s4
     8c4:	00060513          	mv	a0,a2
     8c8:	169010ef          	jal	ra,2230 <pqcrystals_dilithium3_ref_polyveck_decompose>
  polyveck_pack_w1(sig, &w1);
     8cc:	00c12583          	lw	a1,12(sp)
     8d0:	00098513          	mv	a0,s3
     8d4:	2b5010ef          	jal	ra,2388 <pqcrystals_dilithium3_ref_polyveck_pack_w1>

  shake256_init(&state);
     8d8:	00048513          	mv	a0,s1
     8dc:	3a5050ef          	jal	ra,6480 <pqcrystals_dilithium_fips202_ref_shake256_init>
  shake256_absorb(&state, mu, CRHBYTES);
     8e0:	04000613          	li	a2,64
     8e4:	060b8593          	addi	a1,s7,96
     8e8:	00048513          	mv	a0,s1
     8ec:	3c5050ef          	jal	ra,64b0 <pqcrystals_dilithium_fips202_ref_shake256_absorb>
  shake256_absorb(&state, sig, K*POLYW1_PACKEDBYTES);
     8f0:	00098593          	mv	a1,s3
     8f4:	30000613          	li	a2,768
     8f8:	00048513          	mv	a0,s1
     8fc:	3b5050ef          	jal	ra,64b0 <pqcrystals_dilithium_fips202_ref_shake256_absorb>
  shake256_finalize(&state);
     900:	00048513          	mv	a0,s1
     904:	3e5050ef          	jal	ra,64e8 <pqcrystals_dilithium_fips202_ref_shake256_finalize>
  shake256_squeeze(sig, SEEDBYTES, &state);
     908:	00048613          	mv	a2,s1
     90c:	02000593          	li	a1,32
     910:	00098513          	mv	a0,s3
     914:	449050ef          	jal	ra,655c <pqcrystals_dilithium_fips202_ref_shake256_squeeze>
  poly_challenge(&cp, sig);
     918:	00098593          	mv	a1,s3
     91c:	1d010513          	addi	a0,sp,464
     920:	1c8020ef          	jal	ra,2ae8 <pqcrystals_dilithium3_ref_poly_challenge>
  poly_ntt(&cp);
     924:	1d010513          	addi	a0,sp,464
     928:	401010ef          	jal	ra,2528 <pqcrystals_dilithium3_ref_poly_ntt>
  /* Compute z, reject if it reveals secret */
#ifdef PROFILING_MAC
  uart_send_string("\n\rPointwise mult l vector");
  asm("csrrs s2, "TICKS_REGISTER", zero");
#endif
  polyvecl_pointwise_poly_montgomery(&z, &cp, &s1);
     92c:	000c0613          	mv	a2,s8
     930:	1d010593          	addi	a1,sp,464
     934:	00040513          	mv	a0,s0
     938:	3a0010ef          	jal	ra,1cd8 <pqcrystals_dilithium3_ref_polyvecl_pointwise_poly_montgomery>
#ifdef PROFILING_MAC
  asm("csrrs s3, "TICKS_REGISTER", zero");
  print_runtime(cycle_start, cycle_end);
#endif

  polyvecl_invntt_tomont(&z);
     93c:	00040513          	mv	a0,s0
     940:	354010ef          	jal	ra,1c94 <pqcrystals_dilithium3_ref_polyvecl_invntt_tomont>

#ifdef PROFILING_ADD_SUB
  uart_send_string("\n\rADD polyvecl_add");
  asm("csrrs s2, "TICKS_REGISTER", zero");
#endif
  polyvecl_add(&z, &z, &y);
     944:	00040593          	mv	a1,s0
     948:	00040513          	mv	a0,s0
     94c:	000a8613          	mv	a2,s5
     950:	294010ef          	jal	ra,1be4 <pqcrystals_dilithium3_ref_polyvecl_add>
#ifdef PROFILING_ADD_SUB
  asm("csrrs s3, "TICKS_REGISTER", zero");
  print_runtime(cycle_start, cycle_end);
#endif

  if(polyvecl_chknorm(&z, GAMMA1 - BETA))
     954:	000805b7          	lui	a1,0x80
     958:	f3c58593          	addi	a1,a1,-196 # 7ff3c <_end_of_memory+0x4ff3c>
     95c:	00040513          	mv	a0,s0
     960:	478010ef          	jal	ra,1dd8 <pqcrystals_dilithium3_ref_polyvecl_chknorm>
     964:	0c051863          	bnez	a0,a34 <pqcrystals_dilithium3_ref_signature+0x400>

#ifdef PROFILING_MAC
  uart_send_string("\n\rPointwise mult k vector");
  asm("csrrs s2, "TICKS_REGISTER", zero");
#endif
  polyveck_pointwise_poly_montgomery(&h, &cp, &s2);
     968:	ffff77b7          	lui	a5,0xffff7
     96c:	1b0b0713          	addi	a4,s6,432
     970:	00f70733          	add	a4,a4,a5
     974:	02010793          	addi	a5,sp,32
     978:	00f707b3          	add	a5,a4,a5
     97c:	00f12823          	sw	a5,16(sp)
     980:	ffff3637          	lui	a2,0xffff3
     984:	01012503          	lw	a0,16(sp)
     988:	80060613          	addi	a2,a2,-2048 # ffff2800 <_end_of_memory+0xfffc2800>
     98c:	1b0b0793          	addi	a5,s6,432
     990:	00c787b3          	add	a5,a5,a2
     994:	02010713          	addi	a4,sp,32
     998:	00e78633          	add	a2,a5,a4
     99c:	1d010593          	addi	a1,sp,464
     9a0:	748010ef          	jal	ra,20e8 <pqcrystals_dilithium3_ref_polyveck_pointwise_poly_montgomery>
#ifdef PROFILING_MAC
  asm("csrrs s3, "TICKS_REGISTER", zero");
  print_runtime(cycle_start, cycle_end);
#endif

  polyveck_invntt_tomont(&h);
     9a4:	01012503          	lw	a0,16(sp)
  polyveck_pointwise_poly_montgomery(&h, &cp, &s2);
     9a8:	000b0c93          	mv	s9,s6
#ifdef PROFILING_ADD_SUB
  asm("csrrs s3, "TICKS_REGISTER", zero");
  print_runtime(cycle_start, cycle_end);
#endif

  if(polyveck_chknorm(&w0, GAMMA2 - BETA))
     9ac:	00040b37          	lui	s6,0x40
  polyveck_invntt_tomont(&h);
     9b0:	6f4010ef          	jal	ra,20a4 <pqcrystals_dilithium3_ref_polyveck_invntt_tomont>
  polyveck_sub(&w0, &w0, &h);
     9b4:	01012603          	lw	a2,16(sp)
     9b8:	000a0593          	mv	a1,s4
     9bc:	000a0513          	mv	a0,s4
     9c0:	5f0010ef          	jal	ra,1fb0 <pqcrystals_dilithium3_ref_polyveck_sub>
  if(polyveck_chknorm(&w0, GAMMA2 - BETA))
     9c4:	e3cb0593          	addi	a1,s6,-452 # 3fe3c <_end_of_memory+0xfe3c>
     9c8:	000a0513          	mv	a0,s4
     9cc:	784010ef          	jal	ra,2150 <pqcrystals_dilithium3_ref_polyveck_chknorm>
     9d0:	06051263          	bnez	a0,a34 <pqcrystals_dilithium3_ref_signature+0x400>
    goto rej;

  /* Compute hints for w1 */
  polyveck_pointwise_poly_montgomery(&h, &cp, &t0);
     9d4:	01012503          	lw	a0,16(sp)
     9d8:	ffff1637          	lui	a2,0xffff1
     9dc:	1b0c8793          	addi	a5,s9,432
     9e0:	00c787b3          	add	a5,a5,a2
     9e4:	02010713          	addi	a4,sp,32
     9e8:	1d010593          	addi	a1,sp,464
     9ec:	00e78633          	add	a2,a5,a4
     9f0:	6f8010ef          	jal	ra,20e8 <pqcrystals_dilithium3_ref_polyveck_pointwise_poly_montgomery>
  polyveck_invntt_tomont(&h);
     9f4:	01012503          	lw	a0,16(sp)
     9f8:	6ac010ef          	jal	ra,20a4 <pqcrystals_dilithium3_ref_polyveck_invntt_tomont>
    uart_send_string("\r");
    uart_send_string(str);
  }
#endif

  if(polyveck_chknorm(&h, GAMMA2))
     9fc:	01012503          	lw	a0,16(sp)
     a00:	f00b0593          	addi	a1,s6,-256
     a04:	74c010ef          	jal	ra,2150 <pqcrystals_dilithium3_ref_polyveck_chknorm>
     a08:	02051663          	bnez	a0,a34 <pqcrystals_dilithium3_ref_signature+0x400>
    goto rej;

  polyveck_add(&w0, &w0, &h);
     a0c:	01012603          	lw	a2,16(sp)
     a10:	000a0593          	mv	a1,s4
     a14:	000a0513          	mv	a0,s4
     a18:	52c010ef          	jal	ra,1f44 <pqcrystals_dilithium3_ref_polyveck_add>
  n = polyveck_make_hint(&h, &w0, &w1);
     a1c:	00c12603          	lw	a2,12(sp)
     a20:	01012503          	lw	a0,16(sp)
     a24:	000a0593          	mv	a1,s4
     a28:	075010ef          	jal	ra,229c <pqcrystals_dilithium3_ref_polyveck_make_hint>
  if(n > OMEGA)
     a2c:	03700793          	li	a5,55
     a30:	00a7f663          	bgeu	a5,a0,a3c <pqcrystals_dilithium3_ref_signature+0x408>
{
     a34:	00090613          	mv	a2,s2
     a38:	dc9ff06f          	j	800 <pqcrystals_dilithium3_ref_signature+0x1cc>
    goto rej;

  /* Write signature */
  pack_sig(sig, sig, &z, &h);
     a3c:	01012683          	lw	a3,16(sp)
     a40:	00098513          	mv	a0,s3
     a44:	00040613          	mv	a2,s0
     a48:	00098593          	mv	a1,s3
     a4c:	371000ef          	jal	ra,15bc <pqcrystals_dilithium3_ref_pack_sig>
  *siglen = CRYPTO_BYTES;
     a50:	01c12703          	lw	a4,28(sp)
     a54:	000017b7          	lui	a5,0x1
     a58:	cdd78793          	addi	a5,a5,-803 # cdd <pqcrystals_dilithium3_ref_verify+0x1ad>
     a5c:	00f72023          	sw	a5,0(a4)
  return 0;
}
     a60:	000132b7          	lui	t0,0x13
     a64:	00510133          	add	sp,sp,t0
     a68:	20c12083          	lw	ra,524(sp)
     a6c:	20812403          	lw	s0,520(sp)
     a70:	20412483          	lw	s1,516(sp)
     a74:	20012903          	lw	s2,512(sp)
     a78:	1fc12983          	lw	s3,508(sp)
     a7c:	1f812a03          	lw	s4,504(sp)
     a80:	1f412a83          	lw	s5,500(sp)
     a84:	1f012b03          	lw	s6,496(sp)
     a88:	1ec12b83          	lw	s7,492(sp)
     a8c:	1e812c03          	lw	s8,488(sp)
     a90:	1e412c83          	lw	s9,484(sp)
     a94:	1e012d03          	lw	s10,480(sp)
     a98:	1dc12d83          	lw	s11,476(sp)
     a9c:	00000513          	li	a0,0
     aa0:	21010113          	addi	sp,sp,528
     aa4:	00008067          	ret

00000aa8 <pqcrystals_dilithium3_ref>:
int crypto_sign(uint8_t *sm,
                size_t *smlen,
                const uint8_t *m,
                size_t mlen,
                const uint8_t *sk)
{
     aa8:	ff010113          	addi	sp,sp,-16
     aac:	00812423          	sw	s0,8(sp)
     ab0:	00912223          	sw	s1,4(sp)
     ab4:	00112623          	sw	ra,12(sp)
     ab8:	00068413          	mv	s0,a3
     abc:	00058493          	mv	s1,a1
  size_t i;

  for(i = 0; i < mlen; ++i)
     ac0:	02068a63          	beqz	a3,af4 <pqcrystals_dilithium3_ref+0x4c>
     ac4:	00001837          	lui	a6,0x1
     ac8:	cdc80813          	addi	a6,a6,-804 # cdc <pqcrystals_dilithium3_ref_verify+0x1ac>
     acc:	fff68793          	addi	a5,a3,-1
     ad0:	01068833          	add	a6,a3,a6
     ad4:	00f607b3          	add	a5,a2,a5
     ad8:	01050833          	add	a6,a0,a6
    sm[CRYPTO_BYTES + mlen - 1 - i] = m[mlen - 1 - i];
     adc:	0007c303          	lbu	t1,0(a5)
     ae0:	00078893          	mv	a7,a5
  for(i = 0; i < mlen; ++i)
     ae4:	fff80813          	addi	a6,a6,-1
    sm[CRYPTO_BYTES + mlen - 1 - i] = m[mlen - 1 - i];
     ae8:	006800a3          	sb	t1,1(a6)
  for(i = 0; i < mlen; ++i)
     aec:	fff78793          	addi	a5,a5,-1
     af0:	ff1616e3          	bne	a2,a7,adc <pqcrystals_dilithium3_ref+0x34>
  crypto_sign_signature(sm, smlen, sm + CRYPTO_BYTES, mlen, sk);
     af4:	00001637          	lui	a2,0x1
     af8:	cdd60613          	addi	a2,a2,-803 # cdd <pqcrystals_dilithium3_ref_verify+0x1ad>
     afc:	00040693          	mv	a3,s0
     b00:	00048593          	mv	a1,s1
     b04:	00c50633          	add	a2,a0,a2
     b08:	b2dff0ef          	jal	ra,634 <pqcrystals_dilithium3_ref_signature>
  *smlen += mlen;
     b0c:	0004a783          	lw	a5,0(s1)
  return 0;
}
     b10:	00c12083          	lw	ra,12(sp)
     b14:	00000513          	li	a0,0
  *smlen += mlen;
     b18:	008787b3          	add	a5,a5,s0
}
     b1c:	00812403          	lw	s0,8(sp)
  *smlen += mlen;
     b20:	00f4a023          	sw	a5,0(s1)
}
     b24:	00412483          	lw	s1,4(sp)
     b28:	01010113          	addi	sp,sp,16
     b2c:	00008067          	ret

00000b30 <pqcrystals_dilithium3_ref_verify>:
int crypto_sign_verify(const uint8_t *sig,
                       size_t siglen,
                       const uint8_t *m,
                       size_t mlen,
                       const uint8_t *pk)
{
     b30:	81010113          	addi	sp,sp,-2032
     b34:	ffff32b7          	lui	t0,0xffff3
  poly cp;
  polyvecl mat[K], z;
  polyveck t1, w1, h;
  keccak_state state;

  if(siglen != CRYPTO_BYTES)
     b38:	000017b7          	lui	a5,0x1
{
     b3c:	7e112623          	sw	ra,2028(sp)
     b40:	7e812423          	sw	s0,2024(sp)
     b44:	7e912223          	sw	s1,2020(sp)
     b48:	7f212023          	sw	s2,2016(sp)
     b4c:	7d312e23          	sw	s3,2012(sp)
     b50:	7d412c23          	sw	s4,2008(sp)
     b54:	7d512a23          	sw	s5,2004(sp)
     b58:	7d612823          	sw	s6,2000(sp)
     b5c:	7d712623          	sw	s7,1996(sp)
     b60:	7d812423          	sw	s8,1992(sp)
     b64:	7d912223          	sw	s9,1988(sp)
     b68:	7da12023          	sw	s10,1984(sp)
     b6c:	7bb12e23          	sw	s11,1980(sp)
     b70:	b3028293          	addi	t0,t0,-1232 # ffff2b30 <_end_of_memory+0xfffc2b30>
  if(siglen != CRYPTO_BYTES)
     b74:	cdd78793          	addi	a5,a5,-803 # cdd <pqcrystals_dilithium3_ref_verify+0x1ad>
{
     b78:	00510133          	add	sp,sp,t0
  if(siglen != CRYPTO_BYTES)
     b7c:	2af59a63          	bne	a1,a5,e30 <pqcrystals_dilithium3_ref_verify+0x300>
    return -1;

  unpack_pk(rho, &t1, pk);
     b80:	0000edb7          	lui	s11,0xe
     b84:	00070913          	mv	s2,a4
     b88:	ffff47b7          	lui	a5,0xffff4
     b8c:	c70d8713          	addi	a4,s11,-912 # dc70 <_gp+0x474c>
     b90:	00f70733          	add	a4,a4,a5
     b94:	01010793          	addi	a5,sp,16
     b98:	00f707b3          	add	a5,a4,a5
     b9c:	ffff24b7          	lui	s1,0xffff2
     ba0:	00f12423          	sw	a5,8(sp)
     ba4:	39048c93          	addi	s9,s1,912 # ffff2390 <_end_of_memory+0xfffc2390>
     ba8:	c70d8793          	addi	a5,s11,-912
     bac:	019787b3          	add	a5,a5,s9
     bb0:	01010713          	addi	a4,sp,16
     bb4:	00812583          	lw	a1,8(sp)
     bb8:	00e78cb3          	add	s9,a5,a4
     bbc:	00050993          	mv	s3,a0
     bc0:	00060b93          	mv	s7,a2
     bc4:	000c8513          	mv	a0,s9
     bc8:	00090613          	mv	a2,s2
     bcc:	00068d13          	mv	s10,a3
     bd0:	488000ef          	jal	ra,1058 <pqcrystals_dilithium3_ref_unpack_pk>
  if(unpack_sig(c, &z, &h, sig))
     bd4:	ffff77b7          	lui	a5,0xffff7
     bd8:	c70d8713          	addi	a4,s11,-912
     bdc:	00f70733          	add	a4,a4,a5
     be0:	01010793          	addi	a5,sp,16
     be4:	00f707b3          	add	a5,a4,a5
     be8:	ffff3a37          	lui	s4,0xffff3
     bec:	c00a0a93          	addi	s5,s4,-1024 # ffff2c00 <_end_of_memory+0xfffc2c00>
     bf0:	00f12623          	sw	a5,12(sp)
     bf4:	c70d8793          	addi	a5,s11,-912
     bf8:	015787b3          	add	a5,a5,s5
     bfc:	01010713          	addi	a4,sp,16
     c00:	3b048593          	addi	a1,s1,944
     c04:	00e78ab3          	add	s5,a5,a4
     c08:	c70d8793          	addi	a5,s11,-912
     c0c:	00b787b3          	add	a5,a5,a1
     c10:	00c12603          	lw	a2,12(sp)
     c14:	00e78433          	add	s0,a5,a4
     c18:	00098693          	mv	a3,s3
     c1c:	000a8593          	mv	a1,s5
     c20:	00040513          	mv	a0,s0
     c24:	301000ef          	jal	ra,1724 <pqcrystals_dilithium3_ref_unpack_sig>
     c28:	20051463          	bnez	a0,e30 <pqcrystals_dilithium3_ref_verify+0x300>
    return -1;
  if(polyvecl_chknorm(&z, GAMMA1 - BETA))
     c2c:	000805b7          	lui	a1,0x80
     c30:	f3c58593          	addi	a1,a1,-196 # 7ff3c <_end_of_memory+0x4ff3c>
     c34:	000a8513          	mv	a0,s5
     c38:	1a0010ef          	jal	ra,1dd8 <pqcrystals_dilithium3_ref_polyvecl_chknorm>
     c3c:	00050c13          	mv	s8,a0
     c40:	1e051863          	bnez	a0,e30 <pqcrystals_dilithium3_ref_verify+0x300>
    return -1;

  /* Compute CRH(H(rho, t1), msg) */
  shake256(mu, SEEDBYTES, pk, CRYPTO_PUBLICKEYBYTES);
     c44:	3f048b13          	addi	s6,s1,1008
     c48:	c70d8793          	addi	a5,s11,-912
     c4c:	016787b3          	add	a5,a5,s6
     c50:	01010713          	addi	a4,sp,16
     c54:	00e78b33          	add	s6,a5,a4
     c58:	7a000693          	li	a3,1952
     c5c:	00090613          	mv	a2,s2
     c60:	02000593          	li	a1,32
     c64:	000b0513          	mv	a0,s6
     c68:	4cd050ef          	jal	ra,6934 <pqcrystals_dilithium_fips202_ref_shake256>
  shake256_init(&state);
     c6c:	43048993          	addi	s3,s1,1072
     c70:	c70d8793          	addi	a5,s11,-912
     c74:	013787b3          	add	a5,a5,s3
     c78:	01010713          	addi	a4,sp,16
     c7c:	00e789b3          	add	s3,a5,a4
     c80:	00098513          	mv	a0,s3
     c84:	7fc050ef          	jal	ra,6480 <pqcrystals_dilithium_fips202_ref_shake256_init>
  shake256_absorb(&state, mu, SEEDBYTES);
     c88:	02000613          	li	a2,32
     c8c:	000b0593          	mv	a1,s6
     c90:	00098513          	mv	a0,s3
     c94:	01d050ef          	jal	ra,64b0 <pqcrystals_dilithium_fips202_ref_shake256_absorb>
  shake256_absorb(&state, m, mlen);
     c98:	000b8593          	mv	a1,s7
     c9c:	000d0613          	mv	a2,s10
     ca0:	00098513          	mv	a0,s3
     ca4:	00d050ef          	jal	ra,64b0 <pqcrystals_dilithium_fips202_ref_shake256_absorb>
  shake256_finalize(&state);
     ca8:	00098513          	mv	a0,s3
     cac:	03d050ef          	jal	ra,64e8 <pqcrystals_dilithium_fips202_ref_shake256_finalize>
  shake256_squeeze(mu, CRHBYTES, &state);
     cb0:	00098613          	mv	a2,s3
     cb4:	04000593          	li	a1,64
     cb8:	000b0513          	mv	a0,s6
     cbc:	0a1050ef          	jal	ra,655c <pqcrystals_dilithium_fips202_ref_shake256_squeeze>

  /* Matrix-vector multiplication; compute Az - c2^dt1 */
  poly_challenge(&cp, c);
     cc0:	800a0a13          	addi	s4,s4,-2048
     cc4:	c70d8793          	addi	a5,s11,-912
     cc8:	014787b3          	add	a5,a5,s4
     ccc:	01010713          	addi	a4,sp,16
     cd0:	00e78a33          	add	s4,a5,a4
     cd4:	000a0513          	mv	a0,s4
     cd8:	00040593          	mv	a1,s0
     cdc:	60d010ef          	jal	ra,2ae8 <pqcrystals_dilithium3_ref_poly_challenge>
  polyvec_matrix_expand(mat, rho);
     ce0:	ffff9bb7          	lui	s7,0xffff9
     ce4:	800b8b93          	addi	s7,s7,-2048 # ffff8800 <_end_of_memory+0xfffc8800>
     ce8:	c70d8793          	addi	a5,s11,-912
     cec:	017787b3          	add	a5,a5,s7
     cf0:	01010713          	addi	a4,sp,16
     cf4:	00e78bb3          	add	s7,a5,a4
     cf8:	000c8593          	mv	a1,s9
     cfc:	000b8513          	mv	a0,s7
     d00:	41d000ef          	jal	ra,191c <pqcrystals_dilithium3_ref_polyvec_matrix_expand>

  polyvecl_ntt(&z);
     d04:	000a8513          	mv	a0,s5
     d08:	749000ef          	jal	ra,1c50 <pqcrystals_dilithium3_ref_polyvecl_ntt>
  polyvec_matrix_pointwise_montgomery(&w1, mat, &z);
     d0c:	ffff6937          	lui	s2,0xffff6
     d10:	80090913          	addi	s2,s2,-2048 # ffff5800 <_end_of_memory+0xfffc5800>
     d14:	c70d8793          	addi	a5,s11,-912
     d18:	012787b3          	add	a5,a5,s2
     d1c:	01010713          	addi	a4,sp,16
     d20:	00e78933          	add	s2,a5,a4
     d24:	000a8613          	mv	a2,s5
     d28:	000b8593          	mv	a1,s7
     d2c:	00090513          	mv	a0,s2
     d30:	4a1000ef          	jal	ra,19d0 <pqcrystals_dilithium3_ref_polyvec_matrix_pointwise_montgomery>

  poly_ntt(&cp);
     d34:	000a0513          	mv	a0,s4
     d38:	7f0010ef          	jal	ra,2528 <pqcrystals_dilithium3_ref_poly_ntt>
  polyveck_shiftl(&t1);
     d3c:	00812503          	lw	a0,8(sp)
     d40:	2dc010ef          	jal	ra,201c <pqcrystals_dilithium3_ref_polyveck_shiftl>
  polyveck_ntt(&t1);
     d44:	00812503          	lw	a0,8(sp)
     d48:	318010ef          	jal	ra,2060 <pqcrystals_dilithium3_ref_polyveck_ntt>
  polyveck_pointwise_poly_montgomery(&t1, &cp, &t1);
     d4c:	00812603          	lw	a2,8(sp)
     d50:	000a0593          	mv	a1,s4
  polyveck_invntt_tomont(&w1);

  /* Reconstruct w1 */
  polyveck_caddq(&w1);
  polyveck_use_hint(&w1, &w1, &h);
  polyveck_pack_w1(buf, &w1);
     d54:	50048a13          	addi	s4,s1,1280
  polyveck_pointwise_poly_montgomery(&t1, &cp, &t1);
     d58:	00060513          	mv	a0,a2
     d5c:	38c010ef          	jal	ra,20e8 <pqcrystals_dilithium3_ref_polyveck_pointwise_poly_montgomery>
  polyveck_sub(&w1, &w1, &t1);
     d60:	00812603          	lw	a2,8(sp)
     d64:	00090593          	mv	a1,s2
     d68:	00090513          	mv	a0,s2
     d6c:	244010ef          	jal	ra,1fb0 <pqcrystals_dilithium3_ref_polyveck_sub>
  polyveck_reduce(&w1);
     d70:	00090513          	mv	a0,s2
     d74:	148010ef          	jal	ra,1ebc <pqcrystals_dilithium3_ref_polyveck_reduce>
  polyveck_invntt_tomont(&w1);
     d78:	00090513          	mv	a0,s2
     d7c:	328010ef          	jal	ra,20a4 <pqcrystals_dilithium3_ref_polyveck_invntt_tomont>
  polyveck_caddq(&w1);
     d80:	00090513          	mv	a0,s2
     d84:	17c010ef          	jal	ra,1f00 <pqcrystals_dilithium3_ref_polyveck_caddq>
  polyveck_use_hint(&w1, &w1, &h);
     d88:	00c12603          	lw	a2,12(sp)
     d8c:	00090593          	mv	a1,s2
     d90:	00090513          	mv	a0,s2
     d94:	588010ef          	jal	ra,231c <pqcrystals_dilithium3_ref_polyveck_use_hint>
  polyveck_pack_w1(buf, &w1);
     d98:	c70d8793          	addi	a5,s11,-912
     d9c:	014787b3          	add	a5,a5,s4
     da0:	01010713          	addi	a4,sp,16
     da4:	00e78a33          	add	s4,a5,a4
     da8:	00090593          	mv	a1,s2
     dac:	000a0513          	mv	a0,s4
     db0:	5d8010ef          	jal	ra,2388 <pqcrystals_dilithium3_ref_polyveck_pack_w1>

  /* Call random oracle and verify challenge */
  shake256_init(&state);
     db4:	00098513          	mv	a0,s3
     db8:	6c8050ef          	jal	ra,6480 <pqcrystals_dilithium_fips202_ref_shake256_init>
  shake256_absorb(&state, mu, CRHBYTES);
     dbc:	04000613          	li	a2,64
     dc0:	000b0593          	mv	a1,s6
     dc4:	00098513          	mv	a0,s3
     dc8:	6e8050ef          	jal	ra,64b0 <pqcrystals_dilithium_fips202_ref_shake256_absorb>
  shake256_absorb(&state, buf, K*POLYW1_PACKEDBYTES);
     dcc:	30000613          	li	a2,768
     dd0:	000a0593          	mv	a1,s4
     dd4:	00098513          	mv	a0,s3
     dd8:	6d8050ef          	jal	ra,64b0 <pqcrystals_dilithium_fips202_ref_shake256_absorb>
  shake256_finalize(&state);
     ddc:	00098513          	mv	a0,s3
     de0:	708050ef          	jal	ra,64e8 <pqcrystals_dilithium_fips202_ref_shake256_finalize>
  shake256_squeeze(c2, SEEDBYTES, &state);
     de4:	3d048493          	addi	s1,s1,976
     de8:	c70d8793          	addi	a5,s11,-912
     dec:	009787b3          	add	a5,a5,s1
     df0:	01010713          	addi	a4,sp,16
     df4:	00e784b3          	add	s1,a5,a4
     df8:	02000593          	li	a1,32
     dfc:	00048513          	mv	a0,s1
     e00:	00098613          	mv	a2,s3
     e04:	758050ef          	jal	ra,655c <pqcrystals_dilithium_fips202_ref_shake256_squeeze>
  for(i = 0; i < SEEDBYTES; ++i)
     e08:	00040593          	mv	a1,s0
     e0c:	00048513          	mv	a0,s1
     e10:	02040693          	addi	a3,s0,32
     e14:	0080006f          	j	e1c <pqcrystals_dilithium3_ref_verify+0x2ec>
     e18:	00d58e63          	beq	a1,a3,e34 <pqcrystals_dilithium3_ref_verify+0x304>
    if(c[i] != c2[i])
     e1c:	0005c703          	lbu	a4,0(a1)
     e20:	00054783          	lbu	a5,0(a0) # ffff4000 <_end_of_memory+0xfffc4000>
  for(i = 0; i < SEEDBYTES; ++i)
     e24:	00158593          	addi	a1,a1,1
     e28:	00150513          	addi	a0,a0,1
    if(c[i] != c2[i])
     e2c:	fef706e3          	beq	a4,a5,e18 <pqcrystals_dilithium3_ref_verify+0x2e8>
    return -1;
     e30:	fff00c13          	li	s8,-1
      return -1;

  return 0;
}
     e34:	0000d2b7          	lui	t0,0xd
     e38:	4d028293          	addi	t0,t0,1232 # d4d0 <_gp+0x3fac>
     e3c:	00510133          	add	sp,sp,t0
     e40:	7ec12083          	lw	ra,2028(sp)
     e44:	000c0513          	mv	a0,s8
     e48:	7e812403          	lw	s0,2024(sp)
     e4c:	7e412483          	lw	s1,2020(sp)
     e50:	7e012903          	lw	s2,2016(sp)
     e54:	7dc12983          	lw	s3,2012(sp)
     e58:	7d812a03          	lw	s4,2008(sp)
     e5c:	7d412a83          	lw	s5,2004(sp)
     e60:	7d012b03          	lw	s6,2000(sp)
     e64:	7cc12b83          	lw	s7,1996(sp)
     e68:	7c812c03          	lw	s8,1992(sp)
     e6c:	7c412c83          	lw	s9,1988(sp)
     e70:	7c012d03          	lw	s10,1984(sp)
     e74:	7bc12d83          	lw	s11,1980(sp)
     e78:	7f010113          	addi	sp,sp,2032
     e7c:	00008067          	ret

00000e80 <pqcrystals_dilithium3_ref_open>:
int crypto_sign_open(uint8_t *m,
                     size_t *mlen,
                     const uint8_t *sm,
                     size_t smlen,
                     const uint8_t *pk)
{
     e80:	fe010113          	addi	sp,sp,-32
     e84:	01212823          	sw	s2,16(sp)
  size_t i;

  if(smlen < CRYPTO_BYTES)
     e88:	00001937          	lui	s2,0x1
{
     e8c:	00812c23          	sw	s0,24(sp)
     e90:	01312623          	sw	s3,12(sp)
     e94:	01412423          	sw	s4,8(sp)
     e98:	00112e23          	sw	ra,28(sp)
     e9c:	00912a23          	sw	s1,20(sp)
  if(smlen < CRYPTO_BYTES)
     ea0:	cdc90793          	addi	a5,s2,-804 # cdc <pqcrystals_dilithium3_ref_verify+0x1ac>
{
     ea4:	00068993          	mv	s3,a3
     ea8:	00050a13          	mv	s4,a0
     eac:	00058413          	mv	s0,a1
  if(smlen < CRYPTO_BYTES)
     eb0:	04d7e263          	bltu	a5,a3,ef4 <pqcrystals_dilithium3_ref_open+0x74>
    return 0;
  }

badsig:
  /* Signature verification failed */
  *mlen = -1;
     eb4:	fff00793          	li	a5,-1
     eb8:	00f5a023          	sw	a5,0(a1)
  for(i = 0; i < smlen; ++i)
     ebc:	00068a63          	beqz	a3,ed0 <pqcrystals_dilithium3_ref_open+0x50>
    m[i] = 0;
     ec0:	00098613          	mv	a2,s3
     ec4:	00000593          	li	a1,0
     ec8:	000a0513          	mv	a0,s4
     ecc:	090070ef          	jal	ra,7f5c <memset>

  return -1;
     ed0:	fff00513          	li	a0,-1
}
     ed4:	01c12083          	lw	ra,28(sp)
     ed8:	01812403          	lw	s0,24(sp)
     edc:	01412483          	lw	s1,20(sp)
     ee0:	01012903          	lw	s2,16(sp)
     ee4:	00c12983          	lw	s3,12(sp)
     ee8:	00812a03          	lw	s4,8(sp)
     eec:	02010113          	addi	sp,sp,32
     ef0:	00008067          	ret
  *mlen = smlen - CRYPTO_BYTES;
     ef4:	fffff6b7          	lui	a3,0xfffff
     ef8:	32368693          	addi	a3,a3,803 # fffff323 <_end_of_memory+0xfffcf323>
     efc:	00060493          	mv	s1,a2
  if(crypto_sign_verify(sm, CRYPTO_BYTES, sm + CRYPTO_BYTES, *mlen, pk))
     f00:	cdd90913          	addi	s2,s2,-803
  *mlen = smlen - CRYPTO_BYTES;
     f04:	00d986b3          	add	a3,s3,a3
     f08:	00d5a023          	sw	a3,0(a1)
  if(crypto_sign_verify(sm, CRYPTO_BYTES, sm + CRYPTO_BYTES, *mlen, pk))
     f0c:	01260633          	add	a2,a2,s2
     f10:	00090593          	mv	a1,s2
     f14:	00048513          	mv	a0,s1
     f18:	c19ff0ef          	jal	ra,b30 <pqcrystals_dilithium3_ref_verify>
     f1c:	04051863          	bnez	a0,f6c <pqcrystals_dilithium3_ref_open+0xec>
    for(i = 0; i < *mlen; ++i)
     f20:	00042783          	lw	a5,0(s0)
     f24:	fa0788e3          	beqz	a5,ed4 <pqcrystals_dilithium3_ref_open+0x54>
     f28:	00000793          	li	a5,0
      m[i] = sm[CRYPTO_BYTES + i];
     f2c:	01278733          	add	a4,a5,s2
     f30:	00e48733          	add	a4,s1,a4
     f34:	00074683          	lbu	a3,0(a4)
     f38:	00fa0733          	add	a4,s4,a5
    for(i = 0; i < *mlen; ++i)
     f3c:	00178793          	addi	a5,a5,1 # ffff7001 <_end_of_memory+0xfffc7001>
      m[i] = sm[CRYPTO_BYTES + i];
     f40:	00d70023          	sb	a3,0(a4)
    for(i = 0; i < *mlen; ++i)
     f44:	00042703          	lw	a4,0(s0)
     f48:	fee7e2e3          	bltu	a5,a4,f2c <pqcrystals_dilithium3_ref_open+0xac>
}
     f4c:	01c12083          	lw	ra,28(sp)
     f50:	01812403          	lw	s0,24(sp)
     f54:	01412483          	lw	s1,20(sp)
     f58:	01012903          	lw	s2,16(sp)
     f5c:	00c12983          	lw	s3,12(sp)
     f60:	00812a03          	lw	s4,8(sp)
     f64:	02010113          	addi	sp,sp,32
     f68:	00008067          	ret
  *mlen = -1;
     f6c:	fff00793          	li	a5,-1
     f70:	00f42023          	sw	a5,0(s0)
    m[i] = 0;
     f74:	00098613          	mv	a2,s3
     f78:	00000593          	li	a1,0
     f7c:	000a0513          	mv	a0,s4
     f80:	7dd060ef          	jal	ra,7f5c <memset>
     f84:	f4dff06f          	j	ed0 <pqcrystals_dilithium3_ref_open+0x50>

00000f88 <pqcrystals_dilithium3_ref_pack_pk>:
*              - const polyveck *t1: pointer to vector t1
**************************************************/
void pack_pk(uint8_t pk[CRYPTO_PUBLICKEYBYTES],
             const uint8_t rho[SEEDBYTES],
             const polyveck *t1)
{
     f88:	ff010113          	addi	sp,sp,-16
     f8c:	00b56733          	or	a4,a0,a1
     f90:	00112623          	sw	ra,12(sp)
     f94:	00812423          	sw	s0,8(sp)
     f98:	00912223          	sw	s1,4(sp)
     f9c:	01212023          	sw	s2,0(sp)
     fa0:	00377713          	andi	a4,a4,3
     fa4:	00058793          	mv	a5,a1
     fa8:	08071863          	bnez	a4,1038 <pqcrystals_dilithium3_ref_pack_pk+0xb0>
     fac:	00158713          	addi	a4,a1,1
     fb0:	40e50733          	sub	a4,a0,a4
     fb4:	00373713          	sltiu	a4,a4,3
     fb8:	08071063          	bnez	a4,1038 <pqcrystals_dilithium3_ref_pack_pk+0xb0>
  unsigned int i;

  for(i = 0; i < SEEDBYTES; ++i)
    pk[i] = rho[i];
     fbc:	0005a703          	lw	a4,0(a1)
     fc0:	00e52023          	sw	a4,0(a0)
     fc4:	0045a703          	lw	a4,4(a1)
     fc8:	00e52223          	sw	a4,4(a0)
     fcc:	0085a703          	lw	a4,8(a1)
     fd0:	00e52423          	sw	a4,8(a0)
     fd4:	00c5a703          	lw	a4,12(a1)
     fd8:	00e52623          	sw	a4,12(a0)
     fdc:	0105a703          	lw	a4,16(a1)
     fe0:	00e52823          	sw	a4,16(a0)
     fe4:	0145a703          	lw	a4,20(a1)
     fe8:	00e52a23          	sw	a4,20(a0)
     fec:	0185a703          	lw	a4,24(a1)
     ff0:	00e52c23          	sw	a4,24(a0)
     ff4:	01c5a783          	lw	a5,28(a1)
     ff8:	00f52e23          	sw	a5,28(a0)
  for(i = 0; i < SEEDBYTES; ++i)
     ffc:	02050413          	addi	s0,a0,32
    1000:	00060493          	mv	s1,a2
    1004:	7a050913          	addi	s2,a0,1952
  pk += SEEDBYTES;

  for(i = 0; i < K; ++i)
    polyt1_pack(pk + i*POLYT1_PACKEDBYTES, &t1->vec[i]);
    1008:	00048593          	mv	a1,s1
    100c:	00040513          	mv	a0,s0
  for(i = 0; i < K; ++i)
    1010:	14040413          	addi	s0,s0,320
    polyt1_pack(pk + i*POLYT1_PACKEDBYTES, &t1->vec[i]);
    1014:	4b9010ef          	jal	ra,2ccc <pqcrystals_dilithium3_ref_polyt1_pack>
  for(i = 0; i < K; ++i)
    1018:	40048493          	addi	s1,s1,1024
    101c:	ff2416e3          	bne	s0,s2,1008 <pqcrystals_dilithium3_ref_pack_pk+0x80>
}
    1020:	00c12083          	lw	ra,12(sp)
    1024:	00812403          	lw	s0,8(sp)
    1028:	00412483          	lw	s1,4(sp)
    102c:	00012903          	lw	s2,0(sp)
    1030:	01010113          	addi	sp,sp,16
    1034:	00008067          	ret
    1038:	00050713          	mv	a4,a0
    103c:	02078593          	addi	a1,a5,32
    pk[i] = rho[i];
    1040:	0007c683          	lbu	a3,0(a5)
  for(i = 0; i < SEEDBYTES; ++i)
    1044:	00178793          	addi	a5,a5,1
    1048:	00170713          	addi	a4,a4,1
    pk[i] = rho[i];
    104c:	fed70fa3          	sb	a3,-1(a4)
  for(i = 0; i < SEEDBYTES; ++i)
    1050:	feb798e3          	bne	a5,a1,1040 <pqcrystals_dilithium3_ref_pack_pk+0xb8>
    1054:	fa9ff06f          	j	ffc <pqcrystals_dilithium3_ref_pack_pk+0x74>

00001058 <pqcrystals_dilithium3_ref_unpack_pk>:
*              - uint8_t pk[]: byte array containing bit-packed pk
**************************************************/
void unpack_pk(uint8_t rho[SEEDBYTES],
               polyveck *t1,
               const uint8_t pk[CRYPTO_PUBLICKEYBYTES])
{
    1058:	ff010113          	addi	sp,sp,-16
    105c:	00a66733          	or	a4,a2,a0
    1060:	00112623          	sw	ra,12(sp)
    1064:	00812423          	sw	s0,8(sp)
    1068:	00912223          	sw	s1,4(sp)
    106c:	01212023          	sw	s2,0(sp)
    1070:	00377713          	andi	a4,a4,3
    1074:	00050793          	mv	a5,a0
    1078:	08071863          	bnez	a4,1108 <pqcrystals_dilithium3_ref_unpack_pk+0xb0>
    107c:	00160713          	addi	a4,a2,1
    1080:	40e50733          	sub	a4,a0,a4
    1084:	00373713          	sltiu	a4,a4,3
    1088:	08071063          	bnez	a4,1108 <pqcrystals_dilithium3_ref_unpack_pk+0xb0>
  unsigned int i;

  for(i = 0; i < SEEDBYTES; ++i)
    rho[i] = pk[i];
    108c:	00062703          	lw	a4,0(a2)
    1090:	02060413          	addi	s0,a2,32
    1094:	00e52023          	sw	a4,0(a0)
    1098:	00462703          	lw	a4,4(a2)
    109c:	00e52223          	sw	a4,4(a0)
    10a0:	00862703          	lw	a4,8(a2)
    10a4:	00e52423          	sw	a4,8(a0)
    10a8:	00c62703          	lw	a4,12(a2)
    10ac:	00e52623          	sw	a4,12(a0)
    10b0:	01062703          	lw	a4,16(a2)
    10b4:	00e52823          	sw	a4,16(a0)
    10b8:	01462703          	lw	a4,20(a2)
    10bc:	00e52a23          	sw	a4,20(a0)
    10c0:	01862703          	lw	a4,24(a2)
    10c4:	00e52c23          	sw	a4,24(a0)
    10c8:	01c62703          	lw	a4,28(a2)
    10cc:	00e52e23          	sw	a4,28(a0)
  for(i = 0; i < SEEDBYTES; ++i)
    10d0:	00058493          	mv	s1,a1
    10d4:	7a060913          	addi	s2,a2,1952
  pk += SEEDBYTES;

  for(i = 0; i < K; ++i)
    polyt1_unpack(&t1->vec[i], pk + i*POLYT1_PACKEDBYTES);
    10d8:	00040593          	mv	a1,s0
    10dc:	00048513          	mv	a0,s1
  for(i = 0; i < K; ++i)
    10e0:	14040413          	addi	s0,s0,320
    polyt1_unpack(&t1->vec[i], pk + i*POLYT1_PACKEDBYTES);
    10e4:	459010ef          	jal	ra,2d3c <pqcrystals_dilithium3_ref_polyt1_unpack>
  for(i = 0; i < K; ++i)
    10e8:	40048493          	addi	s1,s1,1024
    10ec:	ff2416e3          	bne	s0,s2,10d8 <pqcrystals_dilithium3_ref_unpack_pk+0x80>
}
    10f0:	00c12083          	lw	ra,12(sp)
    10f4:	00812403          	lw	s0,8(sp)
    10f8:	00412483          	lw	s1,4(sp)
    10fc:	00012903          	lw	s2,0(sp)
    1100:	01010113          	addi	sp,sp,16
    1104:	00008067          	ret
    1108:	00060713          	mv	a4,a2
    110c:	02060413          	addi	s0,a2,32
    rho[i] = pk[i];
    1110:	00074683          	lbu	a3,0(a4)
  for(i = 0; i < SEEDBYTES; ++i)
    1114:	00170713          	addi	a4,a4,1
    1118:	00178793          	addi	a5,a5,1
    rho[i] = pk[i];
    111c:	fed78fa3          	sb	a3,-1(a5)
  for(i = 0; i < SEEDBYTES; ++i)
    1120:	fe8718e3          	bne	a4,s0,1110 <pqcrystals_dilithium3_ref_unpack_pk+0xb8>
    1124:	fadff06f          	j	10d0 <pqcrystals_dilithium3_ref_unpack_pk+0x78>

00001128 <pqcrystals_dilithium3_ref_pack_sk>:
             const uint8_t tr[SEEDBYTES],
             const uint8_t key[SEEDBYTES],
             const polyveck *t0,
             const polyvecl *s1,
             const polyveck *s2)
{
    1128:	fe010113          	addi	sp,sp,-32
    112c:	00812c23          	sw	s0,24(sp)
    1130:	00050413          	mv	s0,a0
    1134:	00b56533          	or	a0,a0,a1
    1138:	00912a23          	sw	s1,20(sp)
    113c:	01212823          	sw	s2,16(sp)
    1140:	01312623          	sw	s3,12(sp)
    1144:	00112e23          	sw	ra,28(sp)
    1148:	01412423          	sw	s4,8(sp)
    114c:	01512223          	sw	s5,4(sp)
    1150:	00357513          	andi	a0,a0,3
    1154:	00058893          	mv	a7,a1
    1158:	00070993          	mv	s3,a4
    115c:	00078913          	mv	s2,a5
    1160:	00080493          	mv	s1,a6
    1164:	1a051863          	bnez	a0,1314 <pqcrystals_dilithium3_ref_pack_sk+0x1ec>
    1168:	00158793          	addi	a5,a1,1
    116c:	40f407b3          	sub	a5,s0,a5
    1170:	0037b793          	sltiu	a5,a5,3
    1174:	1a079063          	bnez	a5,1314 <pqcrystals_dilithium3_ref_pack_sk+0x1ec>
  unsigned int i;

  for(i = 0; i < SEEDBYTES; ++i)
    sk[i] = rho[i];
    1178:	0005a783          	lw	a5,0(a1)
    117c:	00f42023          	sw	a5,0(s0)
    1180:	0045a783          	lw	a5,4(a1)
    1184:	00f42223          	sw	a5,4(s0)
    1188:	0085a783          	lw	a5,8(a1)
    118c:	00f42423          	sw	a5,8(s0)
    1190:	00c5a783          	lw	a5,12(a1)
    1194:	00f42623          	sw	a5,12(s0)
    1198:	0105a783          	lw	a5,16(a1)
    119c:	00f42823          	sw	a5,16(s0)
    11a0:	0145a783          	lw	a5,20(a1)
    11a4:	00f42a23          	sw	a5,20(s0)
    11a8:	0185a783          	lw	a5,24(a1)
    11ac:	00f42c23          	sw	a5,24(s0)
    11b0:	01c5a783          	lw	a5,28(a1)
    11b4:	00f42e23          	sw	a5,28(s0)
  for(i = 0; i < SEEDBYTES; ++i)
    11b8:	02040793          	addi	a5,s0,32
    11bc:	00f6e733          	or	a4,a3,a5
    11c0:	00377713          	andi	a4,a4,3
    11c4:	18071663          	bnez	a4,1350 <pqcrystals_dilithium3_ref_pack_sk+0x228>
    11c8:	00168713          	addi	a4,a3,1
    11cc:	40e78733          	sub	a4,a5,a4
    11d0:	00373713          	sltiu	a4,a4,3
    11d4:	16071e63          	bnez	a4,1350 <pqcrystals_dilithium3_ref_pack_sk+0x228>
  sk += SEEDBYTES;

  for(i = 0; i < SEEDBYTES; ++i)
    sk[i] = key[i];
    11d8:	0006a783          	lw	a5,0(a3)
    11dc:	02f42023          	sw	a5,32(s0)
    11e0:	0046a783          	lw	a5,4(a3)
    11e4:	02f42223          	sw	a5,36(s0)
    11e8:	0086a783          	lw	a5,8(a3)
    11ec:	02f42423          	sw	a5,40(s0)
    11f0:	00c6a783          	lw	a5,12(a3)
    11f4:	02f42623          	sw	a5,44(s0)
    11f8:	0106a783          	lw	a5,16(a3)
    11fc:	02f42823          	sw	a5,48(s0)
    1200:	0146a783          	lw	a5,20(a3)
    1204:	02f42a23          	sw	a5,52(s0)
    1208:	0186a783          	lw	a5,24(a3)
    120c:	02f42c23          	sw	a5,56(s0)
    1210:	01c6a783          	lw	a5,28(a3)
    1214:	02f42e23          	sw	a5,60(s0)
  for(i = 0; i < SEEDBYTES; ++i)
    1218:	04040793          	addi	a5,s0,64
    121c:	00160713          	addi	a4,a2,1
    1220:	40e78733          	sub	a4,a5,a4
    1224:	00373713          	sltiu	a4,a4,3
    1228:	10071663          	bnez	a4,1334 <pqcrystals_dilithium3_ref_pack_sk+0x20c>
    122c:	00f66733          	or	a4,a2,a5
    1230:	00377713          	andi	a4,a4,3
    1234:	10071063          	bnez	a4,1334 <pqcrystals_dilithium3_ref_pack_sk+0x20c>
  sk += SEEDBYTES;

  for(i = 0; i < SEEDBYTES; ++i)
    sk[i] = tr[i];
    1238:	00062783          	lw	a5,0(a2)
    123c:	04f42023          	sw	a5,64(s0)
    1240:	00462783          	lw	a5,4(a2)
    1244:	04f42223          	sw	a5,68(s0)
    1248:	00862783          	lw	a5,8(a2)
    124c:	04f42423          	sw	a5,72(s0)
    1250:	00c62783          	lw	a5,12(a2)
    1254:	04f42623          	sw	a5,76(s0)
    1258:	01062783          	lw	a5,16(a2)
    125c:	04f42823          	sw	a5,80(s0)
    1260:	01462783          	lw	a5,20(a2)
    1264:	04f42a23          	sw	a5,84(s0)
    1268:	01862783          	lw	a5,24(a2)
    126c:	04f42c23          	sw	a5,88(s0)
    1270:	01c62783          	lw	a5,28(a2)
    1274:	04f42e23          	sw	a5,92(s0)
  for(i = 0; i < SEEDBYTES; ++i)
    1278:	00001ab7          	lui	s5,0x1
    127c:	400a8a93          	addi	s5,s5,1024 # 1400 <pqcrystals_dilithium3_ref_unpack_sk+0x94>
    1280:	06040a13          	addi	s4,s0,96
    1284:	01590ab3          	add	s5,s2,s5
  sk += SEEDBYTES;

  for(i = 0; i < L; ++i)
    polyeta_pack(sk + i*POLYETA_PACKEDBYTES, &s1->vec[i]);
    1288:	00090593          	mv	a1,s2
    128c:	000a0513          	mv	a0,s4
  for(i = 0; i < L; ++i)
    1290:	40090913          	addi	s2,s2,1024
    polyeta_pack(sk + i*POLYETA_PACKEDBYTES, &s1->vec[i]);
    1294:	1c5010ef          	jal	ra,2c58 <pqcrystals_dilithium3_ref_polyeta_pack>
  for(i = 0; i < L; ++i)
    1298:	080a0a13          	addi	s4,s4,128
    129c:	ff2a96e3          	bne	s5,s2,1288 <pqcrystals_dilithium3_ref_pack_sk+0x160>
    12a0:	00002a37          	lui	s4,0x2
    12a4:	800a0a13          	addi	s4,s4,-2048 # 1800 <pqcrystals_dilithium3_ref_unpack_sig+0xdc>
    12a8:	2e040913          	addi	s2,s0,736
    12ac:	01448a33          	add	s4,s1,s4
  sk += L*POLYETA_PACKEDBYTES;

  for(i = 0; i < K; ++i)
    polyeta_pack(sk + i*POLYETA_PACKEDBYTES, &s2->vec[i]);
    12b0:	00048593          	mv	a1,s1
    12b4:	00090513          	mv	a0,s2
  for(i = 0; i < K; ++i)
    12b8:	40048493          	addi	s1,s1,1024
    polyeta_pack(sk + i*POLYETA_PACKEDBYTES, &s2->vec[i]);
    12bc:	19d010ef          	jal	ra,2c58 <pqcrystals_dilithium3_ref_polyeta_pack>
  for(i = 0; i < K; ++i)
    12c0:	08090913          	addi	s2,s2,128
    12c4:	fe9a16e3          	bne	s4,s1,12b0 <pqcrystals_dilithium3_ref_pack_sk+0x188>
    12c8:	000017b7          	lui	a5,0x1
    12cc:	fa078793          	addi	a5,a5,-96 # fa0 <pqcrystals_dilithium3_ref_pack_pk+0x18>
    12d0:	5e040493          	addi	s1,s0,1504
    12d4:	00f40433          	add	s0,s0,a5
  sk += K*POLYETA_PACKEDBYTES;

  for(i = 0; i < K; ++i)
    polyt0_pack(sk + i*POLYT0_PACKEDBYTES, &t0->vec[i]);
    12d8:	00098593          	mv	a1,s3
    12dc:	00048513          	mv	a0,s1
  for(i = 0; i < K; ++i)
    12e0:	1a048493          	addi	s1,s1,416
    polyt0_pack(sk + i*POLYT0_PACKEDBYTES, &t0->vec[i]);
    12e4:	2d5010ef          	jal	ra,2db8 <pqcrystals_dilithium3_ref_polyt0_pack>
  for(i = 0; i < K; ++i)
    12e8:	40098993          	addi	s3,s3,1024
    12ec:	fe8496e3          	bne	s1,s0,12d8 <pqcrystals_dilithium3_ref_pack_sk+0x1b0>
}
    12f0:	01c12083          	lw	ra,28(sp)
    12f4:	01812403          	lw	s0,24(sp)
    12f8:	01412483          	lw	s1,20(sp)
    12fc:	01012903          	lw	s2,16(sp)
    1300:	00c12983          	lw	s3,12(sp)
    1304:	00812a03          	lw	s4,8(sp)
    1308:	00412a83          	lw	s5,4(sp)
    130c:	02010113          	addi	sp,sp,32
    1310:	00008067          	ret
    1314:	00040793          	mv	a5,s0
    1318:	02088593          	addi	a1,a7,32 # ff0020 <_end_of_memory+0xfc0020>
    sk[i] = rho[i];
    131c:	0008c703          	lbu	a4,0(a7)
  for(i = 0; i < SEEDBYTES; ++i)
    1320:	00188893          	addi	a7,a7,1
    1324:	00178793          	addi	a5,a5,1
    sk[i] = rho[i];
    1328:	fee78fa3          	sb	a4,-1(a5)
  for(i = 0; i < SEEDBYTES; ++i)
    132c:	ff1598e3          	bne	a1,a7,131c <pqcrystals_dilithium3_ref_pack_sk+0x1f4>
    1330:	e89ff06f          	j	11b8 <pqcrystals_dilithium3_ref_pack_sk+0x90>
    1334:	02060693          	addi	a3,a2,32
    sk[i] = tr[i];
    1338:	00064703          	lbu	a4,0(a2)
  for(i = 0; i < SEEDBYTES; ++i)
    133c:	00160613          	addi	a2,a2,1
    1340:	00178793          	addi	a5,a5,1
    sk[i] = tr[i];
    1344:	fee78fa3          	sb	a4,-1(a5)
  for(i = 0; i < SEEDBYTES; ++i)
    1348:	fed618e3          	bne	a2,a3,1338 <pqcrystals_dilithium3_ref_pack_sk+0x210>
    134c:	f2dff06f          	j	1278 <pqcrystals_dilithium3_ref_pack_sk+0x150>
    1350:	02068593          	addi	a1,a3,32
    sk[i] = key[i];
    1354:	0006c703          	lbu	a4,0(a3)
  for(i = 0; i < SEEDBYTES; ++i)
    1358:	00168693          	addi	a3,a3,1
    135c:	00178793          	addi	a5,a5,1
    sk[i] = key[i];
    1360:	fee78fa3          	sb	a4,-1(a5)
  for(i = 0; i < SEEDBYTES; ++i)
    1364:	feb698e3          	bne	a3,a1,1354 <pqcrystals_dilithium3_ref_pack_sk+0x22c>
    1368:	eb1ff06f          	j	1218 <pqcrystals_dilithium3_ref_pack_sk+0xf0>

0000136c <pqcrystals_dilithium3_ref_unpack_sk>:
               uint8_t key[SEEDBYTES],
               polyveck *t0,
               polyvecl *s1,
               polyveck *s2,
               const uint8_t sk[CRYPTO_SECRETKEYBYTES])
{
    136c:	fe010113          	addi	sp,sp,-32
    1370:	00a86e33          	or	t3,a6,a0
    1374:	00812c23          	sw	s0,24(sp)
    1378:	00912a23          	sw	s1,20(sp)
    137c:	01212823          	sw	s2,16(sp)
    1380:	01412423          	sw	s4,8(sp)
    1384:	00112e23          	sw	ra,28(sp)
    1388:	01312623          	sw	s3,12(sp)
    138c:	01512223          	sw	s5,4(sp)
    1390:	003e7e13          	andi	t3,t3,3
    1394:	00050893          	mv	a7,a0
    1398:	00080413          	mv	s0,a6
    139c:	00058313          	mv	t1,a1
    13a0:	00068913          	mv	s2,a3
    13a4:	00070a13          	mv	s4,a4
    13a8:	00078493          	mv	s1,a5
    13ac:	1a0e1863          	bnez	t3,155c <pqcrystals_dilithium3_ref_unpack_sk+0x1f0>
    13b0:	00180793          	addi	a5,a6,1
    13b4:	40f507b3          	sub	a5,a0,a5
    13b8:	0037b793          	sltiu	a5,a5,3
    13bc:	1a079063          	bnez	a5,155c <pqcrystals_dilithium3_ref_unpack_sk+0x1f0>
  unsigned int i;

  for(i = 0; i < SEEDBYTES; ++i)
    rho[i] = sk[i];
    13c0:	00082783          	lw	a5,0(a6)
    13c4:	02080813          	addi	a6,a6,32
    13c8:	00f52023          	sw	a5,0(a0)
    13cc:	00442783          	lw	a5,4(s0)
    13d0:	00f52223          	sw	a5,4(a0)
    13d4:	00842783          	lw	a5,8(s0)
    13d8:	00f52423          	sw	a5,8(a0)
    13dc:	00c42783          	lw	a5,12(s0)
    13e0:	00f52623          	sw	a5,12(a0)
    13e4:	01042783          	lw	a5,16(s0)
    13e8:	00f52823          	sw	a5,16(a0)
    13ec:	01442783          	lw	a5,20(s0)
    13f0:	00f52a23          	sw	a5,20(a0)
    13f4:	01842783          	lw	a5,24(s0)
    13f8:	00f52c23          	sw	a5,24(a0)
    13fc:	01c42783          	lw	a5,28(s0)
    1400:	00f52e23          	sw	a5,28(a0)
  for(i = 0; i < SEEDBYTES; ++i)
    1404:	010667b3          	or	a5,a2,a6
    1408:	0037f793          	andi	a5,a5,3
    140c:	18079a63          	bnez	a5,15a0 <pqcrystals_dilithium3_ref_unpack_sk+0x234>
    1410:	02140793          	addi	a5,s0,33
    1414:	40f607b3          	sub	a5,a2,a5
    1418:	0037b793          	sltiu	a5,a5,3
    141c:	18079263          	bnez	a5,15a0 <pqcrystals_dilithium3_ref_unpack_sk+0x234>
  sk += SEEDBYTES;

  for(i = 0; i < SEEDBYTES; ++i)
    key[i] = sk[i];
    1420:	02042783          	lw	a5,32(s0)
    1424:	04040893          	addi	a7,s0,64
    1428:	00f62023          	sw	a5,0(a2)
    142c:	02442783          	lw	a5,36(s0)
    1430:	00f62223          	sw	a5,4(a2)
    1434:	02842783          	lw	a5,40(s0)
    1438:	00f62423          	sw	a5,8(a2)
    143c:	02c42783          	lw	a5,44(s0)
    1440:	00f62623          	sw	a5,12(a2)
    1444:	03042783          	lw	a5,48(s0)
    1448:	00f62823          	sw	a5,16(a2)
    144c:	03442783          	lw	a5,52(s0)
    1450:	00f62a23          	sw	a5,20(a2)
    1454:	03842783          	lw	a5,56(s0)
    1458:	00f62c23          	sw	a5,24(a2)
    145c:	03c42783          	lw	a5,60(s0)
    1460:	00f62e23          	sw	a5,28(a2)
  for(i = 0; i < SEEDBYTES; ++i)
    1464:	04140793          	addi	a5,s0,65
    1468:	40f307b3          	sub	a5,t1,a5
    146c:	0037b793          	sltiu	a5,a5,3
    1470:	10079663          	bnez	a5,157c <pqcrystals_dilithium3_ref_unpack_sk+0x210>
    1474:	011367b3          	or	a5,t1,a7
    1478:	0037f793          	andi	a5,a5,3
    147c:	10079063          	bnez	a5,157c <pqcrystals_dilithium3_ref_unpack_sk+0x210>
  sk += SEEDBYTES;

  for(i = 0; i < SEEDBYTES; ++i)
    tr[i] = sk[i];
    1480:	04042783          	lw	a5,64(s0)
    1484:	06040993          	addi	s3,s0,96
    1488:	00f32023          	sw	a5,0(t1)
    148c:	04442783          	lw	a5,68(s0)
    1490:	00f32223          	sw	a5,4(t1)
    1494:	04842783          	lw	a5,72(s0)
    1498:	00f32423          	sw	a5,8(t1)
    149c:	04c42783          	lw	a5,76(s0)
    14a0:	00f32623          	sw	a5,12(t1)
    14a4:	05042783          	lw	a5,80(s0)
    14a8:	00f32823          	sw	a5,16(t1)
    14ac:	05442783          	lw	a5,84(s0)
    14b0:	00f32a23          	sw	a5,20(t1)
    14b4:	05842783          	lw	a5,88(s0)
    14b8:	00f32c23          	sw	a5,24(t1)
    14bc:	05c42783          	lw	a5,92(s0)
    14c0:	00f32e23          	sw	a5,28(t1)
  for(i = 0; i < SEEDBYTES; ++i)
    14c4:	00001ab7          	lui	s5,0x1
    14c8:	400a8a93          	addi	s5,s5,1024 # 1400 <pqcrystals_dilithium3_ref_unpack_sk+0x94>
    14cc:	015a0ab3          	add	s5,s4,s5
  sk += SEEDBYTES;

  for(i=0; i < L; ++i)
    polyeta_unpack(&s1->vec[i], sk + i*POLYETA_PACKEDBYTES);
    14d0:	00098593          	mv	a1,s3
    14d4:	000a0513          	mv	a0,s4
  for(i=0; i < L; ++i)
    14d8:	400a0a13          	addi	s4,s4,1024
    polyeta_unpack(&s1->vec[i], sk + i*POLYETA_PACKEDBYTES);
    14dc:	7b4010ef          	jal	ra,2c90 <pqcrystals_dilithium3_ref_polyeta_unpack>
  for(i=0; i < L; ++i)
    14e0:	08098993          	addi	s3,s3,128
    14e4:	ff4a96e3          	bne	s5,s4,14d0 <pqcrystals_dilithium3_ref_unpack_sk+0x164>
    14e8:	00002a37          	lui	s4,0x2
    14ec:	800a0a13          	addi	s4,s4,-2048 # 1800 <pqcrystals_dilithium3_ref_unpack_sig+0xdc>
    14f0:	2e040993          	addi	s3,s0,736
    14f4:	01448a33          	add	s4,s1,s4
  sk += L*POLYETA_PACKEDBYTES;

  for(i=0; i < K; ++i)
    polyeta_unpack(&s2->vec[i], sk + i*POLYETA_PACKEDBYTES);
    14f8:	00098593          	mv	a1,s3
    14fc:	00048513          	mv	a0,s1
  for(i=0; i < K; ++i)
    1500:	40048493          	addi	s1,s1,1024
    polyeta_unpack(&s2->vec[i], sk + i*POLYETA_PACKEDBYTES);
    1504:	78c010ef          	jal	ra,2c90 <pqcrystals_dilithium3_ref_polyeta_unpack>
  for(i=0; i < K; ++i)
    1508:	08098993          	addi	s3,s3,128
    150c:	fe9a16e3          	bne	s4,s1,14f8 <pqcrystals_dilithium3_ref_unpack_sk+0x18c>
    1510:	000017b7          	lui	a5,0x1
    1514:	fa078793          	addi	a5,a5,-96 # fa0 <pqcrystals_dilithium3_ref_pack_pk+0x18>
    1518:	5e040493          	addi	s1,s0,1504
    151c:	00f40433          	add	s0,s0,a5
  sk += K*POLYETA_PACKEDBYTES;

  for(i=0; i < K; ++i)
    polyt0_unpack(&t0->vec[i], sk + i*POLYT0_PACKEDBYTES);
    1520:	00048593          	mv	a1,s1
    1524:	00090513          	mv	a0,s2
  for(i=0; i < K; ++i)
    1528:	1a048493          	addi	s1,s1,416
    polyt0_unpack(&t0->vec[i], sk + i*POLYT0_PACKEDBYTES);
    152c:	1d1010ef          	jal	ra,2efc <pqcrystals_dilithium3_ref_polyt0_unpack>
  for(i=0; i < K; ++i)
    1530:	40090913          	addi	s2,s2,1024
    1534:	fe8496e3          	bne	s1,s0,1520 <pqcrystals_dilithium3_ref_unpack_sk+0x1b4>
}
    1538:	01c12083          	lw	ra,28(sp)
    153c:	01812403          	lw	s0,24(sp)
    1540:	01412483          	lw	s1,20(sp)
    1544:	01012903          	lw	s2,16(sp)
    1548:	00c12983          	lw	s3,12(sp)
    154c:	00812a03          	lw	s4,8(sp)
    1550:	00412a83          	lw	s5,4(sp)
    1554:	02010113          	addi	sp,sp,32
    1558:	00008067          	ret
    155c:	00040793          	mv	a5,s0
    1560:	02040813          	addi	a6,s0,32
    rho[i] = sk[i];
    1564:	0007c703          	lbu	a4,0(a5)
  for(i = 0; i < SEEDBYTES; ++i)
    1568:	00178793          	addi	a5,a5,1
    156c:	00188893          	addi	a7,a7,1
    rho[i] = sk[i];
    1570:	fee88fa3          	sb	a4,-1(a7)
  for(i = 0; i < SEEDBYTES; ++i)
    1574:	fef818e3          	bne	a6,a5,1564 <pqcrystals_dilithium3_ref_unpack_sk+0x1f8>
    1578:	e8dff06f          	j	1404 <pqcrystals_dilithium3_ref_unpack_sk+0x98>
    157c:	00088613          	mv	a2,a7
    1580:	00030813          	mv	a6,t1
    1584:	06040993          	addi	s3,s0,96
    tr[i] = sk[i];
    1588:	00064783          	lbu	a5,0(a2)
  for(i = 0; i < SEEDBYTES; ++i)
    158c:	00160613          	addi	a2,a2,1
    1590:	00180813          	addi	a6,a6,1
    tr[i] = sk[i];
    1594:	fef80fa3          	sb	a5,-1(a6)
  for(i = 0; i < SEEDBYTES; ++i)
    1598:	ff3618e3          	bne	a2,s3,1588 <pqcrystals_dilithium3_ref_unpack_sk+0x21c>
    159c:	f29ff06f          	j	14c4 <pqcrystals_dilithium3_ref_unpack_sk+0x158>
    15a0:	04040893          	addi	a7,s0,64
    key[i] = sk[i];
    15a4:	00084783          	lbu	a5,0(a6)
  for(i = 0; i < SEEDBYTES; ++i)
    15a8:	00180813          	addi	a6,a6,1
    15ac:	00160613          	addi	a2,a2,1
    key[i] = sk[i];
    15b0:	fef60fa3          	sb	a5,-1(a2)
  for(i = 0; i < SEEDBYTES; ++i)
    15b4:	ff0898e3          	bne	a7,a6,15a4 <pqcrystals_dilithium3_ref_unpack_sk+0x238>
    15b8:	eadff06f          	j	1464 <pqcrystals_dilithium3_ref_unpack_sk+0xf8>

000015bc <pqcrystals_dilithium3_ref_pack_sig>:
**************************************************/
void pack_sig(uint8_t sig[CRYPTO_BYTES],
              const uint8_t c[SEEDBYTES],
              const polyvecl *z,
              const polyveck *h)
{
    15bc:	00158713          	addi	a4,a1,1
    15c0:	fe010113          	addi	sp,sp,-32
    15c4:	40e50733          	sub	a4,a0,a4
    15c8:	00812c23          	sw	s0,24(sp)
    15cc:	00912a23          	sw	s1,20(sp)
    15d0:	00112e23          	sw	ra,28(sp)
    15d4:	01212823          	sw	s2,16(sp)
    15d8:	01312623          	sw	s3,12(sp)
    15dc:	01412423          	sw	s4,8(sp)
    15e0:	00373713          	sltiu	a4,a4,3
    15e4:	00058793          	mv	a5,a1
    15e8:	00050413          	mv	s0,a0
    15ec:	00068493          	mv	s1,a3
    15f0:	10071a63          	bnez	a4,1704 <pqcrystals_dilithium3_ref_pack_sig+0x148>
    15f4:	00b56733          	or	a4,a0,a1
    15f8:	00377713          	andi	a4,a4,3
    15fc:	10071463          	bnez	a4,1704 <pqcrystals_dilithium3_ref_pack_sig+0x148>
  unsigned int i, j, k;

  for(i=0; i < SEEDBYTES; ++i)
    sig[i] = c[i];
    1600:	0005a703          	lw	a4,0(a1)
    1604:	00e52023          	sw	a4,0(a0)
    1608:	0045a703          	lw	a4,4(a1)
    160c:	00e52223          	sw	a4,4(a0)
    1610:	0085a703          	lw	a4,8(a1)
    1614:	00e52423          	sw	a4,8(a0)
    1618:	00c5a703          	lw	a4,12(a1)
    161c:	00e52623          	sw	a4,12(a0)
    1620:	0105a703          	lw	a4,16(a1)
    1624:	00e52823          	sw	a4,16(a0)
    1628:	0145a703          	lw	a4,20(a1)
    162c:	00e52a23          	sw	a4,20(a0)
    1630:	0185a703          	lw	a4,24(a1)
    1634:	00e52c23          	sw	a4,24(a0)
    1638:	01c5a783          	lw	a5,28(a1)
    163c:	00f52e23          	sw	a5,28(a0)
  for(i=0; i < SEEDBYTES; ++i)
    1640:	00001a37          	lui	s4,0x1
    1644:	ca0a0a13          	addi	s4,s4,-864 # ca0 <pqcrystals_dilithium3_ref_verify+0x170>
    1648:	02040913          	addi	s2,s0,32
    164c:	00060993          	mv	s3,a2
    1650:	01440a33          	add	s4,s0,s4
  sig += SEEDBYTES;

  for(i = 0; i < L; ++i)
    polyz_pack(sig + i*POLYZ_PACKEDBYTES, &z->vec[i]);
    1654:	00098593          	mv	a1,s3
    1658:	00090513          	mv	a0,s2
  for(i = 0; i < L; ++i)
    165c:	28090913          	addi	s2,s2,640
    polyz_pack(sig + i*POLYZ_PACKEDBYTES, &z->vec[i]);
    1660:	231010ef          	jal	ra,3090 <pqcrystals_dilithium3_ref_polyz_pack>
  for(i = 0; i < L; ++i)
    1664:	40098993          	addi	s3,s3,1024
    1668:	ff2a16e3          	bne	s4,s2,1654 <pqcrystals_dilithium3_ref_pack_sig+0x98>
  sig += L*POLYZ_PACKEDBYTES;
    166c:	00001937          	lui	s2,0x1
    1670:	ca090813          	addi	a6,s2,-864 # ca0 <pqcrystals_dilithium3_ref_verify+0x170>
    1674:	01040833          	add	a6,s0,a6

  /* Encode h */
  for(i = 0; i < OMEGA + K; ++i)
    sig[i] = 0;
    1678:	00080513          	mv	a0,a6
    167c:	03d00613          	li	a2,61
    1680:	00000593          	li	a1,0
    1684:	0d9060ef          	jal	ra,7f5c <memset>
    1688:	00002e37          	lui	t3,0x2
    168c:	cd790913          	addi	s2,s2,-809
    1690:	800e0e13          	addi	t3,t3,-2048 # 1800 <pqcrystals_dilithium3_ref_unpack_sig+0xdc>
    1694:	00050813          	mv	a6,a0
    1698:	00048313          	mv	t1,s1
    169c:	012408b3          	add	a7,s0,s2
    16a0:	01c48e33          	add	t3,s1,t3

  k = 0;
    16a4:	00000693          	li	a3,0
  for(i = 0; i < K; ++i) {
    for(j = 0; j < N; ++j)
    16a8:	10000513          	li	a0,256
{
    16ac:	00030713          	mv	a4,t1
    for(j = 0; j < N; ++j)
    16b0:	00000793          	li	a5,0
      if(h->vec[i].coeffs[j] != 0)
    16b4:	00072603          	lw	a2,0(a4)
        sig[k++] = j;
    16b8:	00d805b3          	add	a1,a6,a3
    for(j = 0; j < N; ++j)
    16bc:	00470713          	addi	a4,a4,4
      if(h->vec[i].coeffs[j] != 0)
    16c0:	00060663          	beqz	a2,16cc <pqcrystals_dilithium3_ref_pack_sig+0x110>
        sig[k++] = j;
    16c4:	00f58023          	sb	a5,0(a1)
    16c8:	00168693          	addi	a3,a3,1
    for(j = 0; j < N; ++j)
    16cc:	00178793          	addi	a5,a5,1
    16d0:	fea792e3          	bne	a5,a0,16b4 <pqcrystals_dilithium3_ref_pack_sig+0xf8>

    sig[OMEGA + i] = k;
    16d4:	00d88023          	sb	a3,0(a7)
  for(i = 0; i < K; ++i) {
    16d8:	40030313          	addi	t1,t1,1024
    16dc:	00188893          	addi	a7,a7,1
    16e0:	fc6e16e3          	bne	t3,t1,16ac <pqcrystals_dilithium3_ref_pack_sig+0xf0>
  }
}
    16e4:	01c12083          	lw	ra,28(sp)
    16e8:	01812403          	lw	s0,24(sp)
    16ec:	01412483          	lw	s1,20(sp)
    16f0:	01012903          	lw	s2,16(sp)
    16f4:	00c12983          	lw	s3,12(sp)
    16f8:	00812a03          	lw	s4,8(sp)
    16fc:	02010113          	addi	sp,sp,32
    1700:	00008067          	ret
    1704:	00040713          	mv	a4,s0
    1708:	02078593          	addi	a1,a5,32
    sig[i] = c[i];
    170c:	0007c683          	lbu	a3,0(a5)
  for(i=0; i < SEEDBYTES; ++i)
    1710:	00178793          	addi	a5,a5,1
    1714:	00170713          	addi	a4,a4,1
    sig[i] = c[i];
    1718:	fed70fa3          	sb	a3,-1(a4)
  for(i=0; i < SEEDBYTES; ++i)
    171c:	fef598e3          	bne	a1,a5,170c <pqcrystals_dilithium3_ref_pack_sig+0x150>
    1720:	f21ff06f          	j	1640 <pqcrystals_dilithium3_ref_pack_sig+0x84>

00001724 <pqcrystals_dilithium3_ref_unpack_sig>:
**************************************************/
int unpack_sig(uint8_t c[SEEDBYTES],
               polyvecl *z,
               polyveck *h,
               const uint8_t sig[CRYPTO_BYTES])
{
    1724:	00168713          	addi	a4,a3,1
    1728:	fd010113          	addi	sp,sp,-48
    172c:	40e50733          	sub	a4,a0,a4
    1730:	01512a23          	sw	s5,20(sp)
    1734:	01612823          	sw	s6,16(sp)
    1738:	02112623          	sw	ra,44(sp)
    173c:	02812423          	sw	s0,40(sp)
    1740:	02912223          	sw	s1,36(sp)
    1744:	03212023          	sw	s2,32(sp)
    1748:	01312e23          	sw	s3,28(sp)
    174c:	01412c23          	sw	s4,24(sp)
    1750:	01712623          	sw	s7,12(sp)
    1754:	01812423          	sw	s8,8(sp)
    1758:	00373713          	sltiu	a4,a4,3
    175c:	00068b13          	mv	s6,a3
    1760:	00050793          	mv	a5,a0
    1764:	00060a93          	mv	s5,a2
  unsigned int i, j, k;

  for(i = 0; i < SEEDBYTES; ++i)
    1768:	18071663          	bnez	a4,18f4 <pqcrystals_dilithium3_ref_unpack_sig+0x1d0>
    176c:	00a6e733          	or	a4,a3,a0
    1770:	00377713          	andi	a4,a4,3
    1774:	18071063          	bnez	a4,18f4 <pqcrystals_dilithium3_ref_unpack_sig+0x1d0>
    c[i] = sig[i];
    1778:	0006a703          	lw	a4,0(a3)
    177c:	02068413          	addi	s0,a3,32
    1780:	00e52023          	sw	a4,0(a0)
    1784:	0046a703          	lw	a4,4(a3)
    1788:	00e52223          	sw	a4,4(a0)
    178c:	0086a703          	lw	a4,8(a3)
    1790:	00e52423          	sw	a4,8(a0)
    1794:	00c6a703          	lw	a4,12(a3)
    1798:	00e52623          	sw	a4,12(a0)
    179c:	0106a703          	lw	a4,16(a3)
    17a0:	00e52823          	sw	a4,16(a0)
    17a4:	0146a703          	lw	a4,20(a3)
    17a8:	00e52a23          	sw	a4,20(a0)
    17ac:	0186a703          	lw	a4,24(a3)
    17b0:	00e52c23          	sw	a4,24(a0)
    17b4:	01c6a703          	lw	a4,28(a3)
    17b8:	00e52e23          	sw	a4,28(a0)
  for(i = 0; i < SEEDBYTES; ++i)
    17bc:	00001937          	lui	s2,0x1
    17c0:	ca090913          	addi	s2,s2,-864 # ca0 <pqcrystals_dilithium3_ref_verify+0x170>
    17c4:	00058493          	mv	s1,a1
    17c8:	012b0933          	add	s2,s6,s2
  sig += SEEDBYTES;

  for(i = 0; i < L; ++i)
    polyz_unpack(&z->vec[i], sig + i*POLYZ_PACKEDBYTES);
    17cc:	00040593          	mv	a1,s0
    17d0:	00048513          	mv	a0,s1
  for(i = 0; i < L; ++i)
    17d4:	28040413          	addi	s0,s0,640
    polyz_unpack(&z->vec[i], sig + i*POLYZ_PACKEDBYTES);
    17d8:	10d010ef          	jal	ra,30e4 <pqcrystals_dilithium3_ref_polyz_unpack>
  for(i = 0; i < L; ++i)
    17dc:	40048493          	addi	s1,s1,1024
    17e0:	fe8916e3          	bne	s2,s0,17cc <pqcrystals_dilithium3_ref_unpack_sig+0xa8>
  sig += L*POLYZ_PACKEDBYTES;

  /* Decode h */
  k = 0;
  for(i = 0; i < K; ++i) {
    17e4:	000014b7          	lui	s1,0x1
    17e8:	cd748a13          	addi	s4,s1,-809 # cd7 <pqcrystals_dilithium3_ref_verify+0x1a7>
    17ec:	000a8813          	mv	a6,s5
    17f0:	014b0a33          	add	s4,s6,s4
  k = 0;
    17f4:	00000413          	li	s0,0
  for(i = 0; i < K; ++i) {
    17f8:	00000c13          	li	s8,0
    for(j = 0; j < N; ++j)
      h->vec[i].coeffs[j] = 0;

    if(sig[OMEGA + i] < k || sig[OMEGA + i] > OMEGA)
    17fc:	03700913          	li	s2,55
    1800:	c9f48493          	addi	s1,s1,-865
      return 1;

    for(j = k; j < sig[OMEGA + i]; ++j) {
      /* Coefficients are ordered for strong unforgeability */
      if(j > k && sig[j] <= sig[j-1]) return 1;
      h->vec[i].coeffs[sig[j]] = 1;
    1804:	00100b93          	li	s7,1
  for(i = 0; i < K; ++i) {
    1808:	00600993          	li	s3,6
      h->vec[i].coeffs[j] = 0;
    180c:	00080513          	mv	a0,a6
    1810:	40000613          	li	a2,1024
    1814:	00000593          	li	a1,0
    1818:	744060ef          	jal	ra,7f5c <memset>
    if(sig[OMEGA + i] < k || sig[OMEGA + i] > OMEGA)
    181c:	000a4703          	lbu	a4,0(s4)
      h->vec[i].coeffs[j] = 0;
    1820:	00050813          	mv	a6,a0
    if(sig[OMEGA + i] < k || sig[OMEGA + i] > OMEGA)
    1824:	00070793          	mv	a5,a4
    1828:	08876c63          	bltu	a4,s0,18c0 <pqcrystals_dilithium3_ref_unpack_sig+0x19c>
    182c:	08e96a63          	bltu	s2,a4,18c0 <pqcrystals_dilithium3_ref_unpack_sig+0x19c>
    for(j = k; j < sig[OMEGA + i]; ++j) {
    1830:	04e47263          	bgeu	s0,a4,1874 <pqcrystals_dilithium3_ref_unpack_sig+0x150>
    1834:	009405b3          	add	a1,s0,s1
    1838:	00bb05b3          	add	a1,s6,a1
    183c:	00040713          	mv	a4,s0
      h->vec[i].coeffs[sig[j]] = 1;
    1840:	008c1693          	slli	a3,s8,0x8
      if(j > k && sig[j] <= sig[j-1]) return 1;
    1844:	0015c783          	lbu	a5,1(a1)
    1848:	00e47663          	bgeu	s0,a4,1854 <pqcrystals_dilithium3_ref_unpack_sig+0x130>
    184c:	0005c603          	lbu	a2,0(a1)
    1850:	06f67863          	bgeu	a2,a5,18c0 <pqcrystals_dilithium3_ref_unpack_sig+0x19c>
      h->vec[i].coeffs[sig[j]] = 1;
    1854:	00f687b3          	add	a5,a3,a5
    1858:	00279793          	slli	a5,a5,0x2
    185c:	00fa87b3          	add	a5,s5,a5
    1860:	0177a023          	sw	s7,0(a5)
    for(j = k; j < sig[OMEGA + i]; ++j) {
    1864:	000a4783          	lbu	a5,0(s4)
    1868:	00170713          	addi	a4,a4,1
    186c:	00158593          	addi	a1,a1,1
    1870:	fcf76ae3          	bltu	a4,a5,1844 <pqcrystals_dilithium3_ref_unpack_sig+0x120>
  for(i = 0; i < K; ++i) {
    1874:	001c0c13          	addi	s8,s8,1
    1878:	40080813          	addi	a6,a6,1024
    187c:	001a0a13          	addi	s4,s4,1
    1880:	013c0663          	beq	s8,s3,188c <pqcrystals_dilithium3_ref_unpack_sig+0x168>
    1884:	00078413          	mv	s0,a5
    1888:	f85ff06f          	j	180c <pqcrystals_dilithium3_ref_unpack_sig+0xe8>

    k = sig[OMEGA + i];
  }

  /* Extra indices are zero for strong unforgeability */
  for(j = k; j < OMEGA; ++j)
    188c:	03600713          	li	a4,54
    1890:	08f76263          	bltu	a4,a5,1914 <pqcrystals_dilithium3_ref_unpack_sig+0x1f0>
    1894:	00001737          	lui	a4,0x1
    1898:	ca070693          	addi	a3,a4,-864 # ca0 <pqcrystals_dilithium3_ref_verify+0x170>
    189c:	00d787b3          	add	a5,a5,a3
    18a0:	cd770713          	addi	a4,a4,-809
    18a4:	00fb07b3          	add	a5,s6,a5
    18a8:	00eb0b33          	add	s6,s6,a4
    18ac:	0080006f          	j	18b4 <pqcrystals_dilithium3_ref_unpack_sig+0x190>
    18b0:	07678263          	beq	a5,s6,1914 <pqcrystals_dilithium3_ref_unpack_sig+0x1f0>
    if(sig[j])
    18b4:	0007c703          	lbu	a4,0(a5)
  for(j = k; j < OMEGA; ++j)
    18b8:	00178793          	addi	a5,a5,1
    if(sig[j])
    18bc:	fe070ae3          	beqz	a4,18b0 <pqcrystals_dilithium3_ref_unpack_sig+0x18c>
      return 1;
    18c0:	00100513          	li	a0,1
      return 1;

  return 0;
}
    18c4:	02c12083          	lw	ra,44(sp)
    18c8:	02812403          	lw	s0,40(sp)
    18cc:	02412483          	lw	s1,36(sp)
    18d0:	02012903          	lw	s2,32(sp)
    18d4:	01c12983          	lw	s3,28(sp)
    18d8:	01812a03          	lw	s4,24(sp)
    18dc:	01412a83          	lw	s5,20(sp)
    18e0:	01012b03          	lw	s6,16(sp)
    18e4:	00c12b83          	lw	s7,12(sp)
    18e8:	00812c03          	lw	s8,8(sp)
    18ec:	03010113          	addi	sp,sp,48
    18f0:	00008067          	ret
    18f4:	000b0713          	mv	a4,s6
    18f8:	020b0413          	addi	s0,s6,32
    c[i] = sig[i];
    18fc:	00074683          	lbu	a3,0(a4)
  for(i = 0; i < SEEDBYTES; ++i)
    1900:	00170713          	addi	a4,a4,1
    1904:	00178793          	addi	a5,a5,1
    c[i] = sig[i];
    1908:	fed78fa3          	sb	a3,-1(a5)
  for(i = 0; i < SEEDBYTES; ++i)
    190c:	fe8718e3          	bne	a4,s0,18fc <pqcrystals_dilithium3_ref_unpack_sig+0x1d8>
    1910:	eadff06f          	j	17bc <pqcrystals_dilithium3_ref_unpack_sig+0x98>
  return 0;
    1914:	00000513          	li	a0,0
    1918:	fadff06f          	j	18c4 <pqcrystals_dilithium3_ref_unpack_sig+0x1a0>

0000191c <pqcrystals_dilithium3_ref_polyvec_matrix_expand>:
*              or AES256CTR(rho,j|i).
*
* Arguments:   - polyvecl mat[K]: output matrix
*              - const uint8_t rho[]: byte array containing seed rho
**************************************************/
void polyvec_matrix_expand(polyvecl mat[K], const uint8_t rho[SEEDBYTES]) {
    191c:	fd010113          	addi	sp,sp,-48
    1920:	01512a23          	sw	s5,20(sp)
    1924:	00001ab7          	lui	s5,0x1
    1928:	01612823          	sw	s6,16(sp)
    192c:	400a8a93          	addi	s5,s5,1024 # 1400 <pqcrystals_dilithium3_ref_unpack_sk+0x94>
    1930:	fffffb37          	lui	s6,0xfffff
    1934:	03212023          	sw	s2,32(sp)
    1938:	01312e23          	sw	s3,28(sp)
    193c:	01412c23          	sw	s4,24(sp)
    1940:	01712623          	sw	s7,12(sp)
    1944:	02112623          	sw	ra,44(sp)
    1948:	02812423          	sw	s0,40(sp)
    194c:	02912223          	sw	s1,36(sp)
    1950:	00058a13          	mv	s4,a1
    1954:	01550933          	add	s2,a0,s5
    1958:	00000993          	li	s3,0
    195c:	c00b0b13          	addi	s6,s6,-1024 # ffffec00 <_end_of_memory+0xfffcec00>
  unsigned int i, j;

  for(i = 0; i < K; ++i)
    1960:	60000b93          	li	s7,1536
    for(j = 0; j < L; ++j)
    1964:	016904b3          	add	s1,s2,s6
void polyvec_matrix_expand(polyvecl mat[K], const uint8_t rho[SEEDBYTES]) {
    1968:	00098413          	mv	s0,s3
      poly_uniform(&mat[i].vec[j], rho, (i << 8) + j);
    196c:	00040613          	mv	a2,s0
    for(j = 0; j < L; ++j)
    1970:	00140413          	addi	s0,s0,1
      poly_uniform(&mat[i].vec[j], rho, (i << 8) + j);
    1974:	00048513          	mv	a0,s1
    1978:	000a0593          	mv	a1,s4
    for(j = 0; j < L; ++j)
    197c:	01041413          	slli	s0,s0,0x10
    1980:	40048493          	addi	s1,s1,1024
      poly_uniform(&mat[i].vec[j], rho, (i << 8) + j);
    1984:	649000ef          	jal	ra,27cc <pqcrystals_dilithium3_ref_poly_uniform>
    for(j = 0; j < L; ++j)
    1988:	01045413          	srli	s0,s0,0x10
    198c:	ff2490e3          	bne	s1,s2,196c <pqcrystals_dilithium3_ref_polyvec_matrix_expand+0x50>
  for(i = 0; i < K; ++i)
    1990:	10098993          	addi	s3,s3,256
    1994:	01099993          	slli	s3,s3,0x10
    1998:	0109d993          	srli	s3,s3,0x10
    199c:	01548933          	add	s2,s1,s5
    19a0:	fd7992e3          	bne	s3,s7,1964 <pqcrystals_dilithium3_ref_polyvec_matrix_expand+0x48>
}
    19a4:	02c12083          	lw	ra,44(sp)
    19a8:	02812403          	lw	s0,40(sp)
    19ac:	02412483          	lw	s1,36(sp)
    19b0:	02012903          	lw	s2,32(sp)
    19b4:	01c12983          	lw	s3,28(sp)
    19b8:	01812a03          	lw	s4,24(sp)
    19bc:	01412a83          	lw	s5,20(sp)
    19c0:	01012b03          	lw	s6,16(sp)
    19c4:	00c12b83          	lw	s7,12(sp)
    19c8:	03010113          	addi	sp,sp,48
    19cc:	00008067          	ret

000019d0 <pqcrystals_dilithium3_ref_polyvec_matrix_pointwise_montgomery>:

void polyvec_matrix_pointwise_montgomery(polyveck *t, const polyvecl mat[K], const polyvecl *v) {
    19d0:	fe010113          	addi	sp,sp,-32
    19d4:	00912a23          	sw	s1,20(sp)
    19d8:	01512223          	sw	s5,4(sp)
    19dc:	000024b7          	lui	s1,0x2
    19e0:	00001ab7          	lui	s5,0x1
    19e4:	400a8a93          	addi	s5,s5,1024 # 1400 <pqcrystals_dilithium3_ref_unpack_sk+0x94>
    19e8:	c0048493          	addi	s1,s1,-1024 # 1c00 <pqcrystals_dilithium3_ref_polyvecl_add+0x1c>
    19ec:	00812c23          	sw	s0,24(sp)
    19f0:	01212823          	sw	s2,16(sp)
    19f4:	01312623          	sw	s3,12(sp)
    19f8:	01412423          	sw	s4,8(sp)
    19fc:	00112e23          	sw	ra,28(sp)
    1a00:	00050313          	mv	t1,a0
    1a04:	00058a13          	mv	s4,a1
    1a08:	00060913          	mv	s2,a2
    1a0c:	015589b3          	add	s3,a1,s5
    1a10:	40050413          	addi	s0,a0,1024
    1a14:	009504b3          	add	s1,a0,s1
#ifdef FPAU
  unsigned int i, j;
  int32_t d, u_coeff, v_coeff;

  for(i = 0; i < N; i++){
    w->coeffs[i] = 0;
    1a18:	00030513          	mv	a0,t1
    1a1c:	40000613          	li	a2,1024
    1a20:	00000593          	li	a1,0
    1a24:	538060ef          	jal	ra,7f5c <memset>
    1a28:	00050313          	mv	t1,a0
    1a2c:	00090893          	mv	a7,s2
    1a30:	000a0813          	mv	a6,s4
void polyvec_matrix_pointwise_montgomery(polyveck *t, const polyvecl mat[K], const polyvecl *v) {
    1a34:	00088693          	mv	a3,a7
    1a38:	00080713          	mv	a4,a6
    1a3c:	00030793          	mv	a5,t1
  }

  for(i = 0; i < L; ++i) {
    for(j = 0; j < N; j++){
      d = w->coeffs[j];
    1a40:	0007a503          	lw	a0,0(a5)
      u_coeff = u->vec[i].coeffs[j];
    1a44:	00072603          	lw	a2,0(a4)
      v_coeff = v->vec[i].coeffs[j];
    1a48:	0006a583          	lw	a1,0(a3)

      // Compute MAC operation
#ifndef STEEL
      asm volatile("nop"); //ORCA
    1a4c:	00000013          	nop
      asm volatile("nop"); //ORCA
    1a50:	00000013          	nop
      asm volatile("nop"); //ORCA
    1a54:	00000013          	nop
#endif
      asm volatile("fpau.dil.mac %0, %1, %2\n": : "r"(u_coeff), "r"(v_coeff),"r"(d): );
    1a58:	50a5a633          	fpau.dil.mac	a2,a1,a0

      // Store the result
      w->coeffs[j] = u_coeff;
    1a5c:	00c7a023          	sw	a2,0(a5)
    for(j = 0; j < N; j++){
    1a60:	00478793          	addi	a5,a5,4
    1a64:	00470713          	addi	a4,a4,4
    1a68:	00468693          	addi	a3,a3,4
    1a6c:	fc879ae3          	bne	a5,s0,1a40 <pqcrystals_dilithium3_ref_polyvec_matrix_pointwise_montgomery+0x70>
  for(i = 0; i < L; ++i) {
    1a70:	40080813          	addi	a6,a6,1024
    1a74:	40088893          	addi	a7,a7,1024
    1a78:	fb381ee3          	bne	a6,s3,1a34 <pqcrystals_dilithium3_ref_polyvec_matrix_pointwise_montgomery+0x64>
  for(i = 0; i < K; ++i){
    1a7c:	40078413          	addi	s0,a5,1024
    1a80:	40030313          	addi	t1,t1,1024
    1a84:	015809b3          	add	s3,a6,s5
    1a88:	015a0a33          	add	s4,s4,s5
    1a8c:	f89416e3          	bne	s0,s1,1a18 <pqcrystals_dilithium3_ref_polyvec_matrix_pointwise_montgomery+0x48>
}
    1a90:	01c12083          	lw	ra,28(sp)
    1a94:	01812403          	lw	s0,24(sp)
    1a98:	01412483          	lw	s1,20(sp)
    1a9c:	01012903          	lw	s2,16(sp)
    1aa0:	00c12983          	lw	s3,12(sp)
    1aa4:	00812a03          	lw	s4,8(sp)
    1aa8:	00412a83          	lw	s5,4(sp)
    1aac:	02010113          	addi	sp,sp,32
    1ab0:	00008067          	ret

00001ab4 <pqcrystals_dilithium3_ref_polyvecl_uniform_eta>:
void polyvecl_uniform_eta(polyvecl *v, const uint8_t seed[CRHBYTES], uint16_t nonce) {
    1ab4:	fe010113          	addi	sp,sp,-32
    1ab8:	01212823          	sw	s2,16(sp)
    1abc:	00001937          	lui	s2,0x1
    1ac0:	40090913          	addi	s2,s2,1024 # 1400 <pqcrystals_dilithium3_ref_unpack_sk+0x94>
    1ac4:	00812c23          	sw	s0,24(sp)
    1ac8:	00912a23          	sw	s1,20(sp)
    1acc:	01312623          	sw	s3,12(sp)
    1ad0:	00112e23          	sw	ra,28(sp)
    1ad4:	00050493          	mv	s1,a0
    1ad8:	00058993          	mv	s3,a1
    1adc:	00060413          	mv	s0,a2
  for(i = 0; i < L; ++i)
    1ae0:	01250933          	add	s2,a0,s2
    poly_uniform_eta(&v->vec[i], seed, nonce++);
    1ae4:	00140793          	addi	a5,s0,1
    1ae8:	00040613          	mv	a2,s0
    1aec:	00048513          	mv	a0,s1
    1af0:	01079413          	slli	s0,a5,0x10
  for(i = 0; i < L; ++i)
    1af4:	40048493          	addi	s1,s1,1024
    poly_uniform_eta(&v->vec[i], seed, nonce++);
    1af8:	00098593          	mv	a1,s3
    1afc:	01045413          	srli	s0,s0,0x10
    1b00:	685000ef          	jal	ra,2984 <pqcrystals_dilithium3_ref_poly_uniform_eta>
  for(i = 0; i < L; ++i)
    1b04:	ff2490e3          	bne	s1,s2,1ae4 <pqcrystals_dilithium3_ref_polyvecl_uniform_eta+0x30>
}
    1b08:	01c12083          	lw	ra,28(sp)
    1b0c:	01812403          	lw	s0,24(sp)
    1b10:	01412483          	lw	s1,20(sp)
    1b14:	01012903          	lw	s2,16(sp)
    1b18:	00c12983          	lw	s3,12(sp)
    1b1c:	02010113          	addi	sp,sp,32
    1b20:	00008067          	ret

00001b24 <pqcrystals_dilithium3_ref_polyvecl_uniform_gamma1>:
void polyvecl_uniform_gamma1(polyvecl *v, const uint8_t seed[CRHBYTES], uint16_t nonce) {
    1b24:	fe010113          	addi	sp,sp,-32
    1b28:	00812c23          	sw	s0,24(sp)
    poly_uniform_gamma1(&v->vec[i], seed, L*nonce + i);
    1b2c:	00261413          	slli	s0,a2,0x2
void polyvecl_uniform_gamma1(polyvecl *v, const uint8_t seed[CRHBYTES], uint16_t nonce) {
    1b30:	01212823          	sw	s2,16(sp)
    poly_uniform_gamma1(&v->vec[i], seed, L*nonce + i);
    1b34:	00c40433          	add	s0,s0,a2
    1b38:	00001937          	lui	s2,0x1
    1b3c:	01041413          	slli	s0,s0,0x10
    1b40:	40090913          	addi	s2,s2,1024 # 1400 <pqcrystals_dilithium3_ref_unpack_sk+0x94>
void polyvecl_uniform_gamma1(polyvecl *v, const uint8_t seed[CRHBYTES], uint16_t nonce) {
    1b44:	00912a23          	sw	s1,20(sp)
    1b48:	01312623          	sw	s3,12(sp)
    1b4c:	00112e23          	sw	ra,28(sp)
    1b50:	00050493          	mv	s1,a0
    1b54:	00058993          	mv	s3,a1
    poly_uniform_gamma1(&v->vec[i], seed, L*nonce + i);
    1b58:	01045413          	srli	s0,s0,0x10
    1b5c:	01250933          	add	s2,a0,s2
    1b60:	00040613          	mv	a2,s0
  for(i = 0; i < L; ++i)
    1b64:	00140413          	addi	s0,s0,1
    poly_uniform_gamma1(&v->vec[i], seed, L*nonce + i);
    1b68:	00048513          	mv	a0,s1
    1b6c:	00098593          	mv	a1,s3
  for(i = 0; i < L; ++i)
    1b70:	01041413          	slli	s0,s0,0x10
    1b74:	40048493          	addi	s1,s1,1024
    poly_uniform_gamma1(&v->vec[i], seed, L*nonce + i);
    1b78:	5f0010ef          	jal	ra,3168 <pqcrystals_dilithium3_ref_poly_uniform_gamma1>
  for(i = 0; i < L; ++i)
    1b7c:	01045413          	srli	s0,s0,0x10
    1b80:	ff2490e3          	bne	s1,s2,1b60 <pqcrystals_dilithium3_ref_polyvecl_uniform_gamma1+0x3c>
}
    1b84:	01c12083          	lw	ra,28(sp)
    1b88:	01812403          	lw	s0,24(sp)
    1b8c:	01412483          	lw	s1,20(sp)
    1b90:	01012903          	lw	s2,16(sp)
    1b94:	00c12983          	lw	s3,12(sp)
    1b98:	02010113          	addi	sp,sp,32
    1b9c:	00008067          	ret

00001ba0 <pqcrystals_dilithium3_ref_polyvecl_reduce>:
void polyvecl_reduce(polyvecl *v) {
    1ba0:	ff010113          	addi	sp,sp,-16
    1ba4:	00912223          	sw	s1,4(sp)
    1ba8:	000014b7          	lui	s1,0x1
    1bac:	40048493          	addi	s1,s1,1024 # 1400 <pqcrystals_dilithium3_ref_unpack_sk+0x94>
    1bb0:	00812423          	sw	s0,8(sp)
    1bb4:	00112623          	sw	ra,12(sp)
    1bb8:	00050413          	mv	s0,a0
    1bbc:	009504b3          	add	s1,a0,s1
    poly_reduce(&v->vec[i]);
    1bc0:	00040513          	mv	a0,s0
  for(i = 0; i < L; ++i)
    1bc4:	40040413          	addi	s0,s0,1024
    poly_reduce(&v->vec[i]);
    1bc8:	011000ef          	jal	ra,23d8 <pqcrystals_dilithium3_ref_poly_reduce>
  for(i = 0; i < L; ++i)
    1bcc:	fe941ae3          	bne	s0,s1,1bc0 <pqcrystals_dilithium3_ref_polyvecl_reduce+0x20>
}
    1bd0:	00c12083          	lw	ra,12(sp)
    1bd4:	00812403          	lw	s0,8(sp)
    1bd8:	00412483          	lw	s1,4(sp)
    1bdc:	01010113          	addi	sp,sp,16
    1be0:	00008067          	ret

00001be4 <pqcrystals_dilithium3_ref_polyvecl_add>:
void polyvecl_add(polyvecl *w, const polyvecl *u, const polyvecl *v) {
    1be4:	fe010113          	addi	sp,sp,-32
    1be8:	00912a23          	sw	s1,20(sp)
  for(i = 0; i < L; ++i)
    1bec:	000014b7          	lui	s1,0x1
void polyvecl_add(polyvecl *w, const polyvecl *u, const polyvecl *v) {
    1bf0:	00812c23          	sw	s0,24(sp)
    1bf4:	01212823          	sw	s2,16(sp)
    1bf8:	01312623          	sw	s3,12(sp)
    1bfc:	01412423          	sw	s4,8(sp)
    1c00:	00112e23          	sw	ra,28(sp)
    1c04:	00050a13          	mv	s4,a0
    1c08:	00058993          	mv	s3,a1
    1c0c:	00060913          	mv	s2,a2
    1c10:	00000413          	li	s0,0
  for(i = 0; i < L; ++i)
    1c14:	40048493          	addi	s1,s1,1024 # 1400 <pqcrystals_dilithium3_ref_unpack_sk+0x94>
    poly_add(&w->vec[i], &u->vec[i], &v->vec[i]);
    1c18:	00890633          	add	a2,s2,s0
    1c1c:	008985b3          	add	a1,s3,s0
    1c20:	008a0533          	add	a0,s4,s0
  for(i = 0; i < L; ++i)
    1c24:	40040413          	addi	s0,s0,1024
    poly_add(&w->vec[i], &u->vec[i], &v->vec[i]);
    1c28:	031000ef          	jal	ra,2458 <pqcrystals_dilithium3_ref_poly_add>
  for(i = 0; i < L; ++i)
    1c2c:	fe9416e3          	bne	s0,s1,1c18 <pqcrystals_dilithium3_ref_polyvecl_add+0x34>
}
    1c30:	01c12083          	lw	ra,28(sp)
    1c34:	01812403          	lw	s0,24(sp)
    1c38:	01412483          	lw	s1,20(sp)
    1c3c:	01012903          	lw	s2,16(sp)
    1c40:	00c12983          	lw	s3,12(sp)
    1c44:	00812a03          	lw	s4,8(sp)
    1c48:	02010113          	addi	sp,sp,32
    1c4c:	00008067          	ret

00001c50 <pqcrystals_dilithium3_ref_polyvecl_ntt>:
void polyvecl_ntt(polyvecl *v) {
    1c50:	ff010113          	addi	sp,sp,-16
    1c54:	00912223          	sw	s1,4(sp)
    1c58:	000014b7          	lui	s1,0x1
    1c5c:	40048493          	addi	s1,s1,1024 # 1400 <pqcrystals_dilithium3_ref_unpack_sk+0x94>
    1c60:	00812423          	sw	s0,8(sp)
    1c64:	00112623          	sw	ra,12(sp)
    1c68:	00050413          	mv	s0,a0
    1c6c:	009504b3          	add	s1,a0,s1
    poly_ntt(&v->vec[i]);
    1c70:	00040513          	mv	a0,s0
  for(i = 0; i < L; ++i)
    1c74:	40040413          	addi	s0,s0,1024
    poly_ntt(&v->vec[i]);
    1c78:	0b1000ef          	jal	ra,2528 <pqcrystals_dilithium3_ref_poly_ntt>
  for(i = 0; i < L; ++i)
    1c7c:	fe941ae3          	bne	s0,s1,1c70 <pqcrystals_dilithium3_ref_polyvecl_ntt+0x20>
}
    1c80:	00c12083          	lw	ra,12(sp)
    1c84:	00812403          	lw	s0,8(sp)
    1c88:	00412483          	lw	s1,4(sp)
    1c8c:	01010113          	addi	sp,sp,16
    1c90:	00008067          	ret

00001c94 <pqcrystals_dilithium3_ref_polyvecl_invntt_tomont>:
void polyvecl_invntt_tomont(polyvecl *v) {
    1c94:	ff010113          	addi	sp,sp,-16
    1c98:	00912223          	sw	s1,4(sp)
    1c9c:	000014b7          	lui	s1,0x1
    1ca0:	40048493          	addi	s1,s1,1024 # 1400 <pqcrystals_dilithium3_ref_unpack_sk+0x94>
    1ca4:	00812423          	sw	s0,8(sp)
    1ca8:	00112623          	sw	ra,12(sp)
    1cac:	00050413          	mv	s0,a0
    1cb0:	009504b3          	add	s1,a0,s1
    poly_invntt_tomont(&v->vec[i]);
    1cb4:	00040513          	mv	a0,s0
  for(i = 0; i < L; ++i)
    1cb8:	40040413          	addi	s0,s0,1024
    poly_invntt_tomont(&v->vec[i]);
    1cbc:	071000ef          	jal	ra,252c <pqcrystals_dilithium3_ref_poly_invntt_tomont>
  for(i = 0; i < L; ++i)
    1cc0:	fe941ae3          	bne	s0,s1,1cb4 <pqcrystals_dilithium3_ref_polyvecl_invntt_tomont+0x20>
}
    1cc4:	00c12083          	lw	ra,12(sp)
    1cc8:	00812403          	lw	s0,8(sp)
    1ccc:	00412483          	lw	s1,4(sp)
    1cd0:	01010113          	addi	sp,sp,16
    1cd4:	00008067          	ret

00001cd8 <pqcrystals_dilithium3_ref_polyvecl_pointwise_poly_montgomery>:
  for(i = 0; i < L; ++i)
    1cd8:	00001eb7          	lui	t4,0x1
    1cdc:	400e8e93          	addi	t4,t4,1024 # 1400 <pqcrystals_dilithium3_ref_unpack_sk+0x94>
    1ce0:	01d60eb3          	add	t4,a2,t4
    1ce4:	40058e13          	addi	t3,a1,1024
      asm volatile("fpau.dil.mac %0, %1, %2\n": : "r"(u_coeff), "r"(v_coeff),"r"(0): );
    1ce8:	00000313          	li	t1,0
    for( unsigned int j = 0; j < N; ++j)
    1cec:	00058793          	mv	a5,a1
void polyvecl_pointwise_poly_montgomery(polyvecl *r, const poly *a, const polyvecl *v) {
    1cf0:	00050693          	mv	a3,a0
    1cf4:	00060713          	mv	a4,a2
      u_coeff = a->coeffs[j];
    1cf8:	0007a803          	lw	a6,0(a5)
      v_coeff = v->vec[i].coeffs[j];
    1cfc:	00072883          	lw	a7,0(a4)
      asm volatile ("nop"); //ORCA
    1d00:	00000013          	nop
      asm volatile ("nop"); //ORCA
    1d04:	00000013          	nop
      asm volatile ("nop"); //ORCA
    1d08:	00000013          	nop
      asm volatile("fpau.dil.mac %0, %1, %2\n": : "r"(u_coeff), "r"(v_coeff),"r"(0): );
    1d0c:	5068a833          	fpau.dil.mac	a6,a7,t1
      r->vec[i].coeffs[j] = u_coeff;
    1d10:	0106a023          	sw	a6,0(a3)
    for( unsigned int j = 0; j < N; ++j)
    1d14:	00478793          	addi	a5,a5,4
    1d18:	00470713          	addi	a4,a4,4
    1d1c:	00468693          	addi	a3,a3,4
    1d20:	fdc79ce3          	bne	a5,t3,1cf8 <pqcrystals_dilithium3_ref_polyvecl_pointwise_poly_montgomery+0x20>
  for(i = 0; i < L; ++i)
    1d24:	40060613          	addi	a2,a2,1024
    1d28:	40050513          	addi	a0,a0,1024
    1d2c:	fdd610e3          	bne	a2,t4,1cec <pqcrystals_dilithium3_ref_polyvecl_pointwise_poly_montgomery+0x14>
}
    1d30:	00008067          	ret

00001d34 <pqcrystals_dilithium3_ref_polyvecl_pointwise_acc_montgomery>:
{
    1d34:	ff010113          	addi	sp,sp,-16
    1d38:	00812423          	sw	s0,8(sp)
    1d3c:	00912223          	sw	s1,4(sp)
    1d40:	00058413          	mv	s0,a1
    1d44:	00060493          	mv	s1,a2
    w->coeffs[i] = 0;
    1d48:	00000593          	li	a1,0
    1d4c:	40000613          	li	a2,1024
{
    1d50:	01212023          	sw	s2,0(sp)
    1d54:	00112623          	sw	ra,12(sp)
    1d58:	00050913          	mv	s2,a0
    w->coeffs[i] = 0;
    1d5c:	200060ef          	jal	ra,7f5c <memset>
    1d60:	00001e37          	lui	t3,0x1
    1d64:	400e0e13          	addi	t3,t3,1024 # 1400 <pqcrystals_dilithium3_ref_unpack_sk+0x94>
    1d68:	00040893          	mv	a7,s0
    1d6c:	00048313          	mv	t1,s1
    1d70:	01c40e33          	add	t3,s0,t3
    1d74:	40090813          	addi	a6,s2,1024
    for(j = 0; j < N; j++){
    1d78:	00090793          	mv	a5,s2
{
    1d7c:	00030693          	mv	a3,t1
    1d80:	00088713          	mv	a4,a7
      d = w->coeffs[j];
    1d84:	0007a503          	lw	a0,0(a5)
      u_coeff = u->vec[i].coeffs[j];
    1d88:	00072603          	lw	a2,0(a4)
      v_coeff = v->vec[i].coeffs[j];
    1d8c:	0006a583          	lw	a1,0(a3)
      asm volatile("nop"); //ORCA
    1d90:	00000013          	nop
      asm volatile("nop"); //ORCA
    1d94:	00000013          	nop
      asm volatile("nop"); //ORCA
    1d98:	00000013          	nop
      asm volatile("fpau.dil.mac %0, %1, %2\n": : "r"(u_coeff), "r"(v_coeff),"r"(d): );
    1d9c:	50a5a633          	fpau.dil.mac	a2,a1,a0
      w->coeffs[j] = u_coeff;
    1da0:	00c7a023          	sw	a2,0(a5)
    for(j = 0; j < N; j++){
    1da4:	00478793          	addi	a5,a5,4
    1da8:	00470713          	addi	a4,a4,4
    1dac:	00468693          	addi	a3,a3,4
    1db0:	fd079ae3          	bne	a5,a6,1d84 <pqcrystals_dilithium3_ref_polyvecl_pointwise_acc_montgomery+0x50>
  for(i = 0; i < L; ++i) {
    1db4:	40088893          	addi	a7,a7,1024
    1db8:	40030313          	addi	t1,t1,1024
    1dbc:	fbc89ee3          	bne	a7,t3,1d78 <pqcrystals_dilithium3_ref_polyvecl_pointwise_acc_montgomery+0x44>
  for(i = 1; i < L; ++i) {
    poly_pointwise_montgomery(&t, &u->vec[i], &v->vec[i]);
    poly_add(w, w, &t);
  }
#endif
}
    1dc0:	00c12083          	lw	ra,12(sp)
    1dc4:	00812403          	lw	s0,8(sp)
    1dc8:	00412483          	lw	s1,4(sp)
    1dcc:	00012903          	lw	s2,0(sp)
    1dd0:	01010113          	addi	sp,sp,16
    1dd4:	00008067          	ret

00001dd8 <pqcrystals_dilithium3_ref_polyvecl_chknorm>:
*              - int32_t B: norm bound
*
* Returns 0 if norm of all polynomials is strictly smaller than B <= (Q-1)/8
* and 1 otherwise.
**************************************************/
int polyvecl_chknorm(const polyvecl *v, int32_t bound)  {
    1dd8:	ff010113          	addi	sp,sp,-16
    1ddc:	00912223          	sw	s1,4(sp)
    1de0:	000014b7          	lui	s1,0x1
    1de4:	40048493          	addi	s1,s1,1024 # 1400 <pqcrystals_dilithium3_ref_unpack_sk+0x94>
    1de8:	00812423          	sw	s0,8(sp)
    1dec:	01212023          	sw	s2,0(sp)
    1df0:	00112623          	sw	ra,12(sp)
    1df4:	00050413          	mv	s0,a0
    1df8:	00058913          	mv	s2,a1
    1dfc:	009504b3          	add	s1,a0,s1
  unsigned int i;

  for(i = 0; i < L; ++i)
    if(poly_chknorm(&v->vec[i], bound))
    1e00:	00040513          	mv	a0,s0
    1e04:	00090593          	mv	a1,s2
    1e08:	181000ef          	jal	ra,2788 <pqcrystals_dilithium3_ref_poly_chknorm>
  for(i = 0; i < L; ++i)
    1e0c:	40040413          	addi	s0,s0,1024
    if(poly_chknorm(&v->vec[i], bound))
    1e10:	02051063          	bnez	a0,1e30 <pqcrystals_dilithium3_ref_polyvecl_chknorm+0x58>
  for(i = 0; i < L; ++i)
    1e14:	fe9416e3          	bne	s0,s1,1e00 <pqcrystals_dilithium3_ref_polyvecl_chknorm+0x28>
      return 1;

  return 0;
}
    1e18:	00c12083          	lw	ra,12(sp)
    1e1c:	00812403          	lw	s0,8(sp)
    1e20:	00412483          	lw	s1,4(sp)
    1e24:	00012903          	lw	s2,0(sp)
    1e28:	01010113          	addi	sp,sp,16
    1e2c:	00008067          	ret
    1e30:	00c12083          	lw	ra,12(sp)
    1e34:	00812403          	lw	s0,8(sp)
    1e38:	00412483          	lw	s1,4(sp)
    1e3c:	00012903          	lw	s2,0(sp)
      return 1;
    1e40:	00100513          	li	a0,1
}
    1e44:	01010113          	addi	sp,sp,16
    1e48:	00008067          	ret

00001e4c <pqcrystals_dilithium3_ref_polyveck_uniform_eta>:

/**************************************************************/
/************ Vectors of polynomials of length K **************/
/**************************************************************/

void polyveck_uniform_eta(polyveck *v, const uint8_t seed[CRHBYTES], uint16_t nonce) {
    1e4c:	fe010113          	addi	sp,sp,-32
    1e50:	01212823          	sw	s2,16(sp)
    1e54:	00002937          	lui	s2,0x2
    1e58:	80090913          	addi	s2,s2,-2048 # 1800 <pqcrystals_dilithium3_ref_unpack_sig+0xdc>
    1e5c:	00812c23          	sw	s0,24(sp)
    1e60:	00912a23          	sw	s1,20(sp)
    1e64:	01312623          	sw	s3,12(sp)
    1e68:	00112e23          	sw	ra,28(sp)
    1e6c:	00050493          	mv	s1,a0
    1e70:	00058993          	mv	s3,a1
    1e74:	00060413          	mv	s0,a2
  unsigned int i;

  for(i = 0; i < K; ++i)
    1e78:	01250933          	add	s2,a0,s2
    poly_uniform_eta(&v->vec[i], seed, nonce++);
    1e7c:	00140793          	addi	a5,s0,1
    1e80:	00040613          	mv	a2,s0
    1e84:	00048513          	mv	a0,s1
    1e88:	01079413          	slli	s0,a5,0x10
  for(i = 0; i < K; ++i)
    1e8c:	40048493          	addi	s1,s1,1024
    poly_uniform_eta(&v->vec[i], seed, nonce++);
    1e90:	00098593          	mv	a1,s3
    1e94:	01045413          	srli	s0,s0,0x10
    1e98:	2ed000ef          	jal	ra,2984 <pqcrystals_dilithium3_ref_poly_uniform_eta>
  for(i = 0; i < K; ++i)
    1e9c:	ff2490e3          	bne	s1,s2,1e7c <pqcrystals_dilithium3_ref_polyveck_uniform_eta+0x30>
}
    1ea0:	01c12083          	lw	ra,28(sp)
    1ea4:	01812403          	lw	s0,24(sp)
    1ea8:	01412483          	lw	s1,20(sp)
    1eac:	01012903          	lw	s2,16(sp)
    1eb0:	00c12983          	lw	s3,12(sp)
    1eb4:	02010113          	addi	sp,sp,32
    1eb8:	00008067          	ret

00001ebc <pqcrystals_dilithium3_ref_polyveck_reduce>:
* Description: Reduce coefficients of polynomials in vector of length K
*              to representatives in [-6283009,6283007].
*
* Arguments:   - polyveck *v: pointer to input/output vector
**************************************************/
void polyveck_reduce(polyveck *v) {
    1ebc:	ff010113          	addi	sp,sp,-16
    1ec0:	00912223          	sw	s1,4(sp)
    1ec4:	000024b7          	lui	s1,0x2
    1ec8:	80048493          	addi	s1,s1,-2048 # 1800 <pqcrystals_dilithium3_ref_unpack_sig+0xdc>
    1ecc:	00812423          	sw	s0,8(sp)
    1ed0:	00112623          	sw	ra,12(sp)
    1ed4:	00050413          	mv	s0,a0
    1ed8:	009504b3          	add	s1,a0,s1
  unsigned int i;

  for(i = 0; i < K; ++i)
    poly_reduce(&v->vec[i]);
    1edc:	00040513          	mv	a0,s0
  for(i = 0; i < K; ++i)
    1ee0:	40040413          	addi	s0,s0,1024
    poly_reduce(&v->vec[i]);
    1ee4:	4f4000ef          	jal	ra,23d8 <pqcrystals_dilithium3_ref_poly_reduce>
  for(i = 0; i < K; ++i)
    1ee8:	fe941ae3          	bne	s0,s1,1edc <pqcrystals_dilithium3_ref_polyveck_reduce+0x20>
}
    1eec:	00c12083          	lw	ra,12(sp)
    1ef0:	00812403          	lw	s0,8(sp)
    1ef4:	00412483          	lw	s1,4(sp)
    1ef8:	01010113          	addi	sp,sp,16
    1efc:	00008067          	ret

00001f00 <pqcrystals_dilithium3_ref_polyveck_caddq>:
* Description: For all coefficients of polynomials in vector of length K
*              add Q if coefficient is negative.
*
* Arguments:   - polyveck *v: pointer to input/output vector
**************************************************/
void polyveck_caddq(polyveck *v) {
    1f00:	ff010113          	addi	sp,sp,-16
    1f04:	00912223          	sw	s1,4(sp)
    1f08:	000024b7          	lui	s1,0x2
    1f0c:	80048493          	addi	s1,s1,-2048 # 1800 <pqcrystals_dilithium3_ref_unpack_sig+0xdc>
    1f10:	00812423          	sw	s0,8(sp)
    1f14:	00112623          	sw	ra,12(sp)
    1f18:	00050413          	mv	s0,a0
    1f1c:	009504b3          	add	s1,a0,s1
  unsigned int i;

  for(i = 0; i < K; ++i)
    poly_caddq(&v->vec[i]);
    1f20:	00040513          	mv	a0,s0
  for(i = 0; i < K; ++i)
    1f24:	40040413          	addi	s0,s0,1024
    poly_caddq(&v->vec[i]);
    1f28:	4f0000ef          	jal	ra,2418 <pqcrystals_dilithium3_ref_poly_caddq>
  for(i = 0; i < K; ++i)
    1f2c:	fe941ae3          	bne	s0,s1,1f20 <pqcrystals_dilithium3_ref_polyveck_caddq+0x20>
}
    1f30:	00c12083          	lw	ra,12(sp)
    1f34:	00812403          	lw	s0,8(sp)
    1f38:	00412483          	lw	s1,4(sp)
    1f3c:	01010113          	addi	sp,sp,16
    1f40:	00008067          	ret

00001f44 <pqcrystals_dilithium3_ref_polyveck_add>:
*
* Arguments:   - polyveck *w: pointer to output vector
*              - const polyveck *u: pointer to first summand
*              - const polyveck *v: pointer to second summand
**************************************************/
void polyveck_add(polyveck *w, const polyveck *u, const polyveck *v) {
    1f44:	fe010113          	addi	sp,sp,-32
    1f48:	00912a23          	sw	s1,20(sp)
  unsigned int i;

  for(i = 0; i < K; ++i)
    1f4c:	000024b7          	lui	s1,0x2
void polyveck_add(polyveck *w, const polyveck *u, const polyveck *v) {
    1f50:	00812c23          	sw	s0,24(sp)
    1f54:	01212823          	sw	s2,16(sp)
    1f58:	01312623          	sw	s3,12(sp)
    1f5c:	01412423          	sw	s4,8(sp)
    1f60:	00112e23          	sw	ra,28(sp)
    1f64:	00050a13          	mv	s4,a0
    1f68:	00058993          	mv	s3,a1
    1f6c:	00060913          	mv	s2,a2
    1f70:	00000413          	li	s0,0
  for(i = 0; i < K; ++i)
    1f74:	80048493          	addi	s1,s1,-2048 # 1800 <pqcrystals_dilithium3_ref_unpack_sig+0xdc>
    poly_add(&w->vec[i], &u->vec[i], &v->vec[i]);
    1f78:	00890633          	add	a2,s2,s0
    1f7c:	008985b3          	add	a1,s3,s0
    1f80:	008a0533          	add	a0,s4,s0
  for(i = 0; i < K; ++i)
    1f84:	40040413          	addi	s0,s0,1024
    poly_add(&w->vec[i], &u->vec[i], &v->vec[i]);
    1f88:	4d0000ef          	jal	ra,2458 <pqcrystals_dilithium3_ref_poly_add>
  for(i = 0; i < K; ++i)
    1f8c:	fe9416e3          	bne	s0,s1,1f78 <pqcrystals_dilithium3_ref_polyveck_add+0x34>
}
    1f90:	01c12083          	lw	ra,28(sp)
    1f94:	01812403          	lw	s0,24(sp)
    1f98:	01412483          	lw	s1,20(sp)
    1f9c:	01012903          	lw	s2,16(sp)
    1fa0:	00c12983          	lw	s3,12(sp)
    1fa4:	00812a03          	lw	s4,8(sp)
    1fa8:	02010113          	addi	sp,sp,32
    1fac:	00008067          	ret

00001fb0 <pqcrystals_dilithium3_ref_polyveck_sub>:
* Arguments:   - polyveck *w: pointer to output vector
*              - const polyveck *u: pointer to first input vector
*              - const polyveck *v: pointer to second input vector to be
*                                   subtracted from first input vector
**************************************************/
void polyveck_sub(polyveck *w, const polyveck *u, const polyveck *v) {
    1fb0:	fe010113          	addi	sp,sp,-32
    1fb4:	00912a23          	sw	s1,20(sp)
  unsigned int i;

  for(i = 0; i < K; ++i)
    1fb8:	000024b7          	lui	s1,0x2
void polyveck_sub(polyveck *w, const polyveck *u, const polyveck *v) {
    1fbc:	00812c23          	sw	s0,24(sp)
    1fc0:	01212823          	sw	s2,16(sp)
    1fc4:	01312623          	sw	s3,12(sp)
    1fc8:	01412423          	sw	s4,8(sp)
    1fcc:	00112e23          	sw	ra,28(sp)
    1fd0:	00050a13          	mv	s4,a0
    1fd4:	00058993          	mv	s3,a1
    1fd8:	00060913          	mv	s2,a2
    1fdc:	00000413          	li	s0,0
  for(i = 0; i < K; ++i)
    1fe0:	80048493          	addi	s1,s1,-2048 # 1800 <pqcrystals_dilithium3_ref_unpack_sig+0xdc>
    poly_sub(&w->vec[i], &u->vec[i], &v->vec[i]);
    1fe4:	00890633          	add	a2,s2,s0
    1fe8:	008985b3          	add	a1,s3,s0
    1fec:	008a0533          	add	a0,s4,s0
  for(i = 0; i < K; ++i)
    1ff0:	40040413          	addi	s0,s0,1024
    poly_sub(&w->vec[i], &u->vec[i], &v->vec[i]);
    1ff4:	4bc000ef          	jal	ra,24b0 <pqcrystals_dilithium3_ref_poly_sub>
  for(i = 0; i < K; ++i)
    1ff8:	fe9416e3          	bne	s0,s1,1fe4 <pqcrystals_dilithium3_ref_polyveck_sub+0x34>
}
    1ffc:	01c12083          	lw	ra,28(sp)
    2000:	01812403          	lw	s0,24(sp)
    2004:	01412483          	lw	s1,20(sp)
    2008:	01012903          	lw	s2,16(sp)
    200c:	00c12983          	lw	s3,12(sp)
    2010:	00812a03          	lw	s4,8(sp)
    2014:	02010113          	addi	sp,sp,32
    2018:	00008067          	ret

0000201c <pqcrystals_dilithium3_ref_polyveck_shiftl>:
* Description: Multiply vector of polynomials of Length K by 2^D without modular
*              reduction. Assumes input coefficients to be less than 2^{31-D}.
*
* Arguments:   - polyveck *v: pointer to input/output vector
**************************************************/
void polyveck_shiftl(polyveck *v) {
    201c:	ff010113          	addi	sp,sp,-16
    2020:	00912223          	sw	s1,4(sp)
    2024:	000024b7          	lui	s1,0x2
    2028:	80048493          	addi	s1,s1,-2048 # 1800 <pqcrystals_dilithium3_ref_unpack_sig+0xdc>
    202c:	00812423          	sw	s0,8(sp)
    2030:	00112623          	sw	ra,12(sp)
    2034:	00050413          	mv	s0,a0
    2038:	009504b3          	add	s1,a0,s1
  unsigned int i;

  for(i = 0; i < K; ++i)
    poly_shiftl(&v->vec[i]);
    203c:	00040513          	mv	a0,s0
  for(i = 0; i < K; ++i)
    2040:	40040413          	addi	s0,s0,1024
    poly_shiftl(&v->vec[i]);
    2044:	4c8000ef          	jal	ra,250c <pqcrystals_dilithium3_ref_poly_shiftl>
  for(i = 0; i < K; ++i)
    2048:	fe941ae3          	bne	s0,s1,203c <pqcrystals_dilithium3_ref_polyveck_shiftl+0x20>
}
    204c:	00c12083          	lw	ra,12(sp)
    2050:	00812403          	lw	s0,8(sp)
    2054:	00412483          	lw	s1,4(sp)
    2058:	01010113          	addi	sp,sp,16
    205c:	00008067          	ret

00002060 <pqcrystals_dilithium3_ref_polyveck_ntt>:
* Description: Forward NTT of all polynomials in vector of length K. Output
*              coefficients can be up to 16*Q larger than input coefficients.
*
* Arguments:   - polyveck *v: pointer to input/output vector
**************************************************/
void polyveck_ntt(polyveck *v) {
    2060:	ff010113          	addi	sp,sp,-16
    2064:	00912223          	sw	s1,4(sp)
    2068:	000024b7          	lui	s1,0x2
    206c:	80048493          	addi	s1,s1,-2048 # 1800 <pqcrystals_dilithium3_ref_unpack_sig+0xdc>
    2070:	00812423          	sw	s0,8(sp)
    2074:	00112623          	sw	ra,12(sp)
    2078:	00050413          	mv	s0,a0
    207c:	009504b3          	add	s1,a0,s1
  unsigned int i;

  for(i = 0; i < K; ++i)
    poly_ntt(&v->vec[i]);
    2080:	00040513          	mv	a0,s0
  for(i = 0; i < K; ++i)
    2084:	40040413          	addi	s0,s0,1024
    poly_ntt(&v->vec[i]);
    2088:	4a0000ef          	jal	ra,2528 <pqcrystals_dilithium3_ref_poly_ntt>
  for(i = 0; i < K; ++i)
    208c:	fe941ae3          	bne	s0,s1,2080 <pqcrystals_dilithium3_ref_polyveck_ntt+0x20>
}
    2090:	00c12083          	lw	ra,12(sp)
    2094:	00812403          	lw	s0,8(sp)
    2098:	00412483          	lw	s1,4(sp)
    209c:	01010113          	addi	sp,sp,16
    20a0:	00008067          	ret

000020a4 <pqcrystals_dilithium3_ref_polyveck_invntt_tomont>:
*              in vector of length K. Input coefficients need to be less
*              than 2*Q.
*
* Arguments:   - polyveck *v: pointer to input/output vector
**************************************************/
void polyveck_invntt_tomont(polyveck *v) {
    20a4:	ff010113          	addi	sp,sp,-16
    20a8:	00912223          	sw	s1,4(sp)
    20ac:	000024b7          	lui	s1,0x2
    20b0:	80048493          	addi	s1,s1,-2048 # 1800 <pqcrystals_dilithium3_ref_unpack_sig+0xdc>
    20b4:	00812423          	sw	s0,8(sp)
    20b8:	00112623          	sw	ra,12(sp)
    20bc:	00050413          	mv	s0,a0
    20c0:	009504b3          	add	s1,a0,s1
  unsigned int i;

  for(i = 0; i < K; ++i)
    poly_invntt_tomont(&v->vec[i]);
    20c4:	00040513          	mv	a0,s0
  for(i = 0; i < K; ++i)
    20c8:	40040413          	addi	s0,s0,1024
    poly_invntt_tomont(&v->vec[i]);
    20cc:	460000ef          	jal	ra,252c <pqcrystals_dilithium3_ref_poly_invntt_tomont>
  for(i = 0; i < K; ++i)
    20d0:	fe941ae3          	bne	s0,s1,20c4 <pqcrystals_dilithium3_ref_polyveck_invntt_tomont+0x20>
}
    20d4:	00c12083          	lw	ra,12(sp)
    20d8:	00812403          	lw	s0,8(sp)
    20dc:	00412483          	lw	s1,4(sp)
    20e0:	01010113          	addi	sp,sp,16
    20e4:	00008067          	ret

000020e8 <pqcrystals_dilithium3_ref_polyveck_pointwise_poly_montgomery>:
void polyveck_pointwise_poly_montgomery(polyveck *r, const poly *a, const polyveck *v) {
#ifdef FPAU
  unsigned int i, j;
  int32_t u_coeff, v_coeff;

  for(i = 0; i < K; ++i)
    20e8:	00002e37          	lui	t3,0x2
    20ec:	800e0e13          	addi	t3,t3,-2048 # 1800 <pqcrystals_dilithium3_ref_unpack_sig+0xdc>
    20f0:	00050313          	mv	t1,a0
void polyveck_pointwise_poly_montgomery(polyveck *r, const poly *a, const polyveck *v) {
    20f4:	00058e93          	mv	t4,a1
    20f8:	00060893          	mv	a7,a2
    20fc:	01c60e33          	add	t3,a2,t3
    2100:	40058813          	addi	a6,a1,1024
#ifndef STEEL
      asm volatile("nop");  //ORCA
      asm volatile("nop");  //ORCA
      asm volatile ("nop"); //ORCA
#endif
      asm volatile("fpau.dil.mac %0, %1, %2\n": : "r"(u_coeff), "r"(v_coeff),"r"(0): ); // syntax with no outputs to avoid compiler optimization (no loading u_coeff)
    2104:	00000513          	li	a0,0
    for(j = 0; j < N; ++j)
    2108:	000e8793          	mv	a5,t4
void polyveck_pointwise_poly_montgomery(polyveck *r, const poly *a, const polyveck *v) {
    210c:	00030693          	mv	a3,t1
    2110:	00088713          	mv	a4,a7
      u_coeff = a->coeffs[j];
    2114:	0007a603          	lw	a2,0(a5)
      v_coeff = v->vec[i].coeffs[j];
    2118:	00072583          	lw	a1,0(a4)
      asm volatile("nop");  //ORCA
    211c:	00000013          	nop
      asm volatile("nop");  //ORCA
    2120:	00000013          	nop
      asm volatile ("nop"); //ORCA
    2124:	00000013          	nop
      asm volatile("fpau.dil.mac %0, %1, %2\n": : "r"(u_coeff), "r"(v_coeff),"r"(0): ); // syntax with no outputs to avoid compiler optimization (no loading u_coeff)
    2128:	50a5a633          	fpau.dil.mac	a2,a1,a0

      // store result
      r->vec[i].coeffs[j] = u_coeff;
    212c:	00c6a023          	sw	a2,0(a3)
    for(j = 0; j < N; ++j)
    2130:	00478793          	addi	a5,a5,4
    2134:	00470713          	addi	a4,a4,4
    2138:	00468693          	addi	a3,a3,4
    213c:	fd079ce3          	bne	a5,a6,2114 <pqcrystals_dilithium3_ref_polyveck_pointwise_poly_montgomery+0x2c>
  for(i = 0; i < K; ++i)
    2140:	40088893          	addi	a7,a7,1024
    2144:	40030313          	addi	t1,t1,1024
    2148:	fdc890e3          	bne	a7,t3,2108 <pqcrystals_dilithium3_ref_polyveck_pointwise_poly_montgomery+0x20>
  unsigned int i;

  for(i = 0; i < K; ++i)
    poly_pointwise_montgomery(&r->vec[i], a, &v->vec[i]);
#endif
}
    214c:	00008067          	ret

00002150 <pqcrystals_dilithium3_ref_polyveck_chknorm>:
*              - int32_t B: norm bound
*
* Returns 0 if norm of all polynomials are strictly smaller than B <= (Q-1)/8
* and 1 otherwise.
**************************************************/
int polyveck_chknorm(const polyveck *v, int32_t bound) {
    2150:	ff010113          	addi	sp,sp,-16
    2154:	00912223          	sw	s1,4(sp)
    2158:	000024b7          	lui	s1,0x2
    215c:	80048493          	addi	s1,s1,-2048 # 1800 <pqcrystals_dilithium3_ref_unpack_sig+0xdc>
    2160:	00812423          	sw	s0,8(sp)
    2164:	01212023          	sw	s2,0(sp)
    2168:	00112623          	sw	ra,12(sp)
    216c:	00050413          	mv	s0,a0
    2170:	00058913          	mv	s2,a1
    2174:	009504b3          	add	s1,a0,s1
  unsigned int i;

  for(i = 0; i < K; ++i)
    if(poly_chknorm(&v->vec[i], bound))
    2178:	00040513          	mv	a0,s0
    217c:	00090593          	mv	a1,s2
    2180:	608000ef          	jal	ra,2788 <pqcrystals_dilithium3_ref_poly_chknorm>
  for(i = 0; i < K; ++i)
    2184:	40040413          	addi	s0,s0,1024
    if(poly_chknorm(&v->vec[i], bound))
    2188:	02051063          	bnez	a0,21a8 <pqcrystals_dilithium3_ref_polyveck_chknorm+0x58>
  for(i = 0; i < K; ++i)
    218c:	fe9416e3          	bne	s0,s1,2178 <pqcrystals_dilithium3_ref_polyveck_chknorm+0x28>
      return 1;

  return 0;
}
    2190:	00c12083          	lw	ra,12(sp)
    2194:	00812403          	lw	s0,8(sp)
    2198:	00412483          	lw	s1,4(sp)
    219c:	00012903          	lw	s2,0(sp)
    21a0:	01010113          	addi	sp,sp,16
    21a4:	00008067          	ret
    21a8:	00c12083          	lw	ra,12(sp)
    21ac:	00812403          	lw	s0,8(sp)
    21b0:	00412483          	lw	s1,4(sp)
    21b4:	00012903          	lw	s2,0(sp)
      return 1;
    21b8:	00100513          	li	a0,1
}
    21bc:	01010113          	addi	sp,sp,16
    21c0:	00008067          	ret

000021c4 <pqcrystals_dilithium3_ref_polyveck_power2round>:
*                              coefficients a1
*              - polyveck *v0: pointer to output vector of polynomials with
*                              coefficients a0
*              - const polyveck *v: pointer to input vector
**************************************************/
void polyveck_power2round(polyveck *v1, polyveck *v0, const polyveck *v) {
    21c4:	fe010113          	addi	sp,sp,-32
    21c8:	00912a23          	sw	s1,20(sp)
  unsigned int i;

  for(i = 0; i < K; ++i)
    21cc:	000024b7          	lui	s1,0x2
void polyveck_power2round(polyveck *v1, polyveck *v0, const polyveck *v) {
    21d0:	00812c23          	sw	s0,24(sp)
    21d4:	01212823          	sw	s2,16(sp)
    21d8:	01312623          	sw	s3,12(sp)
    21dc:	01412423          	sw	s4,8(sp)
    21e0:	00112e23          	sw	ra,28(sp)
    21e4:	00050a13          	mv	s4,a0
    21e8:	00058993          	mv	s3,a1
    21ec:	00060913          	mv	s2,a2
    21f0:	00000413          	li	s0,0
  for(i = 0; i < K; ++i)
    21f4:	80048493          	addi	s1,s1,-2048 # 1800 <pqcrystals_dilithium3_ref_unpack_sig+0xdc>
    poly_power2round(&v1->vec[i], &v0->vec[i], &v->vec[i]);
    21f8:	00890633          	add	a2,s2,s0
    21fc:	008985b3          	add	a1,s3,s0
    2200:	008a0533          	add	a0,s4,s0
  for(i = 0; i < K; ++i)
    2204:	40040413          	addi	s0,s0,1024
    poly_power2round(&v1->vec[i], &v0->vec[i], &v->vec[i]);
    2208:	3a4000ef          	jal	ra,25ac <pqcrystals_dilithium3_ref_poly_power2round>
  for(i = 0; i < K; ++i)
    220c:	fe9416e3          	bne	s0,s1,21f8 <pqcrystals_dilithium3_ref_polyveck_power2round+0x34>
}
    2210:	01c12083          	lw	ra,28(sp)
    2214:	01812403          	lw	s0,24(sp)
    2218:	01412483          	lw	s1,20(sp)
    221c:	01012903          	lw	s2,16(sp)
    2220:	00c12983          	lw	s3,12(sp)
    2224:	00812a03          	lw	s4,8(sp)
    2228:	02010113          	addi	sp,sp,32
    222c:	00008067          	ret

00002230 <pqcrystals_dilithium3_ref_polyveck_decompose>:
*                              coefficients a1
*              - polyveck *v0: pointer to output vector of polynomials with
*                              coefficients a0
*              - const polyveck *v: pointer to input vector
**************************************************/
void polyveck_decompose(polyveck *v1, polyveck *v0, const polyveck *v) {
    2230:	fe010113          	addi	sp,sp,-32
    2234:	00912a23          	sw	s1,20(sp)
  unsigned int i;

  for(i = 0; i < K; ++i)
    2238:	000024b7          	lui	s1,0x2
void polyveck_decompose(polyveck *v1, polyveck *v0, const polyveck *v) {
    223c:	00812c23          	sw	s0,24(sp)
    2240:	01212823          	sw	s2,16(sp)
    2244:	01312623          	sw	s3,12(sp)
    2248:	01412423          	sw	s4,8(sp)
    224c:	00112e23          	sw	ra,28(sp)
    2250:	00050a13          	mv	s4,a0
    2254:	00058993          	mv	s3,a1
    2258:	00060913          	mv	s2,a2
    225c:	00000413          	li	s0,0
  for(i = 0; i < K; ++i)
    2260:	80048493          	addi	s1,s1,-2048 # 1800 <pqcrystals_dilithium3_ref_unpack_sig+0xdc>
    poly_decompose(&v1->vec[i], &v0->vec[i], &v->vec[i]);
    2264:	00890633          	add	a2,s2,s0
    2268:	008985b3          	add	a1,s3,s0
    226c:	008a0533          	add	a0,s4,s0
  for(i = 0; i < K; ++i)
    2270:	40040413          	addi	s0,s0,1024
    poly_decompose(&v1->vec[i], &v0->vec[i], &v->vec[i]);
    2274:	3a8000ef          	jal	ra,261c <pqcrystals_dilithium3_ref_poly_decompose>
  for(i = 0; i < K; ++i)
    2278:	fe9416e3          	bne	s0,s1,2264 <pqcrystals_dilithium3_ref_polyveck_decompose+0x34>
}
    227c:	01c12083          	lw	ra,28(sp)
    2280:	01812403          	lw	s0,24(sp)
    2284:	01412483          	lw	s1,20(sp)
    2288:	01012903          	lw	s2,16(sp)
    228c:	00c12983          	lw	s3,12(sp)
    2290:	00812a03          	lw	s4,8(sp)
    2294:	02010113          	addi	sp,sp,32
    2298:	00008067          	ret

0000229c <pqcrystals_dilithium3_ref_polyveck_make_hint>:
* Returns number of 1 bits.
**************************************************/
unsigned int polyveck_make_hint(polyveck *h,
                                const polyveck *v0,
                                const polyveck *v1)
{
    229c:	fe010113          	addi	sp,sp,-32
    22a0:	01212823          	sw	s2,16(sp)
  unsigned int i, s = 0;

  for(i = 0; i < K; ++i)
    22a4:	00002937          	lui	s2,0x2
{
    22a8:	00812c23          	sw	s0,24(sp)
    22ac:	00912a23          	sw	s1,20(sp)
    22b0:	01312623          	sw	s3,12(sp)
    22b4:	01412423          	sw	s4,8(sp)
    22b8:	01512223          	sw	s5,4(sp)
    22bc:	00112e23          	sw	ra,28(sp)
    22c0:	00050a93          	mv	s5,a0
    22c4:	00058a13          	mv	s4,a1
    22c8:	00060993          	mv	s3,a2
    22cc:	00000413          	li	s0,0
  unsigned int i, s = 0;
    22d0:	00000493          	li	s1,0
  for(i = 0; i < K; ++i)
    22d4:	80090913          	addi	s2,s2,-2048 # 1800 <pqcrystals_dilithium3_ref_unpack_sig+0xdc>
    s += poly_make_hint(&h->vec[i], &v0->vec[i], &v1->vec[i]);
    22d8:	00898633          	add	a2,s3,s0
    22dc:	008a05b3          	add	a1,s4,s0
    22e0:	008a8533          	add	a0,s5,s0
    22e4:	3a8000ef          	jal	ra,268c <pqcrystals_dilithium3_ref_poly_make_hint>
  for(i = 0; i < K; ++i)
    22e8:	40040413          	addi	s0,s0,1024
    s += poly_make_hint(&h->vec[i], &v0->vec[i], &v1->vec[i]);
    22ec:	00a484b3          	add	s1,s1,a0
  for(i = 0; i < K; ++i)
    22f0:	ff2414e3          	bne	s0,s2,22d8 <pqcrystals_dilithium3_ref_polyveck_make_hint+0x3c>

  return s;
}
    22f4:	01c12083          	lw	ra,28(sp)
    22f8:	01812403          	lw	s0,24(sp)
    22fc:	01012903          	lw	s2,16(sp)
    2300:	00c12983          	lw	s3,12(sp)
    2304:	00812a03          	lw	s4,8(sp)
    2308:	00412a83          	lw	s5,4(sp)
    230c:	00048513          	mv	a0,s1
    2310:	01412483          	lw	s1,20(sp)
    2314:	02010113          	addi	sp,sp,32
    2318:	00008067          	ret

0000231c <pqcrystals_dilithium3_ref_polyveck_use_hint>:
* Arguments:   - polyveck *w: pointer to output vector of polynomials with
*                             corrected high bits
*              - const polyveck *u: pointer to input vector
*              - const polyveck *h: pointer to input hint vector
**************************************************/
void polyveck_use_hint(polyveck *w, const polyveck *u, const polyveck *h) {
    231c:	fe010113          	addi	sp,sp,-32
    2320:	00912a23          	sw	s1,20(sp)
  unsigned int i;

  for(i = 0; i < K; ++i)
    2324:	000024b7          	lui	s1,0x2
void polyveck_use_hint(polyveck *w, const polyveck *u, const polyveck *h) {
    2328:	00812c23          	sw	s0,24(sp)
    232c:	01212823          	sw	s2,16(sp)
    2330:	01312623          	sw	s3,12(sp)
    2334:	01412423          	sw	s4,8(sp)
    2338:	00112e23          	sw	ra,28(sp)
    233c:	00050a13          	mv	s4,a0
    2340:	00058993          	mv	s3,a1
    2344:	00060913          	mv	s2,a2
    2348:	00000413          	li	s0,0
  for(i = 0; i < K; ++i)
    234c:	80048493          	addi	s1,s1,-2048 # 1800 <pqcrystals_dilithium3_ref_unpack_sig+0xdc>
    poly_use_hint(&w->vec[i], &u->vec[i], &h->vec[i]);
    2350:	00890633          	add	a2,s2,s0
    2354:	008985b3          	add	a1,s3,s0
    2358:	008a0533          	add	a0,s4,s0
  for(i = 0; i < K; ++i)
    235c:	40040413          	addi	s0,s0,1024
    poly_use_hint(&w->vec[i], &u->vec[i], &h->vec[i]);
    2360:	3b4000ef          	jal	ra,2714 <pqcrystals_dilithium3_ref_poly_use_hint>
  for(i = 0; i < K; ++i)
    2364:	fe9416e3          	bne	s0,s1,2350 <pqcrystals_dilithium3_ref_polyveck_use_hint+0x34>
}
    2368:	01c12083          	lw	ra,28(sp)
    236c:	01812403          	lw	s0,24(sp)
    2370:	01412483          	lw	s1,20(sp)
    2374:	01012903          	lw	s2,16(sp)
    2378:	00c12983          	lw	s3,12(sp)
    237c:	00812a03          	lw	s4,8(sp)
    2380:	02010113          	addi	sp,sp,32
    2384:	00008067          	ret

00002388 <pqcrystals_dilithium3_ref_polyveck_pack_w1>:

void polyveck_pack_w1(uint8_t r[K*POLYW1_PACKEDBYTES], const polyveck *w1) {
    2388:	ff010113          	addi	sp,sp,-16
    238c:	00812423          	sw	s0,8(sp)
    2390:	00912223          	sw	s1,4(sp)
    2394:	01212023          	sw	s2,0(sp)
    2398:	00112623          	sw	ra,12(sp)
    239c:	00050413          	mv	s0,a0
    23a0:	00058493          	mv	s1,a1
    23a4:	30050913          	addi	s2,a0,768
  unsigned int i;

  for(i = 0; i < K; ++i)
    polyw1_pack(&r[i*POLYW1_PACKEDBYTES], &w1->vec[i]);
    23a8:	00048593          	mv	a1,s1
    23ac:	00040513          	mv	a0,s0
  for(i = 0; i < K; ++i)
    23b0:	08040413          	addi	s0,s0,128
    polyw1_pack(&r[i*POLYW1_PACKEDBYTES], &w1->vec[i]);
    23b4:	5f9000ef          	jal	ra,31ac <pqcrystals_dilithium3_ref_polyw1_pack>
  for(i = 0; i < K; ++i)
    23b8:	40048493          	addi	s1,s1,1024
    23bc:	ff2416e3          	bne	s0,s2,23a8 <pqcrystals_dilithium3_ref_polyveck_pack_w1+0x20>
}
    23c0:	00c12083          	lw	ra,12(sp)
    23c4:	00812403          	lw	s0,8(sp)
    23c8:	00412483          	lw	s1,4(sp)
    23cc:	00012903          	lw	s2,0(sp)
    23d0:	01010113          	addi	sp,sp,16
    23d4:	00008067          	ret

000023d8 <pqcrystals_dilithium3_ref_poly_reduce>:
* Description: Inplace reduction of all coefficients of polynomial to
*              representative in [-6283009,6283007].
*
* Arguments:   - poly *a: pointer to input/output polynomial
**************************************************/
void poly_reduce(poly *a) {
    23d8:	ff010113          	addi	sp,sp,-16
    23dc:	00812423          	sw	s0,8(sp)
    23e0:	00912223          	sw	s1,4(sp)
    23e4:	00112623          	sw	ra,12(sp)
    23e8:	00050413          	mv	s0,a0
    23ec:	40050493          	addi	s1,a0,1024
  unsigned int i;
  DBENCH_START();

  for(i = 0; i < N; ++i)
    a->coeffs[i] = reduce32(a->coeffs[i]);
    23f0:	00042503          	lw	a0,0(s0)
  for(i = 0; i < N; ++i)
    23f4:	00440413          	addi	s0,s0,4
    a->coeffs[i] = reduce32(a->coeffs[i]);
    23f8:	02c010ef          	jal	ra,3424 <pqcrystals_dilithium3_ref_reduce32>
    23fc:	fea42e23          	sw	a0,-4(s0)
  for(i = 0; i < N; ++i)
    2400:	fe9418e3          	bne	s0,s1,23f0 <pqcrystals_dilithium3_ref_poly_reduce+0x18>

  DBENCH_STOP(*tred);
}
    2404:	00c12083          	lw	ra,12(sp)
    2408:	00812403          	lw	s0,8(sp)
    240c:	00412483          	lw	s1,4(sp)
    2410:	01010113          	addi	sp,sp,16
    2414:	00008067          	ret

00002418 <pqcrystals_dilithium3_ref_poly_caddq>:
* Description: For all coefficients of in/out polynomial add Q if
*              coefficient is negative.
*
* Arguments:   - poly *a: pointer to input/output polynomial
**************************************************/
void poly_caddq(poly *a) {
    2418:	ff010113          	addi	sp,sp,-16
    241c:	00812423          	sw	s0,8(sp)
    2420:	00912223          	sw	s1,4(sp)
    2424:	00112623          	sw	ra,12(sp)
    2428:	00050413          	mv	s0,a0
    242c:	40050493          	addi	s1,a0,1024
  unsigned int i;
  DBENCH_START();

  for(i = 0; i < N; ++i)
    a->coeffs[i] = caddq(a->coeffs[i]);
    2430:	00042503          	lw	a0,0(s0)
  for(i = 0; i < N; ++i)
    2434:	00440413          	addi	s0,s0,4
    a->coeffs[i] = caddq(a->coeffs[i]);
    2438:	00c010ef          	jal	ra,3444 <pqcrystals_dilithium3_ref_caddq>
    243c:	fea42e23          	sw	a0,-4(s0)
  for(i = 0; i < N; ++i)
    2440:	fe9418e3          	bne	s0,s1,2430 <pqcrystals_dilithium3_ref_poly_caddq+0x18>

  DBENCH_STOP(*tred);
}
    2444:	00c12083          	lw	ra,12(sp)
    2448:	00812403          	lw	s0,8(sp)
    244c:	00412483          	lw	s1,4(sp)
    2450:	01010113          	addi	sp,sp,16
    2454:	00008067          	ret

00002458 <pqcrystals_dilithium3_ref_poly_add>:
*
* Arguments:   - poly *c: pointer to output polynomial
*              - const poly *a: pointer to first summand
*              - const poly *b: pointer to second summand
**************************************************/
void poly_add(poly *c, const poly *a, const poly *b)  {
    2458:	ff010113          	addi	sp,sp,-16
    245c:	01612623          	sw	s6,12(sp)
    2460:	01712423          	sw	s7,8(sp)
    2464:	00000793          	li	a5,0
#ifndef STEEL
    asm volatile("nop"); // ORCA
    asm volatile("nop"); // ORCA
    asm volatile("nop"); // ORCA
#endif
    asm volatile("fpau.dil.bf %0, %1, %2\n": : "r"(coeff0), "r"(coeff1),"r"(1): );  // use of bf to not overwrite "1" constant (output1 = coeff0 + coeff1*1)
    2468:	00100893          	li	a7,1
  for(i = 0; i < N; ++i){
    246c:	40000813          	li	a6,1024
    coeff0 = a->coeffs[i];
    2470:	00f586b3          	add	a3,a1,a5
    coeff1 = b->coeffs[i];
    2474:	00f60733          	add	a4,a2,a5
    coeff0 = a->coeffs[i];
    2478:	0006ab03          	lw	s6,0(a3)
    coeff1 = b->coeffs[i];
    247c:	00072b83          	lw	s7,0(a4)
    asm volatile("nop"); // ORCA
    2480:	00000013          	nop
    asm volatile("nop"); // ORCA
    2484:	00000013          	nop
    asm volatile("nop"); // ORCA
    2488:	00000013          	nop
    asm volatile("fpau.dil.bf %0, %1, %2\n": : "r"(coeff0), "r"(coeff1),"r"(1): );  // use of bf to not overwrite "1" constant (output1 = coeff0 + coeff1*1)
    248c:	611bab33          	fpau.dil.bf	s6,s7,a7
    
    c->coeffs[i] = coeff0;
    2490:	00f50733          	add	a4,a0,a5
    2494:	01672023          	sw	s6,0(a4)
  for(i = 0; i < N; ++i){
    2498:	00478793          	addi	a5,a5,4
    249c:	fd079ae3          	bne	a5,a6,2470 <pqcrystals_dilithium3_ref_poly_add+0x18>
    c->coeffs[i] = a->coeffs[i] + b->coeffs[i];
#endif
  }

  DBENCH_STOP(*tadd);
}
    24a0:	00c12b03          	lw	s6,12(sp)
    24a4:	00812b83          	lw	s7,8(sp)
    24a8:	01010113          	addi	sp,sp,16
    24ac:	00008067          	ret

000024b0 <pqcrystals_dilithium3_ref_poly_sub>:
* Arguments:   - poly *c: pointer to output polynomial
*              - const poly *a: pointer to first input polynomial
*              - const poly *b: pointer to second input polynomial to be
*                               subtraced from first input polynomial
**************************************************/
void poly_sub(poly *c, const poly *a, const poly *b) {
    24b0:	ff010113          	addi	sp,sp,-16
    24b4:	01612623          	sw	s6,12(sp)
    24b8:	01712423          	sw	s7,8(sp)
    24bc:	00000793          	li	a5,0
#ifndef STEEL
    asm volatile("nop"); // ORCA
    asm volatile("nop"); // ORCA
    asm volatile("nop"); // ORCA
#endif
    asm volatile("fpau.dil.bf %0, %1, %2\n": : "r"(coeff0), "r"(coeff1),"r"(1): );  // use of bf to not overwrite "1" constant (output2 = coeff0 - coeff1*1)
    24c0:	00100893          	li	a7,1
  for(i = 0; i < N; ++i){
    24c4:	40000813          	li	a6,1024
    coeff0 = a->coeffs[i];
    24c8:	00f586b3          	add	a3,a1,a5
    coeff1 = b->coeffs[i];
    24cc:	00f60733          	add	a4,a2,a5
    coeff0 = a->coeffs[i];
    24d0:	0006ab03          	lw	s6,0(a3)
    coeff1 = b->coeffs[i];
    24d4:	00072b83          	lw	s7,0(a4)
    asm volatile("nop"); // ORCA
    24d8:	00000013          	nop
    asm volatile("nop"); // ORCA
    24dc:	00000013          	nop
    asm volatile("nop"); // ORCA
    24e0:	00000013          	nop
    asm volatile("fpau.dil.bf %0, %1, %2\n": : "r"(coeff0), "r"(coeff1),"r"(1): );  // use of bf to not overwrite "1" constant (output2 = coeff0 - coeff1*1)
    24e4:	611bab33          	fpau.dil.bf	s6,s7,a7

    asm volatile("nop"); // ORCA and STEEL (2nd output written in next cycle)
    24e8:	00000013          	nop

    c->coeffs[i] = coeff1;
    24ec:	00f50733          	add	a4,a0,a5
    24f0:	01772023          	sw	s7,0(a4)
  for(i = 0; i < N; ++i){
    24f4:	00478793          	addi	a5,a5,4
    24f8:	fd0798e3          	bne	a5,a6,24c8 <pqcrystals_dilithium3_ref_poly_sub+0x18>
    c->coeffs[i] = a->coeffs[i] - b->coeffs[i];
#endif
  }

  DBENCH_STOP(*tadd);
}
    24fc:	00c12b03          	lw	s6,12(sp)
    2500:	00812b83          	lw	s7,8(sp)
    2504:	01010113          	addi	sp,sp,16
    2508:	00008067          	ret

0000250c <pqcrystals_dilithium3_ref_poly_shiftl>:
**************************************************/
void poly_shiftl(poly *a) {
  unsigned int i;
  DBENCH_START();

  for(i = 0; i < N; ++i)
    250c:	40050713          	addi	a4,a0,1024
    a->coeffs[i] <<= D;
    2510:	00052783          	lw	a5,0(a0)
  for(i = 0; i < N; ++i)
    2514:	00450513          	addi	a0,a0,4
    a->coeffs[i] <<= D;
    2518:	00d79793          	slli	a5,a5,0xd
    251c:	fef52e23          	sw	a5,-4(a0)
  for(i = 0; i < N; ++i)
    2520:	fee518e3          	bne	a0,a4,2510 <pqcrystals_dilithium3_ref_poly_shiftl+0x4>

  DBENCH_STOP(*tmul);
}
    2524:	00008067          	ret

00002528 <pqcrystals_dilithium3_ref_poly_ntt>:
  uart_send_string("\n\rNTT:");

  asm("csrrs s2, "TICKS_REGISTER", zero");
  #endif

  ntt(a->coeffs);
    2528:	4ad0006f          	j	31d4 <pqcrystals_dilithium3_ref_ntt>

0000252c <pqcrystals_dilithium3_ref_poly_invntt_tomont>:
  uart_send_string("\n\rInverse NTT:");

  asm("csrrs s2, "TICKS_REGISTER", zero");
  #endif

  invntt_tomont(a->coeffs);
    252c:	5790006f          	j	32a4 <pqcrystals_dilithium3_ref_invntt_tomont>

00002530 <pqcrystals_dilithium3_ref_poly_pointwise_montgomery>:
*
* Arguments:   - poly *c: pointer to output polynomial
*              - const poly *a: pointer to first input polynomial
*              - const poly *b: pointer to second input polynomial
**************************************************/
void poly_pointwise_montgomery(poly *c, const poly *a, const poly *b) {
    2530:	fe010113          	addi	sp,sp,-32
    2534:	00812c23          	sw	s0,24(sp)
    2538:	00912a23          	sw	s1,20(sp)
    253c:	01212823          	sw	s2,16(sp)
    2540:	01312623          	sw	s3,12(sp)
    2544:	01412423          	sw	s4,8(sp)
    2548:	00112e23          	sw	ra,28(sp)
    254c:	00050993          	mv	s3,a0
    2550:	00058913          	mv	s2,a1
    2554:	00060493          	mv	s1,a2
    2558:	00000413          	li	s0,0
  unsigned int i;
  DBENCH_START();

  for(i = 0; i < N; ++i)
    255c:	40000a13          	li	s4,1024
    c->coeffs[i] = montgomery_reduce((int64_t)a->coeffs[i] * b->coeffs[i]);
    2560:	00890733          	add	a4,s2,s0
    2564:	008487b3          	add	a5,s1,s0
    2568:	0007a783          	lw	a5,0(a5)
    256c:	00072503          	lw	a0,0(a4)
    2570:	02f515b3          	mulh	a1,a0,a5
    2574:	02f50533          	mul	a0,a0,a5
    2578:	649000ef          	jal	ra,33c0 <pqcrystals_dilithium3_ref_montgomery_reduce>
    257c:	008987b3          	add	a5,s3,s0
    2580:	00a7a023          	sw	a0,0(a5)
  for(i = 0; i < N; ++i)
    2584:	00440413          	addi	s0,s0,4
    2588:	fd441ce3          	bne	s0,s4,2560 <pqcrystals_dilithium3_ref_poly_pointwise_montgomery+0x30>

  DBENCH_STOP(*tmul);
}
    258c:	01c12083          	lw	ra,28(sp)
    2590:	01812403          	lw	s0,24(sp)
    2594:	01412483          	lw	s1,20(sp)
    2598:	01012903          	lw	s2,16(sp)
    259c:	00c12983          	lw	s3,12(sp)
    25a0:	00812a03          	lw	s4,8(sp)
    25a4:	02010113          	addi	sp,sp,32
    25a8:	00008067          	ret

000025ac <pqcrystals_dilithium3_ref_poly_power2round>:
*
* Arguments:   - poly *a1: pointer to output polynomial with coefficients c1
*              - poly *a0: pointer to output polynomial with coefficients c0
*              - const poly *a: pointer to input polynomial
**************************************************/
void poly_power2round(poly *a1, poly *a0, const poly *a) {
    25ac:	fe010113          	addi	sp,sp,-32
    25b0:	00812c23          	sw	s0,24(sp)
    25b4:	00912a23          	sw	s1,20(sp)
    25b8:	01212823          	sw	s2,16(sp)
    25bc:	01312623          	sw	s3,12(sp)
    25c0:	01412423          	sw	s4,8(sp)
    25c4:	00112e23          	sw	ra,28(sp)
    25c8:	00050993          	mv	s3,a0
    25cc:	00058913          	mv	s2,a1
    25d0:	00060493          	mv	s1,a2
    25d4:	00000413          	li	s0,0
  unsigned int i;
  DBENCH_START();

  for(i = 0; i < N; ++i)
    25d8:	40000a13          	li	s4,1024
    a1->coeffs[i] = power2round(&a0->coeffs[i], a->coeffs[i]);
    25dc:	008487b3          	add	a5,s1,s0
    25e0:	0007a583          	lw	a1,0(a5)
    25e4:	00890533          	add	a0,s2,s0
    25e8:	6a9000ef          	jal	ra,3490 <pqcrystals_dilithium3_ref_power2round>
    25ec:	008987b3          	add	a5,s3,s0
    25f0:	00a7a023          	sw	a0,0(a5)
  for(i = 0; i < N; ++i)
    25f4:	00440413          	addi	s0,s0,4
    25f8:	ff4412e3          	bne	s0,s4,25dc <pqcrystals_dilithium3_ref_poly_power2round+0x30>

  DBENCH_STOP(*tround);
}
    25fc:	01c12083          	lw	ra,28(sp)
    2600:	01812403          	lw	s0,24(sp)
    2604:	01412483          	lw	s1,20(sp)
    2608:	01012903          	lw	s2,16(sp)
    260c:	00c12983          	lw	s3,12(sp)
    2610:	00812a03          	lw	s4,8(sp)
    2614:	02010113          	addi	sp,sp,32
    2618:	00008067          	ret

0000261c <pqcrystals_dilithium3_ref_poly_decompose>:
*
* Arguments:   - poly *a1: pointer to output polynomial with coefficients c1
*              - poly *a0: pointer to output polynomial with coefficients c0
*              - const poly *a: pointer to input polynomial
**************************************************/
void poly_decompose(poly *a1, poly *a0, const poly *a) {
    261c:	fe010113          	addi	sp,sp,-32
    2620:	00812c23          	sw	s0,24(sp)
    2624:	00912a23          	sw	s1,20(sp)
    2628:	01212823          	sw	s2,16(sp)
    262c:	01312623          	sw	s3,12(sp)
    2630:	01412423          	sw	s4,8(sp)
    2634:	00112e23          	sw	ra,28(sp)
    2638:	00050993          	mv	s3,a0
    263c:	00058913          	mv	s2,a1
    2640:	00060493          	mv	s1,a2
    2644:	00000413          	li	s0,0
  unsigned int i;
  DBENCH_START();

  for(i = 0; i < N; ++i)
    2648:	40000a13          	li	s4,1024
    a1->coeffs[i] = decompose(&a0->coeffs[i], a->coeffs[i]);
    264c:	008487b3          	add	a5,s1,s0
    2650:	0007a583          	lw	a1,0(a5)
    2654:	00890533          	add	a0,s2,s0
    2658:	65d000ef          	jal	ra,34b4 <pqcrystals_dilithium3_ref_decompose>
    265c:	008987b3          	add	a5,s3,s0
    2660:	00a7a023          	sw	a0,0(a5)
  for(i = 0; i < N; ++i)
    2664:	00440413          	addi	s0,s0,4
    2668:	ff4412e3          	bne	s0,s4,264c <pqcrystals_dilithium3_ref_poly_decompose+0x30>

  DBENCH_STOP(*tround);
}
    266c:	01c12083          	lw	ra,28(sp)
    2670:	01812403          	lw	s0,24(sp)
    2674:	01412483          	lw	s1,20(sp)
    2678:	01012903          	lw	s2,16(sp)
    267c:	00c12983          	lw	s3,12(sp)
    2680:	00812a03          	lw	s4,8(sp)
    2684:	02010113          	addi	sp,sp,32
    2688:	00008067          	ret

0000268c <pqcrystals_dilithium3_ref_poly_make_hint>:
*              - const poly *a0: pointer to low part of input polynomial
*              - const poly *a1: pointer to high part of input polynomial
*
* Returns number of 1 bits.
**************************************************/
unsigned int poly_make_hint(poly *h, const poly *a0, const poly *a1) {
    268c:	fe010113          	addi	sp,sp,-32
    2690:	00812c23          	sw	s0,24(sp)
    2694:	00912a23          	sw	s1,20(sp)
    2698:	01212823          	sw	s2,16(sp)
    269c:	01312623          	sw	s3,12(sp)
    26a0:	01412423          	sw	s4,8(sp)
    26a4:	01512223          	sw	s5,4(sp)
    26a8:	00112e23          	sw	ra,28(sp)
    26ac:	00050a13          	mv	s4,a0
    26b0:	00058993          	mv	s3,a1
    26b4:	00060913          	mv	s2,a2
    26b8:	00000413          	li	s0,0
  unsigned int i, s = 0;
    26bc:	00000493          	li	s1,0
  DBENCH_START();

  for(i = 0; i < N; ++i) {
    26c0:	40000a93          	li	s5,1024
    h->coeffs[i] = make_hint(a0->coeffs[i], a1->coeffs[i]);
    26c4:	008987b3          	add	a5,s3,s0
    26c8:	00890733          	add	a4,s2,s0
    26cc:	0007a503          	lw	a0,0(a5)
    26d0:	00072583          	lw	a1,0(a4)
    26d4:	639000ef          	jal	ra,350c <pqcrystals_dilithium3_ref_make_hint>
    26d8:	008a07b3          	add	a5,s4,s0
    26dc:	00a7a023          	sw	a0,0(a5)
  for(i = 0; i < N; ++i) {
    26e0:	00440413          	addi	s0,s0,4
    s += h->coeffs[i];
    26e4:	00a484b3          	add	s1,s1,a0
  for(i = 0; i < N; ++i) {
    26e8:	fd541ee3          	bne	s0,s5,26c4 <pqcrystals_dilithium3_ref_poly_make_hint+0x38>
  }

  DBENCH_STOP(*tround);
  return s;
}
    26ec:	01c12083          	lw	ra,28(sp)
    26f0:	01812403          	lw	s0,24(sp)
    26f4:	01012903          	lw	s2,16(sp)
    26f8:	00c12983          	lw	s3,12(sp)
    26fc:	00812a03          	lw	s4,8(sp)
    2700:	00412a83          	lw	s5,4(sp)
    2704:	00048513          	mv	a0,s1
    2708:	01412483          	lw	s1,20(sp)
    270c:	02010113          	addi	sp,sp,32
    2710:	00008067          	ret

00002714 <pqcrystals_dilithium3_ref_poly_use_hint>:
*
* Arguments:   - poly *b: pointer to output polynomial with corrected high bits
*              - const poly *a: pointer to input polynomial
*              - const poly *h: pointer to input hint polynomial
**************************************************/
void poly_use_hint(poly *b, const poly *a, const poly *h) {
    2714:	fe010113          	addi	sp,sp,-32
    2718:	00812c23          	sw	s0,24(sp)
    271c:	00912a23          	sw	s1,20(sp)
    2720:	01212823          	sw	s2,16(sp)
    2724:	01312623          	sw	s3,12(sp)
    2728:	01412423          	sw	s4,8(sp)
    272c:	00112e23          	sw	ra,28(sp)
    2730:	00050993          	mv	s3,a0
    2734:	00058913          	mv	s2,a1
    2738:	00060493          	mv	s1,a2
    273c:	00000413          	li	s0,0
  unsigned int i;
  DBENCH_START();

  for(i = 0; i < N; ++i)
    2740:	40000a13          	li	s4,1024
    b->coeffs[i] = use_hint(a->coeffs[i], h->coeffs[i]);
    2744:	008907b3          	add	a5,s2,s0
    2748:	00848733          	add	a4,s1,s0
    274c:	0007a503          	lw	a0,0(a5)
    2750:	00072583          	lw	a1,0(a4)
    2754:	5f9000ef          	jal	ra,354c <pqcrystals_dilithium3_ref_use_hint>
    2758:	008987b3          	add	a5,s3,s0
    275c:	00a7a023          	sw	a0,0(a5)
  for(i = 0; i < N; ++i)
    2760:	00440413          	addi	s0,s0,4
    2764:	ff4410e3          	bne	s0,s4,2744 <pqcrystals_dilithium3_ref_poly_use_hint+0x30>

  DBENCH_STOP(*tround);
}
    2768:	01c12083          	lw	ra,28(sp)
    276c:	01812403          	lw	s0,24(sp)
    2770:	01412483          	lw	s1,20(sp)
    2774:	01012903          	lw	s2,16(sp)
    2778:	00c12983          	lw	s3,12(sp)
    277c:	00812a03          	lw	s4,8(sp)
    2780:	02010113          	addi	sp,sp,32
    2784:	00008067          	ret

00002788 <pqcrystals_dilithium3_ref_poly_chknorm>:
int poly_chknorm(const poly *a, int32_t B) {
  unsigned int i;
  int32_t t;
  DBENCH_START();

  if(B > (Q-1)/8)
    2788:	001007b7          	lui	a5,0x100
    278c:	c0078793          	addi	a5,a5,-1024 # ffc00 <_end_of_memory+0xcfc00>
    2790:	02b7c663          	blt	a5,a1,27bc <pqcrystals_dilithium3_ref_poly_chknorm+0x34>
    2794:	40050613          	addi	a2,a0,1024
    2798:	0080006f          	j	27a0 <pqcrystals_dilithium3_ref_poly_chknorm+0x18>
    return 1;

  /* It is ok to leak which coefficient violates the bound since
     the probability for each coefficient is independent of secret
     data but we must not leak the sign of the centralized representative. */
  for(i = 0; i < N; ++i) {
    279c:	02a60463          	beq	a2,a0,27c4 <pqcrystals_dilithium3_ref_poly_chknorm+0x3c>
    /* Absolute value */
    t = a->coeffs[i] >> 31;
    27a0:	00052783          	lw	a5,0(a0)
  for(i = 0; i < N; ++i) {
    27a4:	00450513          	addi	a0,a0,4
    t = a->coeffs[i] - (t & 2*a->coeffs[i]);
    27a8:	00179713          	slli	a4,a5,0x1
    t = a->coeffs[i] >> 31;
    27ac:	41f7d693          	srai	a3,a5,0x1f
    t = a->coeffs[i] - (t & 2*a->coeffs[i]);
    27b0:	00d77733          	and	a4,a4,a3
    27b4:	40e787b3          	sub	a5,a5,a4

    if(t >= B) {
    27b8:	feb7c2e3          	blt	a5,a1,279c <pqcrystals_dilithium3_ref_poly_chknorm+0x14>
    return 1;
    27bc:	00100513          	li	a0,1
    }
  }

  DBENCH_STOP(*tsample);
  return 0;
}
    27c0:	00008067          	ret
  return 0;
    27c4:	00000513          	li	a0,0
    27c8:	00008067          	ret

000027cc <pqcrystals_dilithium3_ref_poly_uniform>:
**************************************************/
#define POLY_UNIFORM_NBLOCKS ((768 + STREAM128_BLOCKBYTES - 1)/STREAM128_BLOCKBYTES)
void poly_uniform(poly *a,
                  const uint8_t seed[SEEDBYTES],
                  uint16_t nonce)
{
    27cc:	bb010113          	addi	sp,sp,-1104
    27d0:	43512a23          	sw	s5,1076(sp)
    27d4:	00050a93          	mv	s5,a0
  unsigned int i, ctr, off;
  unsigned int buflen = POLY_UNIFORM_NBLOCKS*STREAM128_BLOCKBYTES;
  uint8_t buf[POLY_UNIFORM_NBLOCKS*STREAM128_BLOCKBYTES + 2];
  stream128_state state;

  stream128_init(&state, seed, nonce);
    27d8:	00010513          	mv	a0,sp
{
    27dc:	44112623          	sw	ra,1100(sp)
    27e0:	44812423          	sw	s0,1096(sp)
    27e4:	43412c23          	sw	s4,1080(sp)
  stream128_squeezeblocks(buf, POLY_UNIFORM_NBLOCKS, &state);
    27e8:	0d410413          	addi	s0,sp,212
{
    27ec:	44912223          	sw	s1,1092(sp)
    27f0:	45212023          	sw	s2,1088(sp)
    27f4:	43312e23          	sw	s3,1084(sp)
    27f8:	43612823          	sw	s6,1072(sp)
    27fc:	43712623          	sw	s7,1068(sp)
    2800:	43812423          	sw	s8,1064(sp)
    2804:	43912223          	sw	s9,1060(sp)
  stream128_init(&state, seed, nonce);
    2808:	0d5040ef          	jal	ra,70dc <pqcrystals_dilithium3_ref_dilithium_shake128_stream_init>
  stream128_squeezeblocks(buf, POLY_UNIFORM_NBLOCKS, &state);
    280c:	00500593          	li	a1,5
    2810:	00040513          	mv	a0,s0
    2814:	00010613          	mv	a2,sp
    2818:	39d030ef          	jal	ra,63b4 <pqcrystals_dilithium_fips202_ref_shake128_squeezeblocks>
    t &= 0x7FFFFF;
    281c:	008005b7          	lui	a1,0x800
    2820:	41c10813          	addi	a6,sp,1052

  ctr = rej_uniform(a->coeffs, N, buf, buflen);
    2824:	00040713          	mv	a4,s0
  ctr = pos = 0;
    2828:	00000a13          	li	s4,0
    t &= 0x7FFFFF;
    282c:	fff58593          	addi	a1,a1,-1 # 7fffff <_end_of_memory+0x7cffff>
    if(t < Q)
    2830:	007fe537          	lui	a0,0x7fe
  while(ctr < len && pos + 3 <= buflen) {
    2834:	10000893          	li	a7,256
    t |= (uint32_t)buf[pos++] << 8;
    2838:	00174783          	lbu	a5,1(a4)
    t |= (uint32_t)buf[pos++] << 16;
    283c:	00274683          	lbu	a3,2(a4)
    t  = buf[pos++];
    2840:	00074603          	lbu	a2,0(a4)
    t |= (uint32_t)buf[pos++] << 8;
    2844:	00879793          	slli	a5,a5,0x8
    t |= (uint32_t)buf[pos++] << 16;
    2848:	01069693          	slli	a3,a3,0x10
    284c:	00d7e7b3          	or	a5,a5,a3
    2850:	00c7e7b3          	or	a5,a5,a2
      a[ctr++] = t;
    2854:	002a1693          	slli	a3,s4,0x2
    t &= 0x7FFFFF;
    2858:	00b7f7b3          	and	a5,a5,a1
      a[ctr++] = t;
    285c:	00da86b3          	add	a3,s5,a3
  while(ctr < len && pos + 3 <= buflen) {
    2860:	00370713          	addi	a4,a4,3
      a[ctr++] = t;
    2864:	001a0613          	addi	a2,s4,1
    if(t < Q)
    2868:	00f56863          	bltu	a0,a5,2878 <pqcrystals_dilithium3_ref_poly_uniform+0xac>
      a[ctr++] = t;
    286c:	00f6a023          	sw	a5,0(a3)
  while(ctr < len && pos + 3 <= buflen) {
    2870:	0d160463          	beq	a2,a7,2938 <pqcrystals_dilithium3_ref_poly_uniform+0x16c>
      a[ctr++] = t;
    2874:	00060a13          	mv	s4,a2
  while(ctr < len && pos + 3 <= buflen) {
    2878:	fce810e3          	bne	a6,a4,2838 <pqcrystals_dilithium3_ref_poly_uniform+0x6c>

  while(ctr < N) {
    off = buflen % 3;
    287c:	00300493          	li	s1,3
    t &= 0x7FFFFF;
    2880:	00800bb7          	lui	s7,0x800
    2884:	34800513          	li	a0,840
    for(i = 0; i < off; ++i)
      buf[i] = buf[buflen - off + i];

    stream128_squeezeblocks(buf + off, 1, &state);
    buflen = STREAM128_BLOCKBYTES + off;
    ctr += rej_uniform(a->coeffs + ctr, N - ctr, buf, buflen);
    2888:	10000913          	li	s2,256
    for(i = 0; i < off; ++i)
    288c:	00200993          	li	s3,2
    t &= 0x7FFFFF;
    2890:	fffb8b93          	addi	s7,s7,-1 # 7fffff <_end_of_memory+0x7cffff>
  while(ctr < len && pos + 3 <= buflen) {
    2894:	40848c33          	sub	s8,s1,s0
    off = buflen % 3;
    2898:	02957cb3          	remu	s9,a0,s1
    ctr += rej_uniform(a->coeffs + ctr, N - ctr, buf, buflen);
    289c:	41490b33          	sub	s6,s2,s4
    for(i = 0; i < off; ++i)
    28a0:	0c0c8663          	beqz	s9,296c <pqcrystals_dilithium3_ref_poly_uniform+0x1a0>
      buf[i] = buf[buflen - off + i];
    28a4:	41950533          	sub	a0,a0,s9
    28a8:	42050793          	addi	a5,a0,1056 # 7fe420 <_end_of_memory+0x7ce420>
    28ac:	00278533          	add	a0,a5,sp
    28b0:	cb454783          	lbu	a5,-844(a0)
    28b4:	0cf10a23          	sb	a5,212(sp)
    for(i = 0; i < off; ++i)
    28b8:	013c9663          	bne	s9,s3,28c4 <pqcrystals_dilithium3_ref_poly_uniform+0xf8>
      buf[i] = buf[buflen - off + i];
    28bc:	cb554783          	lbu	a5,-843(a0)
    28c0:	0cf10aa3          	sb	a5,213(sp)
    stream128_squeezeblocks(buf + off, 1, &state);
    28c4:	01940533          	add	a0,s0,s9
    28c8:	00010613          	mv	a2,sp
    28cc:	00100593          	li	a1,1
    28d0:	2e5030ef          	jal	ra,63b4 <pqcrystals_dilithium_fips202_ref_shake128_squeezeblocks>
    buflen = STREAM128_BLOCKBYTES + off;
    28d4:	0a8c8513          	addi	a0,s9,168
    28d8:	00040693          	mv	a3,s0
  ctr = pos = 0;
    28dc:	00000613          	li	a2,0
    if(t < Q)
    28e0:	007fe837          	lui	a6,0x7fe
    t |= (uint32_t)buf[pos++] << 8;
    28e4:	0016c783          	lbu	a5,1(a3)
    t |= (uint32_t)buf[pos++] << 16;
    28e8:	0026c703          	lbu	a4,2(a3)
    t  = buf[pos++];
    28ec:	0006c583          	lbu	a1,0(a3)
    t |= (uint32_t)buf[pos++] << 8;
    28f0:	00879793          	slli	a5,a5,0x8
    t |= (uint32_t)buf[pos++] << 16;
    28f4:	01071713          	slli	a4,a4,0x10
    28f8:	00e7e7b3          	or	a5,a5,a4
    28fc:	00b7e7b3          	or	a5,a5,a1
      a[ctr++] = t;
    2900:	00ca0733          	add	a4,s4,a2
  while(ctr < len && pos + 3 <= buflen) {
    2904:	00368693          	addi	a3,a3,3
      a[ctr++] = t;
    2908:	00271713          	slli	a4,a4,0x2
    t &= 0x7FFFFF;
    290c:	0177f7b3          	and	a5,a5,s7
  while(ctr < len && pos + 3 <= buflen) {
    2910:	00dc05b3          	add	a1,s8,a3
      a[ctr++] = t;
    2914:	00ea8733          	add	a4,s5,a4
    if(t < Q)
    2918:	00f86663          	bltu	a6,a5,2924 <pqcrystals_dilithium3_ref_poly_uniform+0x158>
      a[ctr++] = t;
    291c:	00f72023          	sw	a5,0(a4)
    2920:	00160613          	addi	a2,a2,1
  while(ctr < len && pos + 3 <= buflen) {
    2924:	01667463          	bgeu	a2,s6,292c <pqcrystals_dilithium3_ref_poly_uniform+0x160>
    2928:	fab57ee3          	bgeu	a0,a1,28e4 <pqcrystals_dilithium3_ref_poly_uniform+0x118>
    ctr += rej_uniform(a->coeffs + ctr, N - ctr, buf, buflen);
    292c:	00ca0a33          	add	s4,s4,a2
  while(ctr < N) {
    2930:	0ff00793          	li	a5,255
    2934:	f747f2e3          	bgeu	a5,s4,2898 <pqcrystals_dilithium3_ref_poly_uniform+0xcc>
  }
}
    2938:	44c12083          	lw	ra,1100(sp)
    293c:	44812403          	lw	s0,1096(sp)
    2940:	44412483          	lw	s1,1092(sp)
    2944:	44012903          	lw	s2,1088(sp)
    2948:	43c12983          	lw	s3,1084(sp)
    294c:	43812a03          	lw	s4,1080(sp)
    2950:	43412a83          	lw	s5,1076(sp)
    2954:	43012b03          	lw	s6,1072(sp)
    2958:	42c12b83          	lw	s7,1068(sp)
    295c:	42812c03          	lw	s8,1064(sp)
    2960:	42412c83          	lw	s9,1060(sp)
    2964:	45010113          	addi	sp,sp,1104
    2968:	00008067          	ret
    stream128_squeezeblocks(buf + off, 1, &state);
    296c:	00040513          	mv	a0,s0
    2970:	00010613          	mv	a2,sp
    2974:	00100593          	li	a1,1
    2978:	23d030ef          	jal	ra,63b4 <pqcrystals_dilithium_fips202_ref_shake128_squeezeblocks>
    buflen = STREAM128_BLOCKBYTES + off;
    297c:	0a800513          	li	a0,168
    2980:	f59ff06f          	j	28d8 <pqcrystals_dilithium3_ref_poly_uniform+0x10c>

00002984 <pqcrystals_dilithium3_ref_poly_uniform_eta>:
#define POLY_UNIFORM_ETA_NBLOCKS ((227 + STREAM256_BLOCKBYTES - 1)/STREAM256_BLOCKBYTES)
#endif
void poly_uniform_eta(poly *a,
                      const uint8_t seed[CRHBYTES],
                      uint16_t nonce)
{
    2984:	e0010113          	addi	sp,sp,-512
    2988:	1f612023          	sw	s6,480(sp)
    298c:	00050b13          	mv	s6,a0
  unsigned int ctr;
  unsigned int buflen = POLY_UNIFORM_ETA_NBLOCKS*STREAM256_BLOCKBYTES;
  uint8_t buf[POLY_UNIFORM_ETA_NBLOCKS*STREAM256_BLOCKBYTES];
  stream256_state state;

  stream256_init(&state, seed, nonce);
    2990:	00010513          	mv	a0,sp
{
    2994:	1e112e23          	sw	ra,508(sp)
    2998:	1f412423          	sw	s4,488(sp)
    299c:	1e812c23          	sw	s0,504(sp)
    29a0:	1e912a23          	sw	s1,500(sp)
    29a4:	1f212823          	sw	s2,496(sp)
    29a8:	1f312623          	sw	s3,492(sp)
    29ac:	1f512223          	sw	s5,484(sp)
  stream256_init(&state, seed, nonce);
    29b0:	788040ef          	jal	ra,7138 <pqcrystals_dilithium3_ref_dilithium_shake256_stream_init>
  stream256_squeezeblocks(buf, POLY_UNIFORM_ETA_NBLOCKS, &state);
    29b4:	00200593          	li	a1,2
    29b8:	00010613          	mv	a2,sp
    29bc:	0d010513          	addi	a0,sp,208
    29c0:	4e9030ef          	jal	ra,66a8 <pqcrystals_dilithium_fips202_ref_shake256_squeezeblocks>
  while(ctr < len && pos < buflen) {
    29c4:	1e010893          	addi	a7,sp,480

  ctr = rej_eta(a->coeffs, N, buf, buflen);
    29c8:	0d010713          	addi	a4,sp,208
  ctr = pos = 0;
    29cc:	00000a13          	li	s4,0
    if(t0 < 9)
    29d0:	00800593          	li	a1,8
  while(ctr < len && pos < buflen) {
    29d4:	10000313          	li	t1,256
      a[ctr++] = 4 - t1;
    29d8:	00400813          	li	a6,4
    t0 = buf[pos] & 0x0F;
    29dc:	00074783          	lbu	a5,0(a4)
      a[ctr++] = 4 - t0;
    29e0:	002a1693          	slli	a3,s4,0x2
    29e4:	00db06b3          	add	a3,s6,a3
    29e8:	00f7f613          	andi	a2,a5,15
    29ec:	40c80533          	sub	a0,a6,a2
    t1 = buf[pos++] >> 4;
    29f0:	0047d793          	srli	a5,a5,0x4
    if(t0 < 9)
    29f4:	0ac5f463          	bgeu	a1,a2,2a9c <pqcrystals_dilithium3_ref_poly_uniform_eta+0x118>
    if(t1 < 9 && ctr < len)
    29f8:	00f5ee63          	bltu	a1,a5,2a14 <pqcrystals_dilithium3_ref_poly_uniform_eta+0x90>
      a[ctr++] = 4 - t1;
    29fc:	002a1693          	slli	a3,s4,0x2
    2a00:	00db06b3          	add	a3,s6,a3
    2a04:	40f807b3          	sub	a5,a6,a5
    2a08:	00f6a023          	sw	a5,0(a3)
    2a0c:	001a0a13          	addi	s4,s4,1
  while(ctr < len && pos < buflen) {
    2a10:	086a0e63          	beq	s4,t1,2aac <pqcrystals_dilithium3_ref_poly_uniform_eta+0x128>
    2a14:	00170713          	addi	a4,a4,1
    2a18:	fce892e3          	bne	a7,a4,29dc <pqcrystals_dilithium3_ref_poly_uniform_eta+0x58>
    2a1c:	15810a93          	addi	s5,sp,344

  while(ctr < N) {
    stream256_squeezeblocks(buf, 1, &state);
    ctr += rej_eta(a->coeffs + ctr, N - ctr, buf, STREAM256_BLOCKBYTES);
    2a20:	10000913          	li	s2,256
    if(t0 < 9)
    2a24:	00800413          	li	s0,8
      a[ctr++] = 4 - t0;
    2a28:	00400993          	li	s3,4
  while(ctr < N) {
    2a2c:	0ff00493          	li	s1,255
    stream256_squeezeblocks(buf, 1, &state);
    2a30:	00010613          	mv	a2,sp
    2a34:	00100593          	li	a1,1
    2a38:	0d010513          	addi	a0,sp,208
    2a3c:	46d030ef          	jal	ra,66a8 <pqcrystals_dilithium_fips202_ref_shake256_squeezeblocks>
    ctr += rej_eta(a->coeffs + ctr, N - ctr, buf, STREAM256_BLOCKBYTES);
    2a40:	002a1813          	slli	a6,s4,0x2
    2a44:	010b0833          	add	a6,s6,a6
    2a48:	414908b3          	sub	a7,s2,s4
    2a4c:	0d010613          	addi	a2,sp,208
  ctr = pos = 0;
    2a50:	00000693          	li	a3,0
    t0 = buf[pos] & 0x0F;
    2a54:	00064783          	lbu	a5,0(a2)
      a[ctr++] = 4 - t0;
    2a58:	00269713          	slli	a4,a3,0x2
  while(ctr < len && pos < buflen) {
    2a5c:	00160613          	addi	a2,a2,1
    2a60:	00f7f593          	andi	a1,a5,15
      a[ctr++] = 4 - t0;
    2a64:	00e80733          	add	a4,a6,a4
    2a68:	40b98333          	sub	t1,s3,a1
    t1 = buf[pos++] >> 4;
    2a6c:	0047d793          	srli	a5,a5,0x4
    if(t0 < 9)
    2a70:	00b46663          	bltu	s0,a1,2a7c <pqcrystals_dilithium3_ref_poly_uniform_eta+0xf8>
      a[ctr++] = 4 - t0;
    2a74:	00672023          	sw	t1,0(a4)
    2a78:	00168693          	addi	a3,a3,1
    if(t1 < 9 && ctr < len)
    2a7c:	06f46063          	bltu	s0,a5,2adc <pqcrystals_dilithium3_ref_poly_uniform_eta+0x158>
      a[ctr++] = 4 - t1;
    2a80:	00269713          	slli	a4,a3,0x2
    2a84:	00e80733          	add	a4,a6,a4
    2a88:	40f987b3          	sub	a5,s3,a5
    if(t1 < 9 && ctr < len)
    2a8c:	0516e463          	bltu	a3,a7,2ad4 <pqcrystals_dilithium3_ref_poly_uniform_eta+0x150>
    ctr += rej_eta(a->coeffs + ctr, N - ctr, buf, STREAM256_BLOCKBYTES);
    2a90:	00da0a33          	add	s4,s4,a3
  while(ctr < N) {
    2a94:	f944fee3          	bgeu	s1,s4,2a30 <pqcrystals_dilithium3_ref_poly_uniform_eta+0xac>
    2a98:	0140006f          	j	2aac <pqcrystals_dilithium3_ref_poly_uniform_eta+0x128>
      a[ctr++] = 4 - t0;
    2a9c:	00a6a023          	sw	a0,0(a3)
    2aa0:	001a0a13          	addi	s4,s4,1
    if(t1 < 9 && ctr < len)
    2aa4:	f6f5e6e3          	bltu	a1,a5,2a10 <pqcrystals_dilithium3_ref_poly_uniform_eta+0x8c>
    2aa8:	f46a1ae3          	bne	s4,t1,29fc <pqcrystals_dilithium3_ref_poly_uniform_eta+0x78>
  }
}
    2aac:	1fc12083          	lw	ra,508(sp)
    2ab0:	1f812403          	lw	s0,504(sp)
    2ab4:	1f412483          	lw	s1,500(sp)
    2ab8:	1f012903          	lw	s2,496(sp)
    2abc:	1ec12983          	lw	s3,492(sp)
    2ac0:	1e812a03          	lw	s4,488(sp)
    2ac4:	1e412a83          	lw	s5,484(sp)
    2ac8:	1e012b03          	lw	s6,480(sp)
    2acc:	20010113          	addi	sp,sp,512
    2ad0:	00008067          	ret
      a[ctr++] = 4 - t1;
    2ad4:	00f72023          	sw	a5,0(a4)
    2ad8:	00168693          	addi	a3,a3,1
  while(ctr < len && pos < buflen) {
    2adc:	fb16fae3          	bgeu	a3,a7,2a90 <pqcrystals_dilithium3_ref_poly_uniform_eta+0x10c>
    2ae0:	f6ca9ae3          	bne	s5,a2,2a54 <pqcrystals_dilithium3_ref_poly_uniform_eta+0xd0>
    2ae4:	fadff06f          	j	2a90 <pqcrystals_dilithium3_ref_poly_uniform_eta+0x10c>

00002ae8 <pqcrystals_dilithium3_ref_poly_challenge>:
*              SHAKE256(seed).
*
* Arguments:   - poly *c: pointer to output polynomial
*              - const uint8_t mu[]: byte array containing seed of length SEEDBYTES
**************************************************/
void poly_challenge(poly *c, const uint8_t seed[SEEDBYTES]) {
    2ae8:	e8010113          	addi	sp,sp,-384
    2aec:	17412423          	sw	s4,360(sp)
    2af0:	00050a13          	mv	s4,a0
  unsigned int i, b, pos;
  uint64_t signs;
  uint8_t buf[SHAKE256_RATE];
  keccak_state state;

  shake256_init(&state);
    2af4:	09010513          	addi	a0,sp,144
void poly_challenge(poly *c, const uint8_t seed[SEEDBYTES]) {
    2af8:	16112e23          	sw	ra,380(sp)
    2afc:	16812c23          	sw	s0,376(sp)
    2b00:	16912a23          	sw	s1,372(sp)
    2b04:	00058413          	mv	s0,a1
    2b08:	17212823          	sw	s2,368(sp)
    2b0c:	17312623          	sw	s3,364(sp)
    2b10:	17512223          	sw	s5,356(sp)
    2b14:	17612023          	sw	s6,352(sp)
  shake256_init(&state);
    2b18:	169030ef          	jal	ra,6480 <pqcrystals_dilithium_fips202_ref_shake256_init>
  shake256_absorb(&state, seed, SEEDBYTES);
    2b1c:	00040593          	mv	a1,s0
    2b20:	02000613          	li	a2,32
    2b24:	09010513          	addi	a0,sp,144
    2b28:	189030ef          	jal	ra,64b0 <pqcrystals_dilithium_fips202_ref_shake256_absorb>
  shake256_finalize(&state);
    2b2c:	09010513          	addi	a0,sp,144
    2b30:	1b9030ef          	jal	ra,64e8 <pqcrystals_dilithium_fips202_ref_shake256_finalize>
  shake256_squeezeblocks(buf, 1, &state);
    2b34:	09010613          	addi	a2,sp,144
    2b38:	00100593          	li	a1,1
    2b3c:	00810513          	addi	a0,sp,8
    2b40:	369030ef          	jal	ra,66a8 <pqcrystals_dilithium_fips202_ref_shake256_squeezeblocks>

  signs = 0;
  for(i = 0; i < 8; ++i)
    signs |= (uint64_t)buf[i] << 8*i;
    2b44:	00a14783          	lbu	a5,10(sp)
    2b48:	00914603          	lbu	a2,9(sp)
    2b4c:	00d14683          	lbu	a3,13(sp)
    2b50:	00c14503          	lbu	a0,12(sp)
    2b54:	00e14703          	lbu	a4,14(sp)
    2b58:	00814583          	lbu	a1,8(sp)
    2b5c:	00b14483          	lbu	s1,11(sp)
    2b60:	00f14903          	lbu	s2,15(sp)
    2b64:	00861613          	slli	a2,a2,0x8
    2b68:	01079793          	slli	a5,a5,0x10
    2b6c:	00869693          	slli	a3,a3,0x8
    2b70:	00a6e6b3          	or	a3,a3,a0
    2b74:	00c7e7b3          	or	a5,a5,a2
    2b78:	01071713          	slli	a4,a4,0x10
    2b7c:	00b7e7b3          	or	a5,a5,a1
    2b80:	00d76733          	or	a4,a4,a3
    2b84:	01849493          	slli	s1,s1,0x18
    2b88:	01891913          	slli	s2,s2,0x18
  pos = 8;

  for(i = 0; i < N; ++i)
    c->coeffs[i] = 0;
    2b8c:	40000613          	li	a2,1024
    2b90:	00000593          	li	a1,0
    2b94:	000a0513          	mv	a0,s4
    signs |= (uint64_t)buf[i] << 8*i;
    2b98:	00f4e4b3          	or	s1,s1,a5
    2b9c:	00e96933          	or	s2,s2,a4
    c->coeffs[i] = 0;
    2ba0:	3bc050ef          	jal	ra,7f5c <memset>
    2ba4:	33ca0993          	addi	s3,s4,828
  for(i = N-TAU; i < N; ++i) {
    2ba8:	0cf00413          	li	s0,207
  pos = 8;
    2bac:	00800793          	li	a5,8
    do {
      if(pos >= SHAKE256_RATE) {
    2bb0:	08800b13          	li	s6,136
  for(i = N-TAU; i < N; ++i) {
    2bb4:	10000a93          	li	s5,256
      if(pos >= SHAKE256_RATE) {
    2bb8:	09678063          	beq	a5,s6,2c38 <pqcrystals_dilithium3_ref_poly_challenge+0x150>
        shake256_squeezeblocks(buf, 1, &state);
        pos = 0;
      }

      b = buf[pos++];
    2bbc:	16078713          	addi	a4,a5,352
    2bc0:	00270733          	add	a4,a4,sp
    2bc4:	ea874703          	lbu	a4,-344(a4)
    2bc8:	00178793          	addi	a5,a5,1
    } while(b > i);
    2bcc:	fee466e3          	bltu	s0,a4,2bb8 <pqcrystals_dilithium3_ref_poly_challenge+0xd0>

    c->coeffs[i] = c->coeffs[b];
    2bd0:	00271713          	slli	a4,a4,0x2
    2bd4:	00ea0733          	add	a4,s4,a4
    2bd8:	00072683          	lw	a3,0(a4)
    c->coeffs[b] = 1 - 2*(signs & 1);
    2bdc:	0014f613          	andi	a2,s1,1
    2be0:	00161613          	slli	a2,a2,0x1
    c->coeffs[i] = c->coeffs[b];
    2be4:	00d9a023          	sw	a3,0(s3)
    c->coeffs[b] = 1 - 2*(signs & 1);
    2be8:	00100693          	li	a3,1
    2bec:	40c686b3          	sub	a3,a3,a2
    signs >>= 1;
    2bf0:	0014d493          	srli	s1,s1,0x1
    2bf4:	01f91613          	slli	a2,s2,0x1f
    c->coeffs[b] = 1 - 2*(signs & 1);
    2bf8:	00d72023          	sw	a3,0(a4)
  for(i = N-TAU; i < N; ++i) {
    2bfc:	00140413          	addi	s0,s0,1
    signs >>= 1;
    2c00:	009664b3          	or	s1,a2,s1
    2c04:	00195913          	srli	s2,s2,0x1
  for(i = N-TAU; i < N; ++i) {
    2c08:	00498993          	addi	s3,s3,4
    2c0c:	fb5416e3          	bne	s0,s5,2bb8 <pqcrystals_dilithium3_ref_poly_challenge+0xd0>
  }
}
    2c10:	17c12083          	lw	ra,380(sp)
    2c14:	17812403          	lw	s0,376(sp)
    2c18:	17412483          	lw	s1,372(sp)
    2c1c:	17012903          	lw	s2,368(sp)
    2c20:	16c12983          	lw	s3,364(sp)
    2c24:	16812a03          	lw	s4,360(sp)
    2c28:	16412a83          	lw	s5,356(sp)
    2c2c:	16012b03          	lw	s6,352(sp)
    2c30:	18010113          	addi	sp,sp,384
    2c34:	00008067          	ret
        shake256_squeezeblocks(buf, 1, &state);
    2c38:	09010613          	addi	a2,sp,144
    2c3c:	00100593          	li	a1,1
    2c40:	00810513          	addi	a0,sp,8
    2c44:	265030ef          	jal	ra,66a8 <pqcrystals_dilithium_fips202_ref_shake256_squeezeblocks>
      b = buf[pos++];
    2c48:	00814703          	lbu	a4,8(sp)
    } while(b > i);
    2c4c:	00100793          	li	a5,1
    2c50:	f6e466e3          	bltu	s0,a4,2bbc <pqcrystals_dilithium3_ref_poly_challenge+0xd4>
    2c54:	f7dff06f          	j	2bd0 <pqcrystals_dilithium3_ref_poly_challenge+0xe8>

00002c58 <pqcrystals_dilithium3_ref_polyeta_pack>:
    r[3*i+0]  = (t[0] >> 0) | (t[1] << 3) | (t[2] << 6);
    r[3*i+1]  = (t[2] >> 2) | (t[3] << 1) | (t[4] << 4) | (t[5] << 7);
    r[3*i+2]  = (t[5] >> 1) | (t[6] << 2) | (t[7] << 5);
  }
#elif ETA == 4
  for(i = 0; i < N/2; ++i) {
    2c58:	40058613          	addi	a2,a1,1024
    t[0] = ETA - a->coeffs[2*i+0];
    t[1] = ETA - a->coeffs[2*i+1];
    2c5c:	00400693          	li	a3,4
    2c60:	0045a783          	lw	a5,4(a1)
    t[0] = ETA - a->coeffs[2*i+0];
    2c64:	0005a703          	lw	a4,0(a1)
  for(i = 0; i < N/2; ++i) {
    2c68:	00858593          	addi	a1,a1,8
    t[1] = ETA - a->coeffs[2*i+1];
    2c6c:	40f687b3          	sub	a5,a3,a5
    r[i] = t[0] | (t[1] << 4);
    2c70:	0ff7f793          	zext.b	a5,a5
    2c74:	00479793          	slli	a5,a5,0x4
    t[0] = ETA - a->coeffs[2*i+0];
    2c78:	40e68733          	sub	a4,a3,a4
    r[i] = t[0] | (t[1] << 4);
    2c7c:	00e7e7b3          	or	a5,a5,a4
    2c80:	00f50023          	sb	a5,0(a0)
  for(i = 0; i < N/2; ++i) {
    2c84:	00150513          	addi	a0,a0,1
    2c88:	fcb61ce3          	bne	a2,a1,2c60 <pqcrystals_dilithium3_ref_polyeta_pack+0x8>
  }
#endif

  DBENCH_STOP(*tpack);
}
    2c8c:	00008067          	ret

00002c90 <pqcrystals_dilithium3_ref_polyeta_unpack>:
    r->coeffs[8*i+5] = ETA - r->coeffs[8*i+5];
    r->coeffs[8*i+6] = ETA - r->coeffs[8*i+6];
    r->coeffs[8*i+7] = ETA - r->coeffs[8*i+7];
  }
#elif ETA == 4
  for(i = 0; i < N/2; ++i) {
    2c90:	40050613          	addi	a2,a0,1024
    r->coeffs[2*i+0] = a[i] & 0x0F;
    r->coeffs[2*i+1] = a[i] >> 4;
    r->coeffs[2*i+0] = ETA - r->coeffs[2*i+0];
    2c94:	00400693          	li	a3,4
    r->coeffs[2*i+0] = a[i] & 0x0F;
    2c98:	0005c783          	lbu	a5,0(a1)
  for(i = 0; i < N/2; ++i) {
    2c9c:	00850513          	addi	a0,a0,8
    2ca0:	00158593          	addi	a1,a1,1
    r->coeffs[2*i+0] = a[i] & 0x0F;
    2ca4:	00f7f793          	andi	a5,a5,15
    2ca8:	fef52c23          	sw	a5,-8(a0)
    r->coeffs[2*i+1] = a[i] >> 4;
    2cac:	fff5c703          	lbu	a4,-1(a1)
    r->coeffs[2*i+0] = ETA - r->coeffs[2*i+0];
    2cb0:	40f687b3          	sub	a5,a3,a5
    2cb4:	fef52c23          	sw	a5,-8(a0)
    r->coeffs[2*i+1] = a[i] >> 4;
    2cb8:	00475793          	srli	a5,a4,0x4
    r->coeffs[2*i+1] = ETA - r->coeffs[2*i+1];
    2cbc:	40f687b3          	sub	a5,a3,a5
    2cc0:	fef52e23          	sw	a5,-4(a0)
  for(i = 0; i < N/2; ++i) {
    2cc4:	fcc51ae3          	bne	a0,a2,2c98 <pqcrystals_dilithium3_ref_polyeta_unpack+0x8>
  }
#endif

  DBENCH_STOP(*tpack);
}
    2cc8:	00008067          	ret

00002ccc <pqcrystals_dilithium3_ref_polyt1_pack>:
**************************************************/
void polyt1_pack(uint8_t *r, const poly *a) {
  unsigned int i;
  DBENCH_START();

  for(i = 0; i < N/4; ++i) {
    2ccc:	40058693          	addi	a3,a1,1024
    r[5*i+0] = (a->coeffs[4*i+0] >> 0);
    2cd0:	0005a783          	lw	a5,0(a1)
  for(i = 0; i < N/4; ++i) {
    2cd4:	01058593          	addi	a1,a1,16
    2cd8:	00550513          	addi	a0,a0,5
    r[5*i+0] = (a->coeffs[4*i+0] >> 0);
    2cdc:	fef50da3          	sb	a5,-5(a0)
    r[5*i+1] = (a->coeffs[4*i+0] >> 8) | (a->coeffs[4*i+1] << 2);
    2ce0:	ff05a783          	lw	a5,-16(a1)
    2ce4:	ff45a703          	lw	a4,-12(a1)
    2ce8:	4087d793          	srai	a5,a5,0x8
    2cec:	00271713          	slli	a4,a4,0x2
    2cf0:	00e7e7b3          	or	a5,a5,a4
    2cf4:	fef50e23          	sb	a5,-4(a0)
    r[5*i+2] = (a->coeffs[4*i+1] >> 6) | (a->coeffs[4*i+2] << 4);
    2cf8:	ff45a783          	lw	a5,-12(a1)
    2cfc:	ff85a703          	lw	a4,-8(a1)
    2d00:	4067d793          	srai	a5,a5,0x6
    2d04:	00471713          	slli	a4,a4,0x4
    2d08:	00e7e7b3          	or	a5,a5,a4
    2d0c:	fef50ea3          	sb	a5,-3(a0)
    r[5*i+3] = (a->coeffs[4*i+2] >> 4) | (a->coeffs[4*i+3] << 6);
    2d10:	ff85a783          	lw	a5,-8(a1)
    2d14:	ffc5a703          	lw	a4,-4(a1)
    2d18:	4047d793          	srai	a5,a5,0x4
    2d1c:	00671713          	slli	a4,a4,0x6
    2d20:	00e7e7b3          	or	a5,a5,a4
    2d24:	fef50f23          	sb	a5,-2(a0)
    r[5*i+4] = (a->coeffs[4*i+3] >> 2);
    2d28:	ffc5a783          	lw	a5,-4(a1)
    2d2c:	4027d793          	srai	a5,a5,0x2
    2d30:	fef50fa3          	sb	a5,-1(a0)
  for(i = 0; i < N/4; ++i) {
    2d34:	f8d59ee3          	bne	a1,a3,2cd0 <pqcrystals_dilithium3_ref_polyt1_pack+0x4>
  }

  DBENCH_STOP(*tpack);
}
    2d38:	00008067          	ret

00002d3c <pqcrystals_dilithium3_ref_polyt1_unpack>:
**************************************************/
void polyt1_unpack(poly *r, const uint8_t *a) {
  unsigned int i;
  DBENCH_START();

  for(i = 0; i < N/4; ++i) {
    2d3c:	14058693          	addi	a3,a1,320
    r->coeffs[4*i+0] = ((a[5*i+0] >> 0) | ((uint32_t)a[5*i+1] << 8)) & 0x3FF;
    2d40:	0015c783          	lbu	a5,1(a1)
    2d44:	0005c703          	lbu	a4,0(a1)
  for(i = 0; i < N/4; ++i) {
    2d48:	00558593          	addi	a1,a1,5
    r->coeffs[4*i+0] = ((a[5*i+0] >> 0) | ((uint32_t)a[5*i+1] << 8)) & 0x3FF;
    2d4c:	00879793          	slli	a5,a5,0x8
    2d50:	00e7e7b3          	or	a5,a5,a4
    2d54:	3ff7f793          	andi	a5,a5,1023
    2d58:	00f52023          	sw	a5,0(a0)
    r->coeffs[4*i+1] = ((a[5*i+1] >> 2) | ((uint32_t)a[5*i+2] << 6)) & 0x3FF;
    2d5c:	ffc5c783          	lbu	a5,-4(a1)
    2d60:	ffd5c703          	lbu	a4,-3(a1)
  for(i = 0; i < N/4; ++i) {
    2d64:	01050513          	addi	a0,a0,16
    r->coeffs[4*i+1] = ((a[5*i+1] >> 2) | ((uint32_t)a[5*i+2] << 6)) & 0x3FF;
    2d68:	0027d793          	srli	a5,a5,0x2
    2d6c:	00671713          	slli	a4,a4,0x6
    2d70:	00e7e7b3          	or	a5,a5,a4
    2d74:	3ff7f793          	andi	a5,a5,1023
    2d78:	fef52a23          	sw	a5,-12(a0)
    r->coeffs[4*i+2] = ((a[5*i+2] >> 4) | ((uint32_t)a[5*i+3] << 4)) & 0x3FF;
    2d7c:	ffd5c783          	lbu	a5,-3(a1)
    2d80:	ffe5c703          	lbu	a4,-2(a1)
    2d84:	0047d793          	srli	a5,a5,0x4
    2d88:	00471713          	slli	a4,a4,0x4
    2d8c:	00e7e7b3          	or	a5,a5,a4
    2d90:	3ff7f793          	andi	a5,a5,1023
    2d94:	fef52c23          	sw	a5,-8(a0)
    r->coeffs[4*i+3] = ((a[5*i+3] >> 6) | ((uint32_t)a[5*i+4] << 2)) & 0x3FF;
    2d98:	ffe5c783          	lbu	a5,-2(a1)
    2d9c:	fff5c703          	lbu	a4,-1(a1)
    2da0:	0067d793          	srli	a5,a5,0x6
    2da4:	00271713          	slli	a4,a4,0x2
    2da8:	00e7e7b3          	or	a5,a5,a4
    2dac:	fef52e23          	sw	a5,-4(a0)
  for(i = 0; i < N/4; ++i) {
    2db0:	f8b698e3          	bne	a3,a1,2d40 <pqcrystals_dilithium3_ref_polyt1_unpack+0x4>
  }

  DBENCH_STOP(*tpack);
}
    2db4:	00008067          	ret

00002db8 <pqcrystals_dilithium3_ref_polyt0_pack>:
*
* Arguments:   - uint8_t *r: pointer to output byte array with at least
*                            POLYT0_PACKEDBYTES bytes
*              - const poly *a: pointer to input polynomial
**************************************************/
void polyt0_pack(uint8_t *r, const poly *a) {
    2db8:	fd010113          	addi	sp,sp,-48
    2dbc:	02812623          	sw	s0,44(sp)
    2dc0:	02912423          	sw	s1,40(sp)
    2dc4:	03212223          	sw	s2,36(sp)
    2dc8:	03312023          	sw	s3,32(sp)
    2dcc:	01412e23          	sw	s4,28(sp)
    2dd0:	01512c23          	sw	s5,24(sp)
    2dd4:	01612a23          	sw	s6,20(sp)
    2dd8:	01712823          	sw	s7,16(sp)
    2ddc:	01812623          	sw	s8,12(sp)
    2de0:	1a050293          	addi	t0,a0,416
  unsigned int i;
  uint32_t t[8];
  DBENCH_START();

  for(i = 0; i < N/8; ++i) {
    t[0] = (1 << (D-1)) - a->coeffs[8*i+0];
    2de4:	00001e37          	lui	t3,0x1
    2de8:	0005af03          	lw	t5,0(a1)
    t[1] = (1 << (D-1)) - a->coeffs[8*i+1];
    2dec:	0045a883          	lw	a7,4(a1)
    t[2] = (1 << (D-1)) - a->coeffs[8*i+2];
    2df0:	0085a803          	lw	a6,8(a1)
    t[3] = (1 << (D-1)) - a->coeffs[8*i+3];
    2df4:	00c5ae83          	lw	t4,12(a1)
    t[4] = (1 << (D-1)) - a->coeffs[8*i+4];
    2df8:	0105a703          	lw	a4,16(a1)
    t[5] = (1 << (D-1)) - a->coeffs[8*i+5];
    2dfc:	0145a603          	lw	a2,20(a1)
    t[6] = (1 << (D-1)) - a->coeffs[8*i+6];
    2e00:	0185a783          	lw	a5,24(a1)
    t[7] = (1 << (D-1)) - a->coeffs[8*i+7];
    2e04:	01c5a683          	lw	a3,28(a1)
    t[1] = (1 << (D-1)) - a->coeffs[8*i+1];
    2e08:	411e08b3          	sub	a7,t3,a7
    t[3] = (1 << (D-1)) - a->coeffs[8*i+3];
    2e0c:	41de0eb3          	sub	t4,t3,t4
    t[4] = (1 << (D-1)) - a->coeffs[8*i+4];
    2e10:	40ee0733          	sub	a4,t3,a4
    t[6] = (1 << (D-1)) - a->coeffs[8*i+6];
    2e14:	40fe07b3          	sub	a5,t3,a5
    t[0] = (1 << (D-1)) - a->coeffs[8*i+0];
    2e18:	41ee0f33          	sub	t5,t3,t5
    t[2] = (1 << (D-1)) - a->coeffs[8*i+2];
    2e1c:	410e0833          	sub	a6,t3,a6
    t[5] = (1 << (D-1)) - a->coeffs[8*i+5];
    2e20:	40ce0633          	sub	a2,t3,a2
    t[7] = (1 << (D-1)) - a->coeffs[8*i+7];
    2e24:	40de06b3          	sub	a3,t3,a3

    r[13*i+ 0]  =  t[0];
    r[13*i+ 1]  =  t[0] >>  8;
    r[13*i+ 1] |=  t[1] <<  5;
    2e28:	00589c13          	slli	s8,a7,0x5
    r[13*i+ 2]  =  t[1] >>  3;
    r[13*i+ 3]  =  t[1] >> 11;
    2e2c:	00b8d413          	srli	s0,a7,0xb
    r[13*i+ 3] |=  t[2] <<  2;
    2e30:	00281b93          	slli	s7,a6,0x2
    r[13*i+ 4]  =  t[2] >>  6;
    r[13*i+ 4] |=  t[3] <<  7;
    2e34:	007e9b13          	slli	s6,t4,0x7
    r[13*i+ 5]  =  t[3] >>  1;
    r[13*i+ 6]  =  t[3] >>  9;
    2e38:	009ed393          	srli	t2,t4,0x9
    r[13*i+ 6] |=  t[4] <<  4;
    2e3c:	00471a93          	slli	s5,a4,0x4
    r[13*i+ 7]  =  t[4] >>  4;
    r[13*i+ 8]  =  t[4] >> 12;
    2e40:	00c75f93          	srli	t6,a4,0xc
    r[13*i+ 8] |=  t[5] <<  1;
    2e44:	00161a13          	slli	s4,a2,0x1
    r[13*i+ 9]  =  t[5] >>  7;
    r[13*i+ 9] |=  t[6] <<  6;
    2e48:	00679993          	slli	s3,a5,0x6
    r[13*i+10]  =  t[6] >>  2;
    r[13*i+11]  =  t[6] >> 10;
    2e4c:	00a7d313          	srli	t1,a5,0xa
    r[13*i+11] |=  t[7] <<  3;
    2e50:	00369913          	slli	s2,a3,0x3
    r[13*i+ 1]  =  t[0] >>  8;
    2e54:	008f5493          	srli	s1,t5,0x8
    r[13*i+ 4]  =  t[2] >>  6;
    2e58:	00685813          	srli	a6,a6,0x6
    r[13*i+ 9]  =  t[5] >>  7;
    2e5c:	00765613          	srli	a2,a2,0x7
    r[13*i+ 1] |=  t[1] <<  5;
    2e60:	0184e4b3          	or	s1,s1,s8
    r[13*i+ 2]  =  t[1] >>  3;
    2e64:	0038d893          	srli	a7,a7,0x3
    r[13*i+ 3] |=  t[2] <<  2;
    2e68:	01746433          	or	s0,s0,s7
    r[13*i+ 4] |=  t[3] <<  7;
    2e6c:	01686833          	or	a6,a6,s6
    r[13*i+ 5]  =  t[3] >>  1;
    2e70:	001ede93          	srli	t4,t4,0x1
    r[13*i+ 6] |=  t[4] <<  4;
    2e74:	0153e3b3          	or	t2,t2,s5
    r[13*i+ 7]  =  t[4] >>  4;
    2e78:	00475713          	srli	a4,a4,0x4
    r[13*i+ 8] |=  t[5] <<  1;
    2e7c:	014fefb3          	or	t6,t6,s4
    r[13*i+ 9] |=  t[6] <<  6;
    2e80:	01366633          	or	a2,a2,s3
    r[13*i+10]  =  t[6] >>  2;
    2e84:	0027d793          	srli	a5,a5,0x2
    r[13*i+11] |=  t[7] <<  3;
    2e88:	01236333          	or	t1,t1,s2
    r[13*i+12]  =  t[7] >>  5;
    2e8c:	0056d693          	srli	a3,a3,0x5
    r[13*i+ 0]  =  t[0];
    2e90:	01e50023          	sb	t5,0(a0)
    r[13*i+ 1] |=  t[1] <<  5;
    2e94:	009500a3          	sb	s1,1(a0)
    r[13*i+ 2]  =  t[1] >>  3;
    2e98:	01150123          	sb	a7,2(a0)
    r[13*i+ 3] |=  t[2] <<  2;
    2e9c:	008501a3          	sb	s0,3(a0)
    r[13*i+ 4] |=  t[3] <<  7;
    2ea0:	01050223          	sb	a6,4(a0)
    r[13*i+ 5]  =  t[3] >>  1;
    2ea4:	01d502a3          	sb	t4,5(a0)
    r[13*i+ 6] |=  t[4] <<  4;
    2ea8:	00750323          	sb	t2,6(a0)
    r[13*i+ 7]  =  t[4] >>  4;
    2eac:	00e503a3          	sb	a4,7(a0)
    r[13*i+ 8] |=  t[5] <<  1;
    2eb0:	01f50423          	sb	t6,8(a0)
    r[13*i+ 9] |=  t[6] <<  6;
    2eb4:	00c504a3          	sb	a2,9(a0)
    r[13*i+10]  =  t[6] >>  2;
    2eb8:	00f50523          	sb	a5,10(a0)
    r[13*i+11] |=  t[7] <<  3;
    2ebc:	006505a3          	sb	t1,11(a0)
    r[13*i+12]  =  t[7] >>  5;
    2ec0:	00d50623          	sb	a3,12(a0)
  for(i = 0; i < N/8; ++i) {
    2ec4:	00d50513          	addi	a0,a0,13
    2ec8:	02058593          	addi	a1,a1,32
    2ecc:	f0a29ee3          	bne	t0,a0,2de8 <pqcrystals_dilithium3_ref_polyt0_pack+0x30>
  }

  DBENCH_STOP(*tpack);
}
    2ed0:	02c12403          	lw	s0,44(sp)
    2ed4:	02812483          	lw	s1,40(sp)
    2ed8:	02412903          	lw	s2,36(sp)
    2edc:	02012983          	lw	s3,32(sp)
    2ee0:	01c12a03          	lw	s4,28(sp)
    2ee4:	01812a83          	lw	s5,24(sp)
    2ee8:	01412b03          	lw	s6,20(sp)
    2eec:	01012b83          	lw	s7,16(sp)
    2ef0:	00c12c03          	lw	s8,12(sp)
    2ef4:	03010113          	addi	sp,sp,48
    2ef8:	00008067          	ret

00002efc <pqcrystals_dilithium3_ref_polyt0_unpack>:
  DBENCH_START();

  for(i = 0; i < N/8; ++i) {
    r->coeffs[8*i+0]  = a[13*i+0];
    r->coeffs[8*i+0] |= (uint32_t)a[13*i+1] << 8;
    r->coeffs[8*i+0] &= 0x1FFF;
    2efc:	00002eb7          	lui	t4,0x2
    2f00:	1a058f13          	addi	t5,a1,416
    2f04:	fffe8e93          	addi	t4,t4,-1 # 1fff <pqcrystals_dilithium3_ref_polyveck_sub+0x4f>

    r->coeffs[8*i+7]  = a[13*i+11] >> 3;
    r->coeffs[8*i+7] |= (uint32_t)a[13*i+12] << 5;
    r->coeffs[8*i+7] &= 0x1FFF;

    r->coeffs[8*i+0] = (1 << (D-1)) - r->coeffs[8*i+0];
    2f08:	00001e37          	lui	t3,0x1
    r->coeffs[8*i+0]  = a[13*i+0];
    2f0c:	0005c783          	lbu	a5,0(a1)
  for(i = 0; i < N/8; ++i) {
    2f10:	00d58593          	addi	a1,a1,13
    2f14:	02050513          	addi	a0,a0,32
    r->coeffs[8*i+0]  = a[13*i+0];
    2f18:	fef52023          	sw	a5,-32(a0)
    r->coeffs[8*i+0] |= (uint32_t)a[13*i+1] << 8;
    2f1c:	ff45c303          	lbu	t1,-12(a1)
    2f20:	00831313          	slli	t1,t1,0x8
    2f24:	00f36333          	or	t1,t1,a5
    r->coeffs[8*i+0] &= 0x1FFF;
    2f28:	01d37333          	and	t1,t1,t4
    2f2c:	fe652023          	sw	t1,-32(a0)
    r->coeffs[8*i+1]  = a[13*i+1] >> 5;
    2f30:	ff45c703          	lbu	a4,-12(a1)
    r->coeffs[8*i+0] = (1 << (D-1)) - r->coeffs[8*i+0];
    2f34:	406e0333          	sub	t1,t3,t1
    r->coeffs[8*i+1]  = a[13*i+1] >> 5;
    2f38:	00575713          	srli	a4,a4,0x5
    2f3c:	fee52223          	sw	a4,-28(a0)
    r->coeffs[8*i+1] |= (uint32_t)a[13*i+2] << 3;
    2f40:	ff55c783          	lbu	a5,-11(a1)
    2f44:	00379793          	slli	a5,a5,0x3
    2f48:	00e7e7b3          	or	a5,a5,a4
    2f4c:	fef52223          	sw	a5,-28(a0)
    r->coeffs[8*i+1] |= (uint32_t)a[13*i+3] << 11;
    2f50:	ff65c883          	lbu	a7,-10(a1)
    2f54:	00b89893          	slli	a7,a7,0xb
    2f58:	00f8e8b3          	or	a7,a7,a5
    r->coeffs[8*i+1] &= 0x1FFF;
    2f5c:	01d8f8b3          	and	a7,a7,t4
    2f60:	ff152223          	sw	a7,-28(a0)
    r->coeffs[8*i+2]  = a[13*i+3] >> 2;
    2f64:	ff65c783          	lbu	a5,-10(a1)
    r->coeffs[8*i+1] = (1 << (D-1)) - r->coeffs[8*i+1];
    2f68:	411e08b3          	sub	a7,t3,a7
    r->coeffs[8*i+2]  = a[13*i+3] >> 2;
    2f6c:	0027d793          	srli	a5,a5,0x2
    2f70:	fef52423          	sw	a5,-24(a0)
    r->coeffs[8*i+2] |= (uint32_t)a[13*i+4] << 6;
    2f74:	ff75c803          	lbu	a6,-9(a1)
    2f78:	00681813          	slli	a6,a6,0x6
    2f7c:	00f86833          	or	a6,a6,a5
    r->coeffs[8*i+2] &= 0x1FFF;
    2f80:	01d87833          	and	a6,a6,t4
    2f84:	ff052423          	sw	a6,-24(a0)
    r->coeffs[8*i+3]  = a[13*i+4] >> 7;
    2f88:	ff75c783          	lbu	a5,-9(a1)
    r->coeffs[8*i+2] = (1 << (D-1)) - r->coeffs[8*i+2];
    2f8c:	410e0833          	sub	a6,t3,a6
    r->coeffs[8*i+3]  = a[13*i+4] >> 7;
    2f90:	0077d793          	srli	a5,a5,0x7
    2f94:	fef52623          	sw	a5,-20(a0)
    r->coeffs[8*i+3] |= (uint32_t)a[13*i+5] << 1;
    2f98:	ff85c703          	lbu	a4,-8(a1)
    2f9c:	00171713          	slli	a4,a4,0x1
    2fa0:	00f76733          	or	a4,a4,a5
    2fa4:	fee52623          	sw	a4,-20(a0)
    r->coeffs[8*i+3] |= (uint32_t)a[13*i+6] << 9;
    2fa8:	ff95c783          	lbu	a5,-7(a1)
    2fac:	00979793          	slli	a5,a5,0x9
    2fb0:	00e7e7b3          	or	a5,a5,a4
    r->coeffs[8*i+3] &= 0x1FFF;
    2fb4:	01d7f7b3          	and	a5,a5,t4
    2fb8:	fef52623          	sw	a5,-20(a0)
    r->coeffs[8*i+4]  = a[13*i+6] >> 4;
    2fbc:	ff95c703          	lbu	a4,-7(a1)
    r->coeffs[8*i+3] = (1 << (D-1)) - r->coeffs[8*i+3];
    2fc0:	40fe0633          	sub	a2,t3,a5
    r->coeffs[8*i+4]  = a[13*i+6] >> 4;
    2fc4:	00475793          	srli	a5,a4,0x4
    2fc8:	fef52823          	sw	a5,-16(a0)
    r->coeffs[8*i+4] |= (uint32_t)a[13*i+7] << 4;
    2fcc:	ffa5c703          	lbu	a4,-6(a1)
    2fd0:	00471713          	slli	a4,a4,0x4
    2fd4:	00f76733          	or	a4,a4,a5
    2fd8:	fee52823          	sw	a4,-16(a0)
    r->coeffs[8*i+4] |= (uint32_t)a[13*i+8] << 12;
    2fdc:	ffb5c783          	lbu	a5,-5(a1)
    2fe0:	00c79793          	slli	a5,a5,0xc
    2fe4:	00e7e7b3          	or	a5,a5,a4
    r->coeffs[8*i+4] &= 0x1FFF;
    2fe8:	01d7f7b3          	and	a5,a5,t4
    2fec:	fef52823          	sw	a5,-16(a0)
    r->coeffs[8*i+5]  = a[13*i+8] >> 1;
    2ff0:	ffb5c703          	lbu	a4,-5(a1)
    r->coeffs[8*i+4] = (1 << (D-1)) - r->coeffs[8*i+4];
    2ff4:	40fe06b3          	sub	a3,t3,a5
    r->coeffs[8*i+5]  = a[13*i+8] >> 1;
    2ff8:	00175713          	srli	a4,a4,0x1
    2ffc:	fee52a23          	sw	a4,-12(a0)
    r->coeffs[8*i+5] |= (uint32_t)a[13*i+9] << 7;
    3000:	ffc5c783          	lbu	a5,-4(a1)
    3004:	00779793          	slli	a5,a5,0x7
    3008:	00e7e7b3          	or	a5,a5,a4
    r->coeffs[8*i+5] &= 0x1FFF;
    300c:	01d7f7b3          	and	a5,a5,t4
    3010:	fef52a23          	sw	a5,-12(a0)
    r->coeffs[8*i+6]  = a[13*i+9] >> 6;
    3014:	ffc5cf83          	lbu	t6,-4(a1)
    r->coeffs[8*i+5] = (1 << (D-1)) - r->coeffs[8*i+5];
    3018:	40fe0733          	sub	a4,t3,a5
    r->coeffs[8*i+6]  = a[13*i+9] >> 6;
    301c:	006fd793          	srli	a5,t6,0x6
    3020:	fef52c23          	sw	a5,-8(a0)
    r->coeffs[8*i+6] |= (uint32_t)a[13*i+10] << 2;
    3024:	ffd5cf83          	lbu	t6,-3(a1)
    3028:	002f9f93          	slli	t6,t6,0x2
    302c:	00ffefb3          	or	t6,t6,a5
    3030:	fff52c23          	sw	t6,-8(a0)
    r->coeffs[8*i+6] |= (uint32_t)a[13*i+11] << 10;
    3034:	ffe5c783          	lbu	a5,-2(a1)
    3038:	00a79793          	slli	a5,a5,0xa
    303c:	01f7e7b3          	or	a5,a5,t6
    r->coeffs[8*i+6] &= 0x1FFF;
    3040:	01d7f7b3          	and	a5,a5,t4
    3044:	fef52c23          	sw	a5,-8(a0)
    r->coeffs[8*i+7]  = a[13*i+11] >> 3;
    3048:	ffe5c283          	lbu	t0,-2(a1)
    r->coeffs[8*i+6] = (1 << (D-1)) - r->coeffs[8*i+6];
    304c:	40fe07b3          	sub	a5,t3,a5
    r->coeffs[8*i+7]  = a[13*i+11] >> 3;
    3050:	0032d293          	srli	t0,t0,0x3
    3054:	fe552e23          	sw	t0,-4(a0)
    r->coeffs[8*i+7] |= (uint32_t)a[13*i+12] << 5;
    3058:	fff5cf83          	lbu	t6,-1(a1)
    r->coeffs[8*i+1] = (1 << (D-1)) - r->coeffs[8*i+1];
    305c:	ff152223          	sw	a7,-28(a0)
    r->coeffs[8*i+0] = (1 << (D-1)) - r->coeffs[8*i+0];
    3060:	fe652023          	sw	t1,-32(a0)
    r->coeffs[8*i+7] |= (uint32_t)a[13*i+12] << 5;
    3064:	005f9893          	slli	a7,t6,0x5
    3068:	0058e8b3          	or	a7,a7,t0
    r->coeffs[8*i+7] = (1 << (D-1)) - r->coeffs[8*i+7];
    306c:	411e08b3          	sub	a7,t3,a7
    r->coeffs[8*i+2] = (1 << (D-1)) - r->coeffs[8*i+2];
    3070:	ff052423          	sw	a6,-24(a0)
    r->coeffs[8*i+3] = (1 << (D-1)) - r->coeffs[8*i+3];
    3074:	fec52623          	sw	a2,-20(a0)
    r->coeffs[8*i+4] = (1 << (D-1)) - r->coeffs[8*i+4];
    3078:	fed52823          	sw	a3,-16(a0)
    r->coeffs[8*i+5] = (1 << (D-1)) - r->coeffs[8*i+5];
    307c:	fee52a23          	sw	a4,-12(a0)
    r->coeffs[8*i+6] = (1 << (D-1)) - r->coeffs[8*i+6];
    3080:	fef52c23          	sw	a5,-8(a0)
    r->coeffs[8*i+7] = (1 << (D-1)) - r->coeffs[8*i+7];
    3084:	ff152e23          	sw	a7,-4(a0)
  for(i = 0; i < N/8; ++i) {
    3088:	e8bf12e3          	bne	t5,a1,2f0c <pqcrystals_dilithium3_ref_polyt0_unpack+0x10>
  }

  DBENCH_STOP(*tpack);
}
    308c:	00008067          	ret

00003090 <pqcrystals_dilithium3_ref_polyz_pack>:
    r[9*i+6] |= t[3] << 6;
    r[9*i+7]  = t[3] >> 2;
    r[9*i+8]  = t[3] >> 10;
  }
#elif GAMMA1 == (1 << 19)
  for(i = 0; i < N/2; ++i) {
    3090:	28050313          	addi	t1,a0,640
    t[0] = GAMMA1 - a->coeffs[2*i+0];
    3094:	00080637          	lui	a2,0x80
    3098:	0005a703          	lw	a4,0(a1)
    t[1] = GAMMA1 - a->coeffs[2*i+1];
    309c:	0045a783          	lw	a5,4(a1)
  for(i = 0; i < N/2; ++i) {
    30a0:	00550513          	addi	a0,a0,5
    t[0] = GAMMA1 - a->coeffs[2*i+0];
    30a4:	40e60733          	sub	a4,a2,a4
    t[1] = GAMMA1 - a->coeffs[2*i+1];
    30a8:	40f607b3          	sub	a5,a2,a5

    r[5*i+0]  = t[0];
    r[5*i+1]  = t[0] >> 8;
    r[5*i+2]  = t[0] >> 16;
    r[5*i+2] |= t[1] << 4;
    30ac:	00479813          	slli	a6,a5,0x4
    r[5*i+2]  = t[0] >> 16;
    30b0:	01075693          	srli	a3,a4,0x10
    r[5*i+2] |= t[1] << 4;
    30b4:	0106e6b3          	or	a3,a3,a6
    r[5*i+1]  = t[0] >> 8;
    30b8:	00875893          	srli	a7,a4,0x8
    r[5*i+3]  = t[1] >> 4;
    30bc:	0047d813          	srli	a6,a5,0x4
    r[5*i+4]  = t[1] >> 12;
    30c0:	00c7d793          	srli	a5,a5,0xc
    r[5*i+0]  = t[0];
    30c4:	fee50da3          	sb	a4,-5(a0)
    r[5*i+1]  = t[0] >> 8;
    30c8:	ff150e23          	sb	a7,-4(a0)
    r[5*i+2] |= t[1] << 4;
    30cc:	fed50ea3          	sb	a3,-3(a0)
    r[5*i+3]  = t[1] >> 4;
    30d0:	ff050f23          	sb	a6,-2(a0)
    r[5*i+4]  = t[1] >> 12;
    30d4:	fef50fa3          	sb	a5,-1(a0)
  for(i = 0; i < N/2; ++i) {
    30d8:	00858593          	addi	a1,a1,8
    30dc:	faa31ee3          	bne	t1,a0,3098 <pqcrystals_dilithium3_ref_polyz_pack+0x8>
  }
#endif

  DBENCH_STOP(*tpack);
}
    30e0:	00008067          	ret

000030e4 <pqcrystals_dilithium3_ref_polyz_unpack>:
#elif GAMMA1 == (1 << 19)
  for(i = 0; i < N/2; ++i) {
    r->coeffs[2*i+0]  = a[5*i+0];
    r->coeffs[2*i+0] |= (uint32_t)a[5*i+1] << 8;
    r->coeffs[2*i+0] |= (uint32_t)a[5*i+2] << 16;
    r->coeffs[2*i+0] &= 0xFFFFF;
    30e4:	00100837          	lui	a6,0x100
    30e8:	28058893          	addi	a7,a1,640
    30ec:	fff80813          	addi	a6,a6,-1 # fffff <_end_of_memory+0xcffff>
    r->coeffs[2*i+1]  = a[5*i+2] >> 4;
    r->coeffs[2*i+1] |= (uint32_t)a[5*i+3] << 4;
    r->coeffs[2*i+1] |= (uint32_t)a[5*i+4] << 12;
    r->coeffs[2*i+0] &= 0xFFFFF;

    r->coeffs[2*i+0] = GAMMA1 - r->coeffs[2*i+0];
    30f0:	00080637          	lui	a2,0x80
    r->coeffs[2*i+0]  = a[5*i+0];
    30f4:	0005c783          	lbu	a5,0(a1)
  for(i = 0; i < N/2; ++i) {
    30f8:	00558593          	addi	a1,a1,5
    30fc:	00850513          	addi	a0,a0,8
    r->coeffs[2*i+0]  = a[5*i+0];
    3100:	fef52c23          	sw	a5,-8(a0)
    r->coeffs[2*i+0] |= (uint32_t)a[5*i+1] << 8;
    3104:	ffc5c703          	lbu	a4,-4(a1)
    3108:	00871713          	slli	a4,a4,0x8
    310c:	00f76733          	or	a4,a4,a5
    3110:	fee52c23          	sw	a4,-8(a0)
    r->coeffs[2*i+0] |= (uint32_t)a[5*i+2] << 16;
    3114:	ffd5c783          	lbu	a5,-3(a1)
    3118:	01079793          	slli	a5,a5,0x10
    311c:	00e7e7b3          	or	a5,a5,a4
    r->coeffs[2*i+0] &= 0xFFFFF;
    3120:	0107f7b3          	and	a5,a5,a6
    3124:	fef52c23          	sw	a5,-8(a0)
    r->coeffs[2*i+1]  = a[5*i+2] >> 4;
    3128:	ffd5c703          	lbu	a4,-3(a1)
    r->coeffs[2*i+0] = GAMMA1 - r->coeffs[2*i+0];
    312c:	40f607b3          	sub	a5,a2,a5
    r->coeffs[2*i+1]  = a[5*i+2] >> 4;
    3130:	00475713          	srli	a4,a4,0x4
    3134:	fee52e23          	sw	a4,-4(a0)
    r->coeffs[2*i+1] |= (uint32_t)a[5*i+3] << 4;
    3138:	ffe5c683          	lbu	a3,-2(a1)
    313c:	00469693          	slli	a3,a3,0x4
    3140:	00e6e6b3          	or	a3,a3,a4
    3144:	fed52e23          	sw	a3,-4(a0)
    r->coeffs[2*i+1] |= (uint32_t)a[5*i+4] << 12;
    3148:	fff5c703          	lbu	a4,-1(a1)
    r->coeffs[2*i+0] = GAMMA1 - r->coeffs[2*i+0];
    314c:	fef52c23          	sw	a5,-8(a0)
    r->coeffs[2*i+1] |= (uint32_t)a[5*i+4] << 12;
    3150:	00c71793          	slli	a5,a4,0xc
    3154:	00d7e7b3          	or	a5,a5,a3
    r->coeffs[2*i+1] = GAMMA1 - r->coeffs[2*i+1];
    3158:	40f607b3          	sub	a5,a2,a5
    315c:	fef52e23          	sw	a5,-4(a0)
  for(i = 0; i < N/2; ++i) {
    3160:	f9159ae3          	bne	a1,a7,30f4 <pqcrystals_dilithium3_ref_polyz_unpack+0x10>
  }
#endif

  DBENCH_STOP(*tpack);
}
    3164:	00008067          	ret

00003168 <pqcrystals_dilithium3_ref_poly_uniform_gamma1>:
{
    3168:	c7010113          	addi	sp,sp,-912
    316c:	38812423          	sw	s0,904(sp)
    3170:	00050413          	mv	s0,a0
  stream256_init(&state, seed, nonce);
    3174:	00810513          	addi	a0,sp,8
{
    3178:	38112623          	sw	ra,908(sp)
  stream256_init(&state, seed, nonce);
    317c:	7bd030ef          	jal	ra,7138 <pqcrystals_dilithium3_ref_dilithium_shake256_stream_init>
  stream256_squeezeblocks(buf, POLY_UNIFORM_GAMMA1_NBLOCKS, &state);
    3180:	00810613          	addi	a2,sp,8
    3184:	0d810513          	addi	a0,sp,216
    3188:	00500593          	li	a1,5
    318c:	51c030ef          	jal	ra,66a8 <pqcrystals_dilithium_fips202_ref_shake256_squeezeblocks>
  polyz_unpack(a, buf);
    3190:	0d810593          	addi	a1,sp,216
    3194:	00040513          	mv	a0,s0
    3198:	f4dff0ef          	jal	ra,30e4 <pqcrystals_dilithium3_ref_polyz_unpack>
}
    319c:	38c12083          	lw	ra,908(sp)
    31a0:	38812403          	lw	s0,904(sp)
    31a4:	39010113          	addi	sp,sp,912
    31a8:	00008067          	ret

000031ac <pqcrystals_dilithium3_ref_polyw1_pack>:
    r[3*i+1] |= a->coeffs[4*i+2] << 4;
    r[3*i+2]  = a->coeffs[4*i+2] >> 4;
    r[3*i+2] |= a->coeffs[4*i+3] << 2;
  }
#elif GAMMA2 == (Q-1)/32
  for(i = 0; i < N/2; ++i)
    31ac:	40058693          	addi	a3,a1,1024
    r[i] = a->coeffs[2*i+0] | (a->coeffs[2*i+1] << 4);
    31b0:	0045a783          	lw	a5,4(a1)
    31b4:	0005a703          	lw	a4,0(a1)
  for(i = 0; i < N/2; ++i)
    31b8:	00858593          	addi	a1,a1,8
    r[i] = a->coeffs[2*i+0] | (a->coeffs[2*i+1] << 4);
    31bc:	00479793          	slli	a5,a5,0x4
    31c0:	00e7e7b3          	or	a5,a5,a4
    31c4:	00f50023          	sb	a5,0(a0)
  for(i = 0; i < N/2; ++i)
    31c8:	00150513          	addi	a0,a0,1
    31cc:	feb692e3          	bne	a3,a1,31b0 <pqcrystals_dilithium3_ref_polyw1_pack+0x4>
#endif

  DBENCH_STOP(*tpack);
}
    31d0:	00008067          	ret

000031d4 <pqcrystals_dilithium3_ref_ntt>:
* Description: Forward NTT, in-place. No modular reduction is performed after
*              additions or subtractions. Output vector is in bitreversed order.
*
* Arguments:   - uint32_t p[N]: input/output coefficient array
**************************************************/
void ntt(int32_t a[N]) {
    31d4:	fe010113          	addi	sp,sp,-32
    31d8:	01312a23          	sw	s3,20(sp)
    31dc:	01912223          	sw	s9,4(sp)
    31e0:	00912e23          	sw	s1,28(sp)
    31e4:	01212c23          	sw	s2,24(sp)
    31e8:	01412823          	sw	s4,16(sp)
    31ec:	01612623          	sw	s6,12(sp)
    31f0:	01712423          	sw	s7,8(sp)
  #else
  unsigned int len, start, j, k;
  int32_t zeta, t;
  #endif

  k = 0;
    31f4:	00000993          	li	s3,0
  for(len = 128; len > 0; len >>= 1) {
    31f8:	08000c93          	li	s9,128
    31fc:	00005617          	auipc	a2,0x5
    3200:	3f460613          	addi	a2,a2,1012 # 85f0 <zetas>
    for(start = 0; start < N; start = j + len) {
    3204:	0ff00693          	li	a3,255
      zeta = zetas[++k];
      for(j = start; j < start + len; ++j) {
    3208:	000c8713          	mv	a4,s9
    for(start = 0; start < N; start = j + len) {
    320c:	00000493          	li	s1,0
      zeta = zetas[++k];
    3210:	00198993          	addi	s3,s3,1
    3214:	00299793          	slli	a5,s3,0x2
      for(j = start; j < start + len; ++j) {
    3218:	00048913          	mv	s2,s1
      zeta = zetas[++k];
    321c:	00f607b3          	add	a5,a2,a5
      for(j = start; j < start + len; ++j) {
    3220:	00e484b3          	add	s1,s1,a4
      zeta = zetas[++k];
    3224:	0007aa03          	lw	s4,0(a5)
      for(j = start; j < start + len; ++j) {
    3228:	04997663          	bgeu	s2,s1,3274 <pqcrystals_dilithium3_ref_ntt+0xa0>
        #ifdef FPAU
        //coeff0 = a[j];
        //coeff1 = a[j + len];

        // load coeff0
        asm volatile("mv t0, s2");
    322c:	00090293          	mv	t0,s2
        asm volatile("slli t0, t0, 0x2");
    3230:	00229293          	slli	t0,t0,0x2
        asm volatile("add t0, a0, t0");
    3234:	005502b3          	add	t0,a0,t0
        asm volatile("lw s6, 0(t0)");
    3238:	0002ab03          	lw	s6,0(t0)

        // load coeff1
        asm volatile("add t1, s2, s9");
    323c:	01990333          	add	t1,s2,s9
        asm volatile("slli t1, t1, 0x2");
    3240:	00231313          	slli	t1,t1,0x2
        asm volatile("add t1, a0, t1");
    3244:	00650333          	add	t1,a0,t1
        asm volatile("lw s7, 0(t1)");
    3248:	00032b83          	lw	s7,0(t1)

        // Compute butterfly operation
#ifndef STEEL
        asm volatile ("nop"); //ORCA
    324c:	00000013          	nop
        asm volatile ("nop"); //ORCA
    3250:	00000013          	nop
        asm volatile ("nop"); //ORCA
    3254:	00000013          	nop
#endif
        asm volatile("fpau.dil.bf %0, %1,%2\n":"=r"(coeff0):"r"(coeff1),"r"(zeta): );
    3258:	614bab33          	fpau.dil.bf	s6,s7,s4
        
        // Store results in same position
        asm volatile("sw s6, 0(t0)");
    325c:	0162a023          	sw	s6,0(t0)
        asm volatile("nop"); //ORCA and STEEL (2nd output written in next cycle)
    3260:	00000013          	nop
        asm volatile("sw s7, 0(t1)");
    3264:	01732023          	sw	s7,0(t1)
      for(j = start; j < start + len; ++j) {
    3268:	00190913          	addi	s2,s2,1
    326c:	fc9960e3          	bltu	s2,s1,322c <pqcrystals_dilithium3_ref_ntt+0x58>
    for(start = 0; start < N; start = j + len) {
    3270:	00e904b3          	add	s1,s2,a4
    3274:	f896fee3          	bgeu	a3,s1,3210 <pqcrystals_dilithium3_ref_ntt+0x3c>
  for(len = 128; len > 0; len >>= 1) {
    3278:	001cdc93          	srli	s9,s9,0x1
    327c:	f80c96e3          	bnez	s9,3208 <pqcrystals_dilithium3_ref_ntt+0x34>
        a[j] = a[j] + t;
        #endif
      }
    }
  }
}
    3280:	01c12483          	lw	s1,28(sp)
    3284:	01812903          	lw	s2,24(sp)
    3288:	01412983          	lw	s3,20(sp)
    328c:	01012a03          	lw	s4,16(sp)
    3290:	00c12b03          	lw	s6,12(sp)
    3294:	00812b83          	lw	s7,8(sp)
    3298:	00412c83          	lw	s9,4(sp)
    329c:	02010113          	addi	sp,sp,32
    32a0:	00008067          	ret

000032a4 <pqcrystals_dilithium3_ref_invntt_tomont>:
*              Q in absolute value. Output coefficient are smaller than Q in
*              absolute value.
*
* Arguments:   - uint32_t p[N]: input/output coefficient array
**************************************************/
void invntt_tomont(int32_t a[N]) {
    32a4:	fe010113          	addi	sp,sp,-32
    32a8:	01312a23          	sw	s3,20(sp)
    32ac:	01912223          	sw	s9,4(sp)
    32b0:	00912e23          	sw	s1,28(sp)
    32b4:	01212c23          	sw	s2,24(sp)
    32b8:	01412823          	sw	s4,16(sp)
    32bc:	01612623          	sw	s6,12(sp)
    32c0:	01712423          	sw	s7,8(sp)
  unsigned int start, len, j, k;
  int32_t t, zeta;
  const int32_t f = 41978; // mont^2/256
#endif

  k = 256;
    32c4:	10000993          	li	s3,256
  for(len = 1; len < N; len <<= 1) {
    32c8:	00100c93          	li	s9,1
    32cc:	00005617          	auipc	a2,0x5
    32d0:	32460613          	addi	a2,a2,804 # 85f0 <zetas>
    for(start = 0; start < N; start = j + len) {
    32d4:	0ff00693          	li	a3,255
      zeta = -zetas[--k];
      for(j = start; j < start + len; ++j) {
    32d8:	000c8713          	mv	a4,s9
    for(start = 0; start < N; start = j + len) {
    32dc:	00000493          	li	s1,0
      zeta = -zetas[--k];
    32e0:	fff98993          	addi	s3,s3,-1
    32e4:	00299793          	slli	a5,s3,0x2
    32e8:	00f607b3          	add	a5,a2,a5
    32ec:	0007aa03          	lw	s4,0(a5)
      for(j = start; j < start + len; ++j) {
    32f0:	00048913          	mv	s2,s1
    32f4:	00e484b3          	add	s1,s1,a4
      zeta = -zetas[--k];
    32f8:	41400a33          	neg	s4,s4
      for(j = start; j < start + len; ++j) {
    32fc:	04997663          	bgeu	s2,s1,3348 <pqcrystals_dilithium3_ref_invntt_tomont+0xa4>
#ifdef FPAU
        //coeff0 = a[j];
        //coeff1 = a[j + len];

        // load coeff0
        asm volatile("mv t0, s2");
    3300:	00090293          	mv	t0,s2
        asm volatile("slli t0, t0, 0x2");
    3304:	00229293          	slli	t0,t0,0x2
        asm volatile("add t0, a0, t0");
    3308:	005502b3          	add	t0,a0,t0
        asm volatile("lw s6, 0(t0)");
    330c:	0002ab03          	lw	s6,0(t0)

        // load coeff1
        asm volatile("add t1, s2, s9");
    3310:	01990333          	add	t1,s2,s9
        asm volatile("slli t1, t1, 0x2");
    3314:	00231313          	slli	t1,t1,0x2
        asm volatile("add t1, a0, t1");
    3318:	00650333          	add	t1,a0,t1
        asm volatile("lw s7, 0(t1)");
    331c:	00032b83          	lw	s7,0(t1)

        // Compute butterfly operation
#ifndef STEEL
        asm volatile ("nop"); //ORCA
    3320:	00000013          	nop
        asm volatile ("nop"); //ORCA
    3324:	00000013          	nop
        asm volatile ("nop"); //ORCA cached
    3328:	00000013          	nop
#endif
        asm volatile("fpau.dil.bfinv %0, %1,%2\n":"=r"(coeff0):"r"(coeff1),"r"(zeta): );
    332c:	714bab33          	fpau.dil.bfinv	s6,s7,s4

        // Store results in same position
        asm volatile("sw s6, 0(t0)");
    3330:	0162a023          	sw	s6,0(t0)
        asm volatile("nop"); //ORCA and STEEL (2nd output written in next cycle)
    3334:	00000013          	nop
        asm volatile("sw s7, 0(t1)");
    3338:	01732023          	sw	s7,0(t1)
      for(j = start; j < start + len; ++j) {
    333c:	00190913          	addi	s2,s2,1
    3340:	fc9960e3          	bltu	s2,s1,3300 <pqcrystals_dilithium3_ref_invntt_tomont+0x5c>
    for(start = 0; start < N; start = j + len) {
    3344:	00e904b3          	add	s1,s2,a4
    3348:	f896fce3          	bgeu	a3,s1,32e0 <pqcrystals_dilithium3_ref_invntt_tomont+0x3c>
  for(len = 1; len < N; len <<= 1) {
    334c:	001c9c93          	slli	s9,s9,0x1
    3350:	f996f4e3          	bgeu	a3,s9,32d8 <pqcrystals_dilithium3_ref_invntt_tomont+0x34>
#ifndef STEEL
        asm volatile("nop"); //ORCA
        asm volatile("nop"); //ORCA
        asm volatile("nop"); //ORCA
#endif
        asm volatile("fpau.dil.bfinv %0, %1,%2\n":"=r"(coeff0):"r"(coeff1),"r"(ninv): );  //bfinv instead of mac to not overwrite ninv constant
    3354:	007f67b7          	lui	a5,0x7f6
  for(j = 0; j < N; ++j) {
    3358:	00000913          	li	s2,0
        asm volatile("fpau.dil.bfinv %0, %1,%2\n":"=r"(coeff0):"r"(coeff1),"r"(ninv): );  //bfinv instead of mac to not overwrite ninv constant
    335c:	02178793          	addi	a5,a5,33 # 7f6021 <_end_of_memory+0x7c6021>
  for(j = 0; j < N; ++j) {
    3360:	0ff00713          	li	a4,255
        asm volatile("mv t0, s2");
    3364:	00090293          	mv	t0,s2
        asm volatile("slli t0, t0, 0x2");
    3368:	00229293          	slli	t0,t0,0x2
        asm volatile("add t0, a0, t0");
    336c:	005502b3          	add	t0,a0,t0
        asm volatile("lw s6, 0(t0)");
    3370:	0002ab03          	lw	s6,0(t0)
        asm volatile("li s7, 0"); // coeff1
    3374:	00000b93          	li	s7,0
        asm volatile("nop"); //ORCA
    3378:	00000013          	nop
        asm volatile("nop"); //ORCA
    337c:	00000013          	nop
        asm volatile("nop"); //ORCA
    3380:	00000013          	nop
        asm volatile("fpau.dil.bfinv %0, %1,%2\n":"=r"(coeff0):"r"(coeff1),"r"(ninv): );  //bfinv instead of mac to not overwrite ninv constant
    3384:	70fbab33          	fpau.dil.bfinv	s6,s7,a5
        asm volatile("nop");
    3388:	00000013          	nop
        asm volatile("nop"); //ORCA and STEEL (2nd output written in next cycle)
    338c:	00000013          	nop

        // store result
        asm volatile("sw s7, 0(t0)");
    3390:	0172a023          	sw	s7,0(t0)
  for(j = 0; j < N; ++j) {
    3394:	00190913          	addi	s2,s2,1
    3398:	fd2776e3          	bgeu	a4,s2,3364 <pqcrystals_dilithium3_ref_invntt_tomont+0xc0>
#else
  for(j = 0; j < N; ++j) {
    a[j] = montgomery_reduce((int64_t)f * a[j]);
  }
#endif
}
    339c:	01c12483          	lw	s1,28(sp)
    33a0:	01812903          	lw	s2,24(sp)
    33a4:	01412983          	lw	s3,20(sp)
    33a8:	01012a03          	lw	s4,16(sp)
    33ac:	00c12b03          	lw	s6,12(sp)
    33b0:	00812b83          	lw	s7,8(sp)
    33b4:	00412c83          	lw	s9,4(sp)
    33b8:	02010113          	addi	sp,sp,32
    33bc:	00008067          	ret

000033c0 <pqcrystals_dilithium3_ref_montgomery_reduce>:
* Returns r.
**************************************************/
int32_t montgomery_reduce(int64_t a) {
  int32_t t;

  t = (int64_t)(int32_t)a*QINV;
    33c0:	03802737          	lui	a4,0x3802
    33c4:	00170713          	addi	a4,a4,1 # 3802001 <_end_of_memory+0x37d2001>
    33c8:	02e50733          	mul	a4,a0,a4
  t = (a - (int64_t)t*Q) >> 32;
    33cc:	41f75813          	srai	a6,a4,0x1f
    33d0:	01675613          	srli	a2,a4,0x16
    33d4:	00a81793          	slli	a5,a6,0xa
    33d8:	00a71693          	slli	a3,a4,0xa
    33dc:	40d706b3          	sub	a3,a4,a3
    33e0:	00f667b3          	or	a5,a2,a5
    33e4:	40f807b3          	sub	a5,a6,a5
    33e8:	00d73633          	sltu	a2,a4,a3
    33ec:	40c787b3          	sub	a5,a5,a2
    33f0:	00d79793          	slli	a5,a5,0xd
    33f4:	00d69613          	slli	a2,a3,0xd
    33f8:	0136d693          	srli	a3,a3,0x13
    33fc:	40e60733          	sub	a4,a2,a4
    3400:	00f6e7b3          	or	a5,a3,a5
    3404:	00e63633          	sltu	a2,a2,a4
    3408:	410787b3          	sub	a5,a5,a6
    340c:	40c787b3          	sub	a5,a5,a2
    3410:	00a70533          	add	a0,a4,a0
    3414:	00e53533          	sltu	a0,a0,a4
    3418:	00b787b3          	add	a5,a5,a1
  return t;
}
    341c:	00f50533          	add	a0,a0,a5
    3420:	00008067          	ret

00003424 <pqcrystals_dilithium3_ref_reduce32>:
* Returns r.
**************************************************/
int32_t reduce32(int32_t a) {
  int32_t t;

  t = (a + (1 << 22)) >> 23;
    3424:	004007b7          	lui	a5,0x400
    3428:	00f507b3          	add	a5,a0,a5
  t = a - t*Q;
    342c:	ff802737          	lui	a4,0xff802
    3430:	fff70713          	addi	a4,a4,-1 # ff801fff <_end_of_memory+0xff7d1fff>
  t = (a + (1 << 22)) >> 23;
    3434:	4177d793          	srai	a5,a5,0x17
  t = a - t*Q;
    3438:	02e787b3          	mul	a5,a5,a4
  return t;
}
    343c:	00a78533          	add	a0,a5,a0
    3440:	00008067          	ret

00003444 <pqcrystals_dilithium3_ref_caddq>:
* Arguments:   - int32_t: finite field element a
*
* Returns r.
**************************************************/
int32_t caddq(int32_t a) {
  a += (a >> 31) & Q;
    3444:	007fe737          	lui	a4,0x7fe
    3448:	41f55793          	srai	a5,a0,0x1f
    344c:	00170713          	addi	a4,a4,1 # 7fe001 <_end_of_memory+0x7ce001>
    3450:	00e7f7b3          	and	a5,a5,a4
  return a;
}
    3454:	00a78533          	add	a0,a5,a0
    3458:	00008067          	ret

0000345c <pqcrystals_dilithium3_ref_freeze>:
  t = (a + (1 << 22)) >> 23;
    345c:	004007b7          	lui	a5,0x400
    3460:	00f507b3          	add	a5,a0,a5
  t = a - t*Q;
    3464:	ff802737          	lui	a4,0xff802
    3468:	fff70713          	addi	a4,a4,-1 # ff801fff <_end_of_memory+0xff7d1fff>
  t = (a + (1 << 22)) >> 23;
    346c:	4177d793          	srai	a5,a5,0x17
  t = a - t*Q;
    3470:	02e787b3          	mul	a5,a5,a4
  a += (a >> 31) & Q;
    3474:	007fe737          	lui	a4,0x7fe
    3478:	00170713          	addi	a4,a4,1 # 7fe001 <_end_of_memory+0x7ce001>
  t = a - t*Q;
    347c:	00f50533          	add	a0,a0,a5
  a += (a >> 31) & Q;
    3480:	41f55793          	srai	a5,a0,0x1f
    3484:	00e7f7b3          	and	a5,a5,a4
**************************************************/
int32_t freeze(int32_t a) {
  a = reduce32(a);
  a = caddq(a);
  return a;
}
    3488:	00a78533          	add	a0,a5,a0
    348c:	00008067          	ret

00003490 <pqcrystals_dilithium3_ref_power2round>:
* Returns a1.
**************************************************/
int32_t power2round(int32_t *a0, int32_t a)  {
  int32_t a1;

  a1 = (a + (1 << (D-1)) - 1) >> D;
    3490:	000017b7          	lui	a5,0x1
    3494:	fff78793          	addi	a5,a5,-1 # fff <pqcrystals_dilithium3_ref_pack_pk+0x77>
    3498:	00f587b3          	add	a5,a1,a5
  *a0 = a - (a1 << D);
    349c:	ffffe737          	lui	a4,0xffffe
    34a0:	00e7f733          	and	a4,a5,a4
    34a4:	40e585b3          	sub	a1,a1,a4
    34a8:	00b52023          	sw	a1,0(a0)
  return a1;
}
    34ac:	40d7d513          	srai	a0,a5,0xd
    34b0:	00008067          	ret

000034b4 <pqcrystals_dilithium3_ref_decompose>:
* Returns a1.
**************************************************/
int32_t decompose(int32_t *a0, int32_t a) {
  int32_t a1;

  a1  = (a + 127) >> 7;
    34b4:	07f58713          	addi	a4,a1,127
    34b8:	40775713          	srai	a4,a4,0x7
#if GAMMA2 == (Q-1)/32
  a1  = (a1*1025 + (1 << 21)) >> 22;
    34bc:	00a71793          	slli	a5,a4,0xa
    34c0:	00e787b3          	add	a5,a5,a4
    34c4:	00200737          	lui	a4,0x200
    34c8:	00e787b3          	add	a5,a5,a4
    34cc:	4167d793          	srai	a5,a5,0x16
  a1 &= 15;
    34d0:	00f7f793          	andi	a5,a5,15
#elif GAMMA2 == (Q-1)/88
  a1  = (a1*11275 + (1 << 23)) >> 24;
  a1 ^= ((43 - a1) >> 31) & a1;
#endif

  *a0  = a - a1*2*GAMMA2;
    34d4:	00a79713          	slli	a4,a5,0xa
    34d8:	40e78733          	sub	a4,a5,a4
    34dc:	00971713          	slli	a4,a4,0x9
    34e0:	00b705b3          	add	a1,a4,a1
  *a0 -= (((Q-1)/2 - *a0) >> 31) & Q;
    34e4:	003ff737          	lui	a4,0x3ff
    34e8:	40b70733          	sub	a4,a4,a1
    34ec:	007fe6b7          	lui	a3,0x7fe
    34f0:	00168693          	addi	a3,a3,1 # 7fe001 <_end_of_memory+0x7ce001>
    34f4:	41f75713          	srai	a4,a4,0x1f
    34f8:	00d77733          	and	a4,a4,a3
    34fc:	40e585b3          	sub	a1,a1,a4
    3500:	00b52023          	sw	a1,0(a0)
  return a1;
}
    3504:	00078513          	mv	a0,a5
    3508:	00008067          	ret

0000350c <pqcrystals_dilithium3_ref_make_hint>:
*              - int32_t a1: high bits of input element
*
* Returns 1 if overflow.
**************************************************/
unsigned int make_hint(int32_t a0, int32_t a1) {
  if(a0 > GAMMA2 || a0 < -GAMMA2 || (a0 == -GAMMA2 && a1 != 0))
    350c:	000407b7          	lui	a5,0x40
    3510:	f0078793          	addi	a5,a5,-256 # 3ff00 <_end_of_memory+0xff00>
    3514:	000806b7          	lui	a3,0x80
    3518:	00f507b3          	add	a5,a0,a5
    351c:	e0068693          	addi	a3,a3,-512 # 7fe00 <_end_of_memory+0x4fe00>
unsigned int make_hint(int32_t a0, int32_t a1) {
    3520:	00050713          	mv	a4,a0
  if(a0 > GAMMA2 || a0 < -GAMMA2 || (a0 == -GAMMA2 && a1 != 0))
    3524:	02f6e063          	bltu	a3,a5,3544 <pqcrystals_dilithium3_ref_make_hint+0x38>
    3528:	fffc07b7          	lui	a5,0xfffc0
    352c:	10078793          	addi	a5,a5,256 # fffc0100 <_end_of_memory+0xfff90100>
    return 1;

  return 0;
    3530:	00000513          	li	a0,0
  if(a0 > GAMMA2 || a0 < -GAMMA2 || (a0 == -GAMMA2 && a1 != 0))
    3534:	00f70463          	beq	a4,a5,353c <pqcrystals_dilithium3_ref_make_hint+0x30>
}
    3538:	00008067          	ret
  if(a0 > GAMMA2 || a0 < -GAMMA2 || (a0 == -GAMMA2 && a1 != 0))
    353c:	00b03533          	snez	a0,a1
    3540:	00008067          	ret
    return 1;
    3544:	00100513          	li	a0,1
}
    3548:	00008067          	ret

0000354c <pqcrystals_dilithium3_ref_use_hint>:
  a1  = (a + 127) >> 7;
    354c:	07f50713          	addi	a4,a0,127
    3550:	40775713          	srai	a4,a4,0x7
  a1  = (a1*1025 + (1 << 21)) >> 22;
    3554:	00a71793          	slli	a5,a4,0xa
    3558:	00e787b3          	add	a5,a5,a4
    355c:	00200737          	lui	a4,0x200
    3560:	00e787b3          	add	a5,a5,a4
    3564:	4167d793          	srai	a5,a5,0x16
* Arguments:   - int32_t a: input element
*              - unsigned int hint: hint bit
*
* Returns corrected high bits.
**************************************************/
int32_t use_hint(int32_t a, unsigned int hint) {
    3568:	00050693          	mv	a3,a0
  a1 &= 15;
    356c:	00f7f513          	andi	a0,a5,15
  int32_t a0, a1;

  a1 = decompose(&a0, a);
  if(hint == 0)
    3570:	04058263          	beqz	a1,35b4 <pqcrystals_dilithium3_ref_use_hint+0x68>
  *a0  = a - a1*2*GAMMA2;
    3574:	00a51793          	slli	a5,a0,0xa
    3578:	40f507b3          	sub	a5,a0,a5
    357c:	00979793          	slli	a5,a5,0x9
    3580:	00d787b3          	add	a5,a5,a3
  *a0 -= (((Q-1)/2 - *a0) >> 31) & Q;
    3584:	003ff737          	lui	a4,0x3ff
    3588:	40f70733          	sub	a4,a4,a5
    358c:	007fe6b7          	lui	a3,0x7fe
    3590:	41f75713          	srai	a4,a4,0x1f
    3594:	00168693          	addi	a3,a3,1 # 7fe001 <_end_of_memory+0x7ce001>
    3598:	00d77733          	and	a4,a4,a3
    return a1;

#if GAMMA2 == (Q-1)/32
  if(a0 > 0)
    359c:	00f75863          	bge	a4,a5,35ac <pqcrystals_dilithium3_ref_use_hint+0x60>
    return (a1 + 1) & 15;
    35a0:	00150513          	addi	a0,a0,1
    35a4:	00f57513          	andi	a0,a0,15
    35a8:	00008067          	ret
  else
    return (a1 - 1) & 15;
    35ac:	fff50513          	addi	a0,a0,-1
    35b0:	00f57513          	andi	a0,a0,15
  if(a0 > 0)
    return (a1 == 43) ?  0 : a1 + 1;
  else
    return (a1 ==  0) ? 43 : a1 - 1;
#endif
}
    35b4:	00008067          	ret

000035b8 <itoa>:
char str[21] = {0};
char* pbuf = &str[0];

void itoa(char *buf, unsigned int d, int base)
{
	int div = 1;
    35b8:	00100793          	li	a5,1
	while (d/div >= base)
    35bc:	04c5ea63          	bltu	a1,a2,3610 <itoa+0x58>
		div *= base;
    35c0:	02c787b3          	mul	a5,a5,a2
	while (d/div >= base)
    35c4:	02f5d6b3          	divu	a3,a1,a5
    35c8:	fec6fce3          	bgeu	a3,a2,35c0 <itoa+0x8>

	while (div != 0)
    35cc:	02078e63          	beqz	a5,3608 <itoa+0x50>
	{
		int num = d/div;
		d = d%div;
		div /= base;
		if (num > 9)
    35d0:	00900893          	li	a7,9
    35d4:	0080006f          	j	35dc <itoa+0x24>
    35d8:	02f5d6b3          	divu	a3,a1,a5
			*(buf++) = (num-10) + 'A';
    35dc:	0ff6f713          	zext.b	a4,a3
    35e0:	03770813          	addi	a6,a4,55 # 3ff037 <_end_of_memory+0x3cf037>
		else
			*(buf++) = num + '0';
    35e4:	03070713          	addi	a4,a4,48
			*(buf++) = (num-10) + 'A';
    35e8:	00150513          	addi	a0,a0,1
			*(buf++) = num + '0';
    35ec:	0ff77713          	zext.b	a4,a4
		d = d%div;
    35f0:	02f5f5b3          	remu	a1,a1,a5
		div /= base;
    35f4:	02c7c7b3          	div	a5,a5,a2
		if (num > 9)
    35f8:	00d8d463          	bge	a7,a3,3600 <itoa+0x48>
			*(buf++) = (num-10) + 'A';
    35fc:	0ff87713          	zext.b	a4,a6
    3600:	fee50fa3          	sb	a4,-1(a0)
	while (div != 0)
    3604:	fc079ae3          	bnez	a5,35d8 <itoa+0x20>
	}
  *(buf++) = '\0';
    3608:	00050023          	sb	zero,0(a0)
}
    360c:	00008067          	ret
    3610:	00058693          	mv	a3,a1
    3614:	fbdff06f          	j	35d0 <itoa+0x18>

00003618 <print_runtime>:

void print_runtime(unsigned int cycle_start, unsigned int cycle_end)
{
  unsigned int clock_cycles = cycle_end - cycle_start;

  itoa(pbuf, cycle_start, 10);
    3618:	00005817          	auipc	a6,0x5
    361c:	70c80813          	addi	a6,a6,1804 # 8d24 <pbuf>
	while (d/div >= base)
    3620:	00900793          	li	a5,9
  itoa(pbuf, cycle_start, 10);
    3624:	00082883          	lw	a7,0(a6)
  unsigned int clock_cycles = cycle_end - cycle_start;
    3628:	40a58633          	sub	a2,a1,a0
	while (d/div >= base)
    362c:	24a7f063          	bgeu	a5,a0,386c <print_runtime+0x254>
	int div = 1;
    3630:	00100793          	li	a5,1
	while (d/div >= base)
    3634:	00900693          	li	a3,9
		div *= base;
    3638:	00279713          	slli	a4,a5,0x2
    363c:	00f707b3          	add	a5,a4,a5
    3640:	00179793          	slli	a5,a5,0x1
	while (d/div >= base)
    3644:	02f55733          	divu	a4,a0,a5
    3648:	fee6e8e3          	bltu	a3,a4,3638 <print_runtime+0x20>
		div /= base;
    364c:	00a00e93          	li	t4,10
		if (num > 9)
    3650:	00900e13          	li	t3,9
		int num = d/div;
    3654:	02f55333          	divu	t1,a0,a5
			*(buf++) = (num-10) + 'A';
    3658:	00188893          	addi	a7,a7,1
    365c:	0ff37693          	zext.b	a3,t1
    3660:	03768713          	addi	a4,a3,55
		d = d%div;
    3664:	02f57533          	remu	a0,a0,a5
			*(buf++) = num + '0';
    3668:	03068693          	addi	a3,a3,48
			*(buf++) = (num-10) + 'A';
    366c:	0ff77713          	zext.b	a4,a4
		div /= base;
    3670:	03d7c7b3          	div	a5,a5,t4
		if (num > 9)
    3674:	006e4463          	blt	t3,t1,367c <print_runtime+0x64>
			*(buf++) = num + '0';
    3678:	0ff6f713          	zext.b	a4,a3
    367c:	fee88fa3          	sb	a4,-1(a7)
	while (div != 0)
    3680:	fc079ae3          	bnez	a5,3654 <print_runtime+0x3c>
  *(buf++) = '\0';
    3684:	00088023          	sb	zero,0(a7)
  while (XUartChanged_IsTransmitFull(BaseAddress));
  X_mWriteReg(BaseAddress, PS7_UART_DATA_OUT_REGISTER, Data);
}

void uart_send_string(char *ptr) {
  while (*ptr) {
    3688:	02000513          	li	a0,32
  *(buf++) = '\0';
    368c:	00005697          	auipc	a3,0x5
    3690:	66068693          	addi	a3,a3,1632 # 8cec <__clz_tab+0x200>
    while (XUartChanged_IsTransmitFull(BASE_ADDRESS_U));
    3694:	e0001737          	lui	a4,0xe0001
    3698:	02c72783          	lw	a5,44(a4) # e000102c <_end_of_memory+0xdffd102c>
    369c:	0107f793          	andi	a5,a5,16
    36a0:	fe079ce3          	bnez	a5,3698 <print_runtime+0x80>
    X_mWriteReg(BASE_ADDRESS_U, PS7_UART_DATA_OUT_REGISTER, *ptr++);
    36a4:	00168693          	addi	a3,a3,1
    36a8:	02a72823          	sw	a0,48(a4)
  while (*ptr) {
    36ac:	0006c503          	lbu	a0,0(a3)
    36b0:	fe0514e3          	bnez	a0,3698 <print_runtime+0x80>
    36b4:	00005517          	auipc	a0,0x5
    36b8:	6a450513          	addi	a0,a0,1700 # 8d58 <str>
    36bc:	00054683          	lbu	a3,0(a0)
    36c0:	00050893          	mv	a7,a0
    while (XUartChanged_IsTransmitFull(BASE_ADDRESS_U));
    36c4:	e0001737          	lui	a4,0xe0001
  while (*ptr) {
    36c8:	02068063          	beqz	a3,36e8 <print_runtime+0xd0>
    while (XUartChanged_IsTransmitFull(BASE_ADDRESS_U));
    36cc:	02c72783          	lw	a5,44(a4) # e000102c <_end_of_memory+0xdffd102c>
    36d0:	0107f793          	andi	a5,a5,16
    36d4:	fe079ce3          	bnez	a5,36cc <print_runtime+0xb4>
    X_mWriteReg(BASE_ADDRESS_U, PS7_UART_DATA_OUT_REGISTER, *ptr++);
    36d8:	00188893          	addi	a7,a7,1
    36dc:	02d72823          	sw	a3,48(a4)
  while (*ptr) {
    36e0:	0008c683          	lbu	a3,0(a7)
    36e4:	fe0694e3          	bnez	a3,36cc <print_runtime+0xb4>
	while (d/div >= base)
    36e8:	00900713          	li	a4,9
  itoa(pbuf, cycle_end, 10);
    36ec:	00082883          	lw	a7,0(a6)
	int div = 1;
    36f0:	00100793          	li	a5,1
	while (d/div >= base)
    36f4:	00900693          	li	a3,9
    36f8:	00b77c63          	bgeu	a4,a1,3710 <print_runtime+0xf8>
		div *= base;
    36fc:	00279713          	slli	a4,a5,0x2
    3700:	00f707b3          	add	a5,a4,a5
    3704:	00179793          	slli	a5,a5,0x1
	while (d/div >= base)
    3708:	02f5d733          	divu	a4,a1,a5
    370c:	fee6e8e3          	bltu	a3,a4,36fc <print_runtime+0xe4>
		div /= base;
    3710:	00a00e93          	li	t4,10
		if (num > 9)
    3714:	00900e13          	li	t3,9
		int num = d/div;
    3718:	02f5d333          	divu	t1,a1,a5
			*(buf++) = (num-10) + 'A';
    371c:	00188893          	addi	a7,a7,1
    3720:	0ff37693          	zext.b	a3,t1
    3724:	03768713          	addi	a4,a3,55
		d = d%div;
    3728:	02f5f5b3          	remu	a1,a1,a5
			*(buf++) = num + '0';
    372c:	03068693          	addi	a3,a3,48
			*(buf++) = (num-10) + 'A';
    3730:	0ff77713          	zext.b	a4,a4
		div /= base;
    3734:	03d7c7b3          	div	a5,a5,t4
		if (num > 9)
    3738:	006e4463          	blt	t3,t1,3740 <print_runtime+0x128>
			*(buf++) = num + '0';
    373c:	0ff6f713          	zext.b	a4,a3
    3740:	fee88fa3          	sb	a4,-1(a7)
	while (div != 0)
    3744:	fc079ae3          	bnez	a5,3718 <print_runtime+0x100>
  *(buf++) = '\0';
    3748:	00088023          	sb	zero,0(a7)
  while (*ptr) {
    374c:	02000593          	li	a1,32
  *(buf++) = '\0';
    3750:	00005697          	auipc	a3,0x5
    3754:	5ac68693          	addi	a3,a3,1452 # 8cfc <__clz_tab+0x210>
    while (XUartChanged_IsTransmitFull(BASE_ADDRESS_U));
    3758:	e0001737          	lui	a4,0xe0001
    375c:	02c72783          	lw	a5,44(a4) # e000102c <_end_of_memory+0xdffd102c>
    3760:	0107f793          	andi	a5,a5,16
    3764:	fe079ce3          	bnez	a5,375c <print_runtime+0x144>
    X_mWriteReg(BASE_ADDRESS_U, PS7_UART_DATA_OUT_REGISTER, *ptr++);
    3768:	00168693          	addi	a3,a3,1
    376c:	02b72823          	sw	a1,48(a4)
  while (*ptr) {
    3770:	0006c583          	lbu	a1,0(a3)
    3774:	fe0594e3          	bnez	a1,375c <print_runtime+0x144>
    3778:	00054683          	lbu	a3,0(a0)
    377c:	00005597          	auipc	a1,0x5
    3780:	5dc58593          	addi	a1,a1,1500 # 8d58 <str>
    while (XUartChanged_IsTransmitFull(BASE_ADDRESS_U));
    3784:	e0001737          	lui	a4,0xe0001
  while (*ptr) {
    3788:	02068063          	beqz	a3,37a8 <print_runtime+0x190>
    while (XUartChanged_IsTransmitFull(BASE_ADDRESS_U));
    378c:	02c72783          	lw	a5,44(a4) # e000102c <_end_of_memory+0xdffd102c>
    3790:	0107f793          	andi	a5,a5,16
    3794:	fe079ce3          	bnez	a5,378c <print_runtime+0x174>
    X_mWriteReg(BASE_ADDRESS_U, PS7_UART_DATA_OUT_REGISTER, *ptr++);
    3798:	00158593          	addi	a1,a1,1
    379c:	02d72823          	sw	a3,48(a4)
  while (*ptr) {
    37a0:	0005c683          	lbu	a3,0(a1)
    37a4:	fe0694e3          	bnez	a3,378c <print_runtime+0x174>
	while (d/div >= base)
    37a8:	00900713          	li	a4,9
  itoa(pbuf, clock_cycles, 10);
    37ac:	00082583          	lw	a1,0(a6)
	int div = 1;
    37b0:	00100793          	li	a5,1
	while (d/div >= base)
    37b4:	00900693          	li	a3,9
    37b8:	00c77c63          	bgeu	a4,a2,37d0 <print_runtime+0x1b8>
		div *= base;
    37bc:	00279713          	slli	a4,a5,0x2
    37c0:	00f707b3          	add	a5,a4,a5
    37c4:	00179793          	slli	a5,a5,0x1
	while (d/div >= base)
    37c8:	02f65733          	divu	a4,a2,a5
    37cc:	fee6e8e3          	bltu	a3,a4,37bc <print_runtime+0x1a4>
		div /= base;
    37d0:	00a00313          	li	t1,10
		if (num > 9)
    37d4:	00900893          	li	a7,9
		int num = d/div;
    37d8:	02f65833          	divu	a6,a2,a5
			*(buf++) = (num-10) + 'A';
    37dc:	00158593          	addi	a1,a1,1
    37e0:	0ff87693          	zext.b	a3,a6
    37e4:	03768713          	addi	a4,a3,55
		d = d%div;
    37e8:	02f67633          	remu	a2,a2,a5
			*(buf++) = num + '0';
    37ec:	03068693          	addi	a3,a3,48
			*(buf++) = (num-10) + 'A';
    37f0:	0ff77713          	zext.b	a4,a4
		div /= base;
    37f4:	0267c7b3          	div	a5,a5,t1
		if (num > 9)
    37f8:	0108c463          	blt	a7,a6,3800 <print_runtime+0x1e8>
			*(buf++) = num + '0';
    37fc:	0ff6f713          	zext.b	a4,a3
    3800:	fee58fa3          	sb	a4,-1(a1)
	while (div != 0)
    3804:	fc079ae3          	bnez	a5,37d8 <print_runtime+0x1c0>
  *(buf++) = '\0';
    3808:	00058023          	sb	zero,0(a1)
  while (*ptr) {
    380c:	02000613          	li	a2,32
  *(buf++) = '\0';
    3810:	00005697          	auipc	a3,0x5
    3814:	4fc68693          	addi	a3,a3,1276 # 8d0c <__clz_tab+0x220>
    while (XUartChanged_IsTransmitFull(BASE_ADDRESS_U));
    3818:	e0001737          	lui	a4,0xe0001
    381c:	02c72783          	lw	a5,44(a4) # e000102c <_end_of_memory+0xdffd102c>
    3820:	0107f793          	andi	a5,a5,16
    3824:	fe079ce3          	bnez	a5,381c <print_runtime+0x204>
    X_mWriteReg(BASE_ADDRESS_U, PS7_UART_DATA_OUT_REGISTER, *ptr++);
    3828:	00168693          	addi	a3,a3,1
    382c:	02c72823          	sw	a2,48(a4)
  while (*ptr) {
    3830:	0006c603          	lbu	a2,0(a3)
    3834:	fe0614e3          	bnez	a2,381c <print_runtime+0x204>
    3838:	00054683          	lbu	a3,0(a0)
    383c:	00005617          	auipc	a2,0x5
    3840:	51c60613          	addi	a2,a2,1308 # 8d58 <str>
    while (XUartChanged_IsTransmitFull(BASE_ADDRESS_U));
    3844:	e0001737          	lui	a4,0xe0001
  while (*ptr) {
    3848:	02068063          	beqz	a3,3868 <print_runtime+0x250>
    while (XUartChanged_IsTransmitFull(BASE_ADDRESS_U));
    384c:	02c72783          	lw	a5,44(a4) # e000102c <_end_of_memory+0xdffd102c>
    3850:	0107f793          	andi	a5,a5,16
    3854:	fe079ce3          	bnez	a5,384c <print_runtime+0x234>
    X_mWriteReg(BASE_ADDRESS_U, PS7_UART_DATA_OUT_REGISTER, *ptr++);
    3858:	00160613          	addi	a2,a2,1
    385c:	02d72823          	sw	a3,48(a4)
  while (*ptr) {
    3860:	00064683          	lbu	a3,0(a2)
    3864:	fe0694e3          	bnez	a3,384c <print_runtime+0x234>
}
    3868:	00008067          	ret
	int div = 1;
    386c:	00100793          	li	a5,1
    3870:	dddff06f          	j	364c <print_runtime+0x34>

00003874 <XUARTChanged_SendByte>:
  while (XUartChanged_IsTransmitFull(BaseAddress));
    3874:	02c50713          	addi	a4,a0,44
    3878:	00072783          	lw	a5,0(a4)
    387c:	0107f793          	andi	a5,a5,16
    3880:	fe079ce3          	bnez	a5,3878 <XUARTChanged_SendByte+0x4>
  X_mWriteReg(BaseAddress, PS7_UART_DATA_OUT_REGISTER, Data);
    3884:	02b52823          	sw	a1,48(a0)
}
    3888:	00008067          	ret

0000388c <uart_send_string>:
  while (*ptr) {
    388c:	00054683          	lbu	a3,0(a0)
    3890:	02068263          	beqz	a3,38b4 <uart_send_string+0x28>
    while (XUartChanged_IsTransmitFull(BASE_ADDRESS_U));
    3894:	e0001737          	lui	a4,0xe0001
    3898:	02c72783          	lw	a5,44(a4) # e000102c <_end_of_memory+0xdffd102c>
    389c:	0107f793          	andi	a5,a5,16
    38a0:	fe079ce3          	bnez	a5,3898 <uart_send_string+0xc>
    X_mWriteReg(BASE_ADDRESS_U, PS7_UART_DATA_OUT_REGISTER, *ptr++);
    38a4:	00150513          	addi	a0,a0,1
    38a8:	02d72823          	sw	a3,48(a4)
  while (*ptr) {
    38ac:	00054683          	lbu	a3,0(a0)
    38b0:	fe0694e3          	bnez	a3,3898 <uart_send_string+0xc>
  }
}
    38b4:	00008067          	ret

000038b8 <XUART_Reset>:

void XUART_Reset(void)
{
  X_mWriteReg(BASE_ADDRESS_U, PS7_UART_CONTROL_REGISTER, UART_CR_RESET_TX_RX); // Ctrl_reg disable interrupts, reset FIFOs
    38b8:	e00017b7          	lui	a5,0xe0001
    38bc:	00300713          	li	a4,3
    38c0:	00e7a023          	sw	a4,0(a5) # e0001000 <_end_of_memory+0xdffd1000>
}
    38c4:	00008067          	ret

000038c8 <KeccakF1600_StatePermute>:
        uint64_t Eka, Eke, Eki, Eko, Eku;
        uint64_t Ema, Eme, Emi, Emo, Emu;
        uint64_t Esa, Ese, Esi, Eso, Esu;

        //copyFromState(A, state)
        Aba = state[ 0];
    38c8:	00052783          	lw	a5,0(a0)
{
    38cc:	e8010113          	addi	sp,sp,-384
    38d0:	17212a23          	sw	s2,372(sp)
        Aba = state[ 0];
    38d4:	0af12823          	sw	a5,176(sp)
    38d8:	00452783          	lw	a5,4(a0)
{
    38dc:	17312823          	sw	s3,368(sp)
    38e0:	17512423          	sw	s5,360(sp)
        Aba = state[ 0];
    38e4:	0af12a23          	sw	a5,180(sp)
        Abe = state[ 1];
    38e8:	00852783          	lw	a5,8(a0)
{
    38ec:	17612223          	sw	s6,356(sp)
    38f0:	17712023          	sw	s7,352(sp)
        Abe = state[ 1];
    38f4:	00f12823          	sw	a5,16(sp)
    38f8:	00c52783          	lw	a5,12(a0)
{
    38fc:	15812e23          	sw	s8,348(sp)
    3900:	15912c23          	sw	s9,344(sp)
        Abe = state[ 1];
    3904:	0af12c23          	sw	a5,184(sp)
        Abi = state[ 2];
    3908:	01052783          	lw	a5,16(a0)
{
    390c:	15a12a23          	sw	s10,340(sp)
    3910:	15b12823          	sw	s11,336(sp)
        Abi = state[ 2];
    3914:	0af12e23          	sw	a5,188(sp)
    3918:	01452783          	lw	a5,20(a0)
{
    391c:	16812e23          	sw	s0,380(sp)
    3920:	16912c23          	sw	s1,376(sp)
        Abi = state[ 2];
    3924:	0cf12023          	sw	a5,192(sp)
        Abo = state[ 3];
    3928:	01852783          	lw	a5,24(a0)
{
    392c:	17412623          	sw	s4,364(sp)
        Abo = state[ 3];
    3930:	0cf12223          	sw	a5,196(sp)
    3934:	01c52783          	lw	a5,28(a0)
    3938:	0cf12423          	sw	a5,200(sp)
        Abu = state[ 4];
    393c:	02052783          	lw	a5,32(a0)
    3940:	0cf12623          	sw	a5,204(sp)
    3944:	02452783          	lw	a5,36(a0)
    3948:	0cf12823          	sw	a5,208(sp)
        Aga = state[ 5];
    394c:	02852783          	lw	a5,40(a0)
        Age = state[ 6];
    3950:	03052d83          	lw	s11,48(a0)
        Agi = state[ 7];
        Ago = state[ 8];
        Agu = state[ 9];
        Aka = state[10];
        Ake = state[11];
        Aki = state[12];
    3954:	06052c83          	lw	s9,96(a0)
        Aga = state[ 5];
    3958:	0cf12a23          	sw	a5,212(sp)
    395c:	02c52783          	lw	a5,44(a0)
        Aki = state[12];
    3960:	06452c03          	lw	s8,100(a0)
        Aga = state[ 5];
    3964:	0cf12c23          	sw	a5,216(sp)
        Age = state[ 6];
    3968:	03452783          	lw	a5,52(a0)
    396c:	00f12a23          	sw	a5,20(sp)
        Agi = state[ 7];
    3970:	03852783          	lw	a5,56(a0)
    3974:	00f12e23          	sw	a5,28(sp)
    3978:	03c52783          	lw	a5,60(a0)
    397c:	02f12023          	sw	a5,32(sp)
        Ago = state[ 8];
    3980:	04052783          	lw	a5,64(a0)
    3984:	0cf12e23          	sw	a5,220(sp)
    3988:	04452783          	lw	a5,68(a0)
    398c:	0ef12023          	sw	a5,224(sp)
        Agu = state[ 9];
    3990:	04852783          	lw	a5,72(a0)
    3994:	00f12c23          	sw	a5,24(sp)
    3998:	04c52783          	lw	a5,76(a0)
    399c:	02f12223          	sw	a5,36(sp)
        Aka = state[10];
    39a0:	05052783          	lw	a5,80(a0)
    39a4:	02f12423          	sw	a5,40(sp)
    39a8:	05452783          	lw	a5,84(a0)
    39ac:	02f12623          	sw	a5,44(sp)
        Ake = state[11];
    39b0:	05852783          	lw	a5,88(a0)
    39b4:	0ef12223          	sw	a5,228(sp)
    39b8:	05c52783          	lw	a5,92(a0)
    39bc:	0ef12423          	sw	a5,232(sp)
        Ako = state[13];
    39c0:	06852783          	lw	a5,104(a0)
    39c4:	02f12823          	sw	a5,48(sp)
    39c8:	06c52783          	lw	a5,108(a0)
    39cc:	02f12a23          	sw	a5,52(sp)
        Aku = state[14];
    39d0:	07052783          	lw	a5,112(a0)
        Ama = state[15];
        Ame = state[16];
        Ami = state[17];
        Amo = state[18];
    39d4:	09052b03          	lw	s6,144(a0)
    39d8:	09452983          	lw	s3,148(a0)
        Aku = state[14];
    39dc:	0ef12623          	sw	a5,236(sp)
    39e0:	07452783          	lw	a5,116(a0)
    39e4:	000b0b93          	mv	s7,s6
    39e8:	00098d13          	mv	s10,s3
    39ec:	0ef12823          	sw	a5,240(sp)
        Ama = state[15];
    39f0:	07852783          	lw	a5,120(a0)
    39f4:	000c0b13          	mv	s6,s8
    39f8:	0ef12a23          	sw	a5,244(sp)
    39fc:	07c52783          	lw	a5,124(a0)
    3a00:	0ef12c23          	sw	a5,248(sp)
        Ame = state[16];
    3a04:	08052783          	lw	a5,128(a0)
    3a08:	02f12c23          	sw	a5,56(sp)
    3a0c:	08452783          	lw	a5,132(a0)
    3a10:	02f12e23          	sw	a5,60(sp)
        Ami = state[17];
    3a14:	08852783          	lw	a5,136(a0)
    3a18:	04f12e23          	sw	a5,92(sp)
    3a1c:	08c52783          	lw	a5,140(a0)
    3a20:	06f12023          	sw	a5,96(sp)
        Amu = state[19];
    3a24:	09852783          	lw	a5,152(a0)
    3a28:	04f12023          	sw	a5,64(sp)
    3a2c:	09c52783          	lw	a5,156(a0)
    3a30:	04f12223          	sw	a5,68(sp)
        Asa = state[20];
    3a34:	0a052783          	lw	a5,160(a0)
    3a38:	04f12423          	sw	a5,72(sp)
    3a3c:	0a452783          	lw	a5,164(a0)
    3a40:	04f12623          	sw	a5,76(sp)
        Ase = state[21];
    3a44:	0a852783          	lw	a5,168(a0)
    3a48:	06f12623          	sw	a5,108(sp)
    3a4c:	0ac52783          	lw	a5,172(a0)
    3a50:	06f12823          	sw	a5,112(sp)
        Asi = state[22];
