
/home/josejuan/git_repos/fpau_tests/pqc_sw/dilithium/ref/test/test_dilithium5:     file format elf32-littleriscv


Disassembly of section .text.init:

00000000 <_start>:
.section .text.init

.globl _start
_start:
  la gp, _gp
   0:	00009197          	auipc	gp,0x9
   4:	61418193          	addi	gp,gp,1556 # 9614 <_gp>
  la sp, _end_of_memory
   8:	00030117          	auipc	sp,0x30
   c:	ff810113          	addi	sp,sp,-8 # 30000 <_end_of_memory>
  jal main
  10:	134080ef          	jal	ra,8144 <main>
1:
  j 1b
  14:	0000006f          	j	14 <_start+0x14>

Disassembly of section .text:

00000018 <randombytes>:
  unsigned int i;
  uint8_t buf[8];
  static uint64_t ctr = 0;

  for(i = 0; i < 8; ++i)
    buf[i] = ctr >> 8*i;
      18:	00009317          	auipc	t1,0x9
      1c:	e1030313          	addi	t1,t1,-496 # 8e28 <ctr.0>
      20:	00032683          	lw	a3,0(t1)
      24:	00432603          	lw	a2,4(t1)
      28:	ff010e37          	lui	t3,0xff010
      2c:	0086d893          	srli	a7,a3,0x8
      30:	00865813          	srli	a6,a2,0x8
      34:	0ff8f893          	zext.b	a7,a7
      38:	0ff87813          	zext.b	a6,a6
      3c:	00889893          	slli	a7,a7,0x8
      40:	0ff6f713          	zext.b	a4,a3
      44:	00881813          	slli	a6,a6,0x8
      48:	0ff67793          	zext.b	a5,a2
      4c:	fffe0e13          	addi	t3,t3,-1 # ff00ffff <_end_of_memory+0xfefdffff>
      50:	01176733          	or	a4,a4,a7
      54:	0107e7b3          	or	a5,a5,a6
      58:	00ff0eb7          	lui	t4,0xff0
      5c:	00ff08b7          	lui	a7,0xff0
      60:	01d6feb3          	and	t4,a3,t4
      64:	011678b3          	and	a7,a2,a7
      68:	01c77733          	and	a4,a4,t3
      6c:	01c7f7b3          	and	a5,a5,t3
      70:	01000837          	lui	a6,0x1000
      74:	fff80813          	addi	a6,a6,-1 # ffffff <_end_of_memory+0xfcffff>

  ctr++;
      78:	00168f13          	addi	t5,a3,1
    buf[i] = ctr >> 8*i;
      7c:	01d76733          	or	a4,a4,t4
      80:	0186de13          	srli	t3,a3,0x18
      84:	0117e7b3          	or	a5,a5,a7
      88:	01865893          	srli	a7,a2,0x18
void randombytes(uint8_t *out, size_t outlen) {
      8c:	fe010113          	addi	sp,sp,-32
  ctr++;
      90:	00df36b3          	sltu	a3,t5,a3
    buf[i] = ctr >> 8*i;
      94:	018e1e13          	slli	t3,t3,0x18
      98:	01077733          	and	a4,a4,a6
      9c:	01889893          	slli	a7,a7,0x18
      a0:	0107f7b3          	and	a5,a5,a6
      a4:	01c76733          	or	a4,a4,t3
  ctr++;
      a8:	00c68833          	add	a6,a3,a2
    buf[i] = ctr >> 8*i;
      ac:	0117e7b3          	or	a5,a5,a7
  shake128(out, outlen, buf, 8);
      b0:	00810613          	addi	a2,sp,8
      b4:	00800693          	li	a3,8
void randombytes(uint8_t *out, size_t outlen) {
      b8:	00112e23          	sw	ra,28(sp)
    buf[i] = ctr >> 8*i;
      bc:	00e12423          	sw	a4,8(sp)
      c0:	00f12623          	sw	a5,12(sp)
  ctr++;
      c4:	01e32023          	sw	t5,0(t1)
      c8:	01032223          	sw	a6,4(t1)
  shake128(out, outlen, buf, 8);
      cc:	7b4060ef          	jal	ra,6880 <pqcrystals_dilithium_fips202_ref_shake128>
}
      d0:	01c12083          	lw	ra,28(sp)
      d4:	02010113          	addi	sp,sp,32
      d8:	00008067          	ret

000000dc <orca_register_timer_handler>:

#endif //#if ORCA_INTERRUPT_HANDLERS


orca_exception_handler orca_register_timer_handler(orca_exception_handler the_handler,void** the_context){
	orca_exception_handler old=timer_handler;
      dc:	00009797          	auipc	a5,0x9
      e0:	d6078793          	addi	a5,a5,-672 # 8e3c <timer_handler>
      e4:	0007a683          	lw	a3,0(a5)
	void* old_context=timer_context;
      e8:	00009717          	auipc	a4,0x9
      ec:	d5070713          	addi	a4,a4,-688 # 8e38 <timer_context>
	timer_handler = the_handler;
      f0:	00a7a023          	sw	a0,0(a5)
	void* old_context=timer_context;
      f4:	00072783          	lw	a5,0(a4)
	if(the_context){
      f8:	00058863          	beqz	a1,108 <orca_register_timer_handler+0x2c>
		timer_context = *the_context;
      fc:	0005a603          	lw	a2,0(a1)
		*the_context = old_context;
     100:	00f5a023          	sw	a5,0(a1)
		timer_context = *the_context;
     104:	00c72023          	sw	a2,0(a4)
	}
	return old;
}
     108:	00068513          	mv	a0,a3
     10c:	00008067          	ret

00000110 <orca_register_ecall_handler>:
orca_exception_handler orca_register_ecall_handler(orca_exception_handler the_handler,void** the_context){
	orca_exception_handler old=ecall_handler;
     110:	00009797          	auipc	a5,0x9
     114:	d2478793          	addi	a5,a5,-732 # 8e34 <ecall_handler>
     118:	0007a683          	lw	a3,0(a5)
	void* old_context=ecall_context;
     11c:	00009717          	auipc	a4,0x9
     120:	d1470713          	addi	a4,a4,-748 # 8e30 <ecall_context>
	ecall_handler = the_handler;
     124:	00a7a023          	sw	a0,0(a5)
	void* old_context=ecall_context;
     128:	00072783          	lw	a5,0(a4)
	if(the_context){
     12c:	00058863          	beqz	a1,13c <orca_register_ecall_handler+0x2c>
		ecall_context = *the_context;
     130:	0005a603          	lw	a2,0(a1)
		*the_context = old_context;
     134:	00f5a023          	sw	a5,0(a1)
		ecall_context = *the_context;
     138:	00c72023          	sw	a2,0(a4)
	}
	return old;
}
     13c:	00068513          	mv	a0,a3
     140:	00008067          	ret

00000144 <register_orca_illegal_instruction_handler>:

//Register an illegal instruction
int register_orca_illegal_instruction_handler(orca_illegal_instruction_handler the_handler, void *the_context){
	int return_code = 0;
	if(illegal_instruction_handler){
     144:	00009797          	auipc	a5,0x9
     148:	d0078793          	addi	a5,a5,-768 # 8e44 <illegal_instruction_handler>
     14c:	0007a703          	lw	a4,0(a5)
		return_code |= ORCA_EXCEPTION_ALREADY_REGISTERED;
	}
	illegal_instruction_handler = the_handler;
     150:	00a7a023          	sw	a0,0(a5)
	illegal_instruction_context = the_context;
     154:	00009797          	auipc	a5,0x9
     158:	cec78793          	addi	a5,a5,-788 # 8e40 <illegal_instruction_context>
     15c:	00b7a023          	sw	a1,0(a5)
	return return_code;
}
     160:	00e03533          	snez	a0,a4
     164:	00008067          	ret

00000168 <orca_register_interrupt_handler>:

	return return_code;
#else //#if ORCA_INTERRUPT_HANDLERS
		return ORCA_UNSUPPORTED_EXCEPTION_REGISTRATION;
#endif //#else //#if ORCA_INTERRUPT_HANDLERS
}
     168:	00200513          	li	a0,2
     16c:	00008067          	ret

00000170 <handle_exception>:

//Handle an exception.  Illegal instructions and interrupts can be
//passed to handlers set using the
//register_orca_illegal_instruction_handler() and
//register_orca_interrupt_handler() calls respectively.
int handle_exception(size_t cause, size_t epc, size_t regs[32]){
     170:	ff010113          	addi	sp,sp,-16
     174:	00812423          	sw	s0,8(sp)
     178:	00112623          	sw	ra,12(sp)
	switch(cause){
     17c:	00b00713          	li	a4,11
int handle_exception(size_t cause, size_t epc, size_t regs[32]){
     180:	00058413          	mv	s0,a1
	switch(cause){
     184:	0ee50263          	beq	a0,a4,268 <handle_exception+0xf8>
     188:	00050793          	mv	a5,a0
     18c:	06a76c63          	bltu	a4,a0,204 <handle_exception+0x94>
     190:	00400713          	li	a4,4
     194:	00060693          	mv	a3,a2
     198:	10e50463          	beq	a0,a4,2a0 <handle_exception+0x130>
     19c:	00600713          	li	a4,6
     1a0:	08e51663          	bne	a0,a4,22c <handle_exception+0xbc>
		if(timer_handler){
			timer_handler(timer_context);
			break;
		}else{ while(1); }
	case CAUSE_MISALIGNED_STORE:
		handle_misaligned_store(*((size_t*)epc), regs);
     1a4:	0005a783          	lw	a5,0(a1)
	csrr(mtval,address);
     1a8:	34302673          	csrr	a2,mtval
	size_t regval =reg[(instr>>15) & 0x1F] ;
     1ac:	00d7d713          	srli	a4,a5,0xd
     1b0:	07c77713          	andi	a4,a4,124
     1b4:	00e68733          	add	a4,a3,a4
     1b8:	00072703          	lw	a4,0(a4)
	switch((instr >>12) &3){
     1bc:	00c7d793          	srli	a5,a5,0xc
     1c0:	0037f793          	andi	a5,a5,3
		address[1] = ((regval>>8)&0xFF);
     1c4:	00875693          	srli	a3,a4,0x8
	switch((instr >>12) &3){
     1c8:	00100513          	li	a0,1
		address[0] = regval&0xFF;
     1cc:	0ff77593          	zext.b	a1,a4
		address[1] = ((regval>>8)&0xFF);
     1d0:	0ff6f693          	zext.b	a3,a3
	switch((instr >>12) &3){
     1d4:	00a78a63          	beq	a5,a0,1e8 <handle_exception+0x78>
		address[2] = ((regval>>16)&0xFF);
     1d8:	01075793          	srli	a5,a4,0x10
		address[3] = ((regval>>24)&0xFF);
     1dc:	01875713          	srli	a4,a4,0x18
		address[2] = ((regval>>16)&0xFF);
     1e0:	00f60123          	sb	a5,2(a2)
		address[3] = ((regval>>24)&0xFF);
     1e4:	00e601a3          	sb	a4,3(a2)
		break;
     1e8:	00d600a3          	sb	a3,1(a2)
     1ec:	00b60023          	sb	a1,0(a2)
	default:
		while(1);

	}
	return epc;
}
     1f0:	00c12083          	lw	ra,12(sp)
		epc+=4;
     1f4:	00440513          	addi	a0,s0,4
}
     1f8:	00812403          	lw	s0,8(sp)
     1fc:	01010113          	addi	sp,sp,16
     200:	00008067          	ret
	switch(cause){
     204:	80000737          	lui	a4,0x80000
     208:	00770693          	addi	a3,a4,7 # 80000007 <_end_of_memory+0x7ffd0007>
     20c:	0ed50c63          	beq	a0,a3,304 <handle_exception+0x194>
     210:	00b70713          	addi	a4,a4,11
	return epc;
     214:	00058513          	mv	a0,a1
	switch(cause){
     218:	14e79663          	bne	a5,a4,364 <handle_exception+0x1f4>
}
     21c:	00c12083          	lw	ra,12(sp)
     220:	00812403          	lw	s0,8(sp)
     224:	01010113          	addi	sp,sp,16
     228:	00008067          	ret
	switch(cause){
     22c:	00200713          	li	a4,2
     230:	02e51a63          	bne	a0,a4,264 <handle_exception+0xf4>
		if(illegal_instruction_handler){
     234:	00009797          	auipc	a5,0x9
     238:	c1078793          	addi	a5,a5,-1008 # 8e44 <illegal_instruction_handler>
     23c:	0007a783          	lw	a5,0(a5)
     240:	02078063          	beqz	a5,260 <handle_exception+0xf0>
}
     244:	00812403          	lw	s0,8(sp)
			epc=illegal_instruction_handler(cause,epc,regs,illegal_instruction_context);
     248:	00009717          	auipc	a4,0x9
     24c:	bf870713          	addi	a4,a4,-1032 # 8e40 <illegal_instruction_context>
}
     250:	00c12083          	lw	ra,12(sp)
			epc=illegal_instruction_handler(cause,epc,regs,illegal_instruction_context);
     254:	00072683          	lw	a3,0(a4)
}
     258:	01010113          	addi	sp,sp,16
			epc=illegal_instruction_handler(cause,epc,regs,illegal_instruction_context);
     25c:	00078067          	jr	a5
		}else{while(1);}
     260:	0000006f          	j	260 <handle_exception+0xf0>
		while(1);
     264:	0000006f          	j	264 <handle_exception+0xf4>
		if(ecall_handler){
     268:	00009797          	auipc	a5,0x9
     26c:	bcc78793          	addi	a5,a5,-1076 # 8e34 <ecall_handler>
     270:	0007a783          	lw	a5,0(a5)
     274:	02078463          	beqz	a5,29c <handle_exception+0x12c>
			ecall_handler(ecall_context);
     278:	00009717          	auipc	a4,0x9
     27c:	bb870713          	addi	a4,a4,-1096 # 8e30 <ecall_context>
     280:	00072503          	lw	a0,0(a4)
     284:	000780e7          	jalr	a5
}
     288:	00c12083          	lw	ra,12(sp)
			epc+=4;
     28c:	00440513          	addi	a0,s0,4
}
     290:	00812403          	lw	s0,8(sp)
     294:	01010113          	addi	sp,sp,16
     298:	00008067          	ret
		}else{ while(1); }
     29c:	0000006f          	j	29c <handle_exception+0x12c>
		handle_misaligned_load(*((size_t*)epc), regs);
     2a0:	0005a783          	lw	a5,0(a1)
	csrr(mtval,address);
     2a4:	34302673          	csrr	a2,mtval
	switch((instr >>12) &3){
     2a8:	00c7d713          	srli	a4,a5,0xc
     2ac:	00377713          	andi	a4,a4,3
     2b0:	00100593          	li	a1,1
     2b4:	08b70463          	beq	a4,a1,33c <handle_exception+0x1cc>
		intval=(address[3]<<24) | (address[2] << 16) | (address[1] <<8) | address[0];
     2b8:	00164503          	lbu	a0,1(a2)
     2bc:	00064803          	lbu	a6,0(a2)
     2c0:	00264583          	lbu	a1,2(a2)
     2c4:	00364703          	lbu	a4,3(a2)
     2c8:	00851513          	slli	a0,a0,0x8
     2cc:	01056533          	or	a0,a0,a6
     2d0:	01059613          	slli	a2,a1,0x10
     2d4:	00a66633          	or	a2,a2,a0
     2d8:	01871713          	slli	a4,a4,0x18
     2dc:	00c76733          	or	a4,a4,a2
	reg[(instr>>7) & 0x1F] = intval;
     2e0:	0057d793          	srli	a5,a5,0x5
}
     2e4:	00c12083          	lw	ra,12(sp)
		epc+=4;
     2e8:	00440513          	addi	a0,s0,4
	reg[(instr>>7) & 0x1F] = intval;
     2ec:	07c7f793          	andi	a5,a5,124
}
     2f0:	00812403          	lw	s0,8(sp)
	reg[(instr>>7) & 0x1F] = intval;
     2f4:	00f686b3          	add	a3,a3,a5
     2f8:	00e6a023          	sw	a4,0(a3)
}
     2fc:	01010113          	addi	sp,sp,16
     300:	00008067          	ret
		if(timer_handler){
     304:	00009797          	auipc	a5,0x9
     308:	b3878793          	addi	a5,a5,-1224 # 8e3c <timer_handler>
     30c:	0007a783          	lw	a5,0(a5)
     310:	02078463          	beqz	a5,338 <handle_exception+0x1c8>
			timer_handler(timer_context);
     314:	00009717          	auipc	a4,0x9
     318:	b2470713          	addi	a4,a4,-1244 # 8e38 <timer_context>
     31c:	00072503          	lw	a0,0(a4)
     320:	000780e7          	jalr	a5
}
     324:	00c12083          	lw	ra,12(sp)
	return epc;
     328:	00040513          	mv	a0,s0
}
     32c:	00812403          	lw	s0,8(sp)
     330:	01010113          	addi	sp,sp,16
     334:	00008067          	ret
		}else{ while(1); }
     338:	0000006f          	j	338 <handle_exception+0x1c8>
		intval=(address[1]<<8) | address[0];
     33c:	00164703          	lbu	a4,1(a2)
     340:	00064583          	lbu	a1,0(a2)
		if(!(instr & (1<<14))){//signed
     344:	00004637          	lui	a2,0x4
     348:	00871713          	slli	a4,a4,0x8
     34c:	00c7f633          	and	a2,a5,a2
     350:	00b76733          	or	a4,a4,a1
     354:	f80616e3          	bnez	a2,2e0 <handle_exception+0x170>
	reg[(instr>>7) & 0x1F] = intval;
     358:	01071713          	slli	a4,a4,0x10
     35c:	41075713          	srai	a4,a4,0x10
     360:	f81ff06f          	j	2e0 <handle_exception+0x170>
     364:	f01ff06f          	j	264 <handle_exception+0xf4>

00000368 <pqcrystals_dilithium5_ref_keypair>:
*              - uint8_t *sk: pointer to output private key (allocated
*                             array of CRYPTO_SECRETKEYBYTES bytes)
*
* Returns 0 (success)
**************************************************/
int crypto_sign_keypair(uint8_t *pk, uint8_t *sk) {
     368:	fffe92b7          	lui	t0,0xfffe9
     36c:	81010113          	addi	sp,sp,-2032
     370:	f2028293          	addi	t0,t0,-224 # fffe8f20 <_end_of_memory+0xfffb8f20>
     374:	7e112623          	sw	ra,2028(sp)
     378:	7e812423          	sw	s0,2024(sp)
     37c:	7e912223          	sw	s1,2020(sp)
     380:	7f212023          	sw	s2,2016(sp)
     384:	7d312e23          	sw	s3,2012(sp)
     388:	7d412c23          	sw	s4,2008(sp)
     38c:	00510133          	add	sp,sp,t0
#if defined(HW_TESTING_SEEDINIT_TO_ZERO)
  uint8_t seedbuf[2*SEEDBYTES + CRHBYTES] = {0};
     390:	07c00613          	li	a2,124
int crypto_sign_keypair(uint8_t *pk, uint8_t *sk) {
     394:	00050493          	mv	s1,a0
     398:	00058913          	mv	s2,a1
  uint8_t seedbuf[2*SEEDBYTES + CRHBYTES] = {0};
     39c:	03410513          	addi	a0,sp,52
     3a0:	00000593          	li	a1,0
  polyvecl mat[K];
  polyvecl s1, s1hat;
  polyveck s2, t1, t0;

  /* Get randomness for rho, rhoprime and key */
  randombytes(seedbuf, SEEDBYTES);
     3a4:	00018a37          	lui	s4,0x18
  uint8_t seedbuf[2*SEEDBYTES + CRHBYTES] = {0};
     3a8:	fffe8437          	lui	s0,0xfffe8
     3ac:	02012823          	sw	zero,48(sp)
     3b0:	4b9070ef          	jal	ra,8068 <memset>
  randombytes(seedbuf, SEEDBYTES);
     3b4:	78040413          	addi	s0,s0,1920 # fffe8780 <_end_of_memory+0xfffb8780>
     3b8:	8a0a0793          	addi	a5,s4,-1888 # 178a0 <_gp+0xe28c>
     3bc:	008787b3          	add	a5,a5,s0
     3c0:	01010713          	addi	a4,sp,16
     3c4:	00e78433          	add	s0,a5,a4
     3c8:	00040513          	mv	a0,s0
     3cc:	02000593          	li	a1,32
     3d0:	c49ff0ef          	jal	ra,18 <randombytes>
  shake256(seedbuf, 2*SEEDBYTES + CRHBYTES, seedbuf, SEEDBYTES);
     3d4:	02000693          	li	a3,32
     3d8:	00040613          	mv	a2,s0
     3dc:	00040513          	mv	a0,s0
     3e0:	08000593          	li	a1,128
     3e4:	65c060ef          	jal	ra,6a40 <pqcrystals_dilithium_fips202_ref_shake256>
  rhoprime = rho + SEEDBYTES;
  key = rhoprime + CRHBYTES;

  /* Expand matrix */
#ifndef NTT_TESTING
  polyvec_matrix_expand(mat, rho);
     3e8:	ffff2537          	lui	a0,0xffff2
     3ec:	8a0a0793          	addi	a5,s4,-1888
     3f0:	00a787b3          	add	a5,a5,a0
     3f4:	01010713          	addi	a4,sp,16
     3f8:	00e78533          	add	a0,a5,a4
     3fc:	00040593          	mv	a1,s0
     400:	4e4010ef          	jal	ra,18e4 <pqcrystals_dilithium5_ref_polyvec_matrix_expand>
#endif

  /* Sample short vectors s1 and s2 */
  polyvecl_uniform_eta(&s1, rhoprime, 0);
     404:	fffe99b7          	lui	s3,0xfffe9
     408:	80098513          	addi	a0,s3,-2048 # fffe8800 <_end_of_memory+0xfffb8800>
     40c:	8a0a0793          	addi	a5,s4,-1888
     410:	00a787b3          	add	a5,a5,a0
     414:	01010713          	addi	a4,sp,16
     418:	02040413          	addi	s0,s0,32
     41c:	00e78533          	add	a0,a5,a4
     420:	00000613          	li	a2,0
     424:	00040593          	mv	a1,s0
     428:	640010ef          	jal	ra,1a68 <pqcrystals_dilithium5_ref_polyvecl_uniform_eta>
#ifndef NTT_TESTING
  polyveck_uniform_eta(&s2, rhoprime, L);
     42c:	fffec537          	lui	a0,0xfffec
     430:	8a0a0793          	addi	a5,s4,-1888
     434:	00a787b3          	add	a5,a5,a0
     438:	01010713          	addi	a4,sp,16
     43c:	00e78533          	add	a0,a5,a4
     440:	00700613          	li	a2,7
     444:	00040593          	mv	a1,s0
     448:	1c5010ef          	jal	ra,1e0c <pqcrystals_dilithium5_ref_polyveck_uniform_eta>
#endif

  /* Matrix-vector multiplication */
  s1hat = s1;
     44c:	8a0a0793          	addi	a5,s4,-1888
     450:	01010713          	addi	a4,sp,16
     454:	013787b3          	add	a5,a5,s3
     458:	00e787b3          	add	a5,a5,a4
     45c:	8a0a0693          	addi	a3,s4,-1888
     460:	fffea737          	lui	a4,0xfffea
     464:	00e686b3          	add	a3,a3,a4
     468:	01010713          	addi	a4,sp,16
     46c:	00e68733          	add	a4,a3,a4
     470:	000026b7          	lui	a3,0x2
     474:	80078793          	addi	a5,a5,-2048
     478:	c0068693          	addi	a3,a3,-1024 # 1c00 <pqcrystals_dilithium5_ref_polyvecl_add+0x68>
     47c:	00e12223          	sw	a4,4(sp)
     480:	00d786b3          	add	a3,a5,a3
     484:	40070713          	addi	a4,a4,1024 # fffea400 <_end_of_memory+0xfffba400>
     488:	0007a803          	lw	a6,0(a5)
     48c:	0047a503          	lw	a0,4(a5)
     490:	0087a583          	lw	a1,8(a5)
     494:	00c7a603          	lw	a2,12(a5)
     498:	01072023          	sw	a6,0(a4)
     49c:	00a72223          	sw	a0,4(a4)
     4a0:	00b72423          	sw	a1,8(a4)
     4a4:	00c72623          	sw	a2,12(a4)
     4a8:	01078793          	addi	a5,a5,16
     4ac:	01070713          	addi	a4,a4,16
     4b0:	fcd79ce3          	bne	a5,a3,488 <pqcrystals_dilithium5_ref_keypair+0x120>
  polyvecl_ntt(&s1hat);
     4b4:	000189b7          	lui	s3,0x18
     4b8:	fffea437          	lui	s0,0xfffea
     4bc:	40040413          	addi	s0,s0,1024 # fffea400 <_end_of_memory+0xfffba400>
     4c0:	8a098793          	addi	a5,s3,-1888 # 178a0 <_gp+0xe28c>
     4c4:	01010713          	addi	a4,sp,16
     4c8:	008787b3          	add	a5,a5,s0
     4cc:	00e78433          	add	s0,a5,a4
     4d0:	00040513          	mv	a0,s0
     4d4:	730010ef          	jal	ra,1c04 <pqcrystals_dilithium5_ref_polyvecl_ntt>
    uart_send_string("\r");
    uart_send_string(str);
  }
  #endif

  polyvec_matrix_pointwise_montgomery(&t1, mat, &s1hat);
     4d8:	fffee7b7          	lui	a5,0xfffee
     4dc:	8a098693          	addi	a3,s3,-1888
     4e0:	00f686b3          	add	a3,a3,a5
     4e4:	01010793          	addi	a5,sp,16
     4e8:	00f687b3          	add	a5,a3,a5
     4ec:	00f12223          	sw	a5,4(sp)
     4f0:	00412503          	lw	a0,4(sp)
     4f4:	ffff25b7          	lui	a1,0xffff2
     4f8:	8a098793          	addi	a5,s3,-1888
     4fc:	01010713          	addi	a4,sp,16
     500:	00b787b3          	add	a5,a5,a1
     504:	00e785b3          	add	a1,a5,a4
     508:	00040613          	mv	a2,s0
     50c:	484010ef          	jal	ra,1990 <pqcrystals_dilithium5_ref_polyvec_matrix_pointwise_montgomery>
#endif

#ifndef FPAU
  polyveck_reduce(&t1);
#endif
  polyveck_invntt_tomont(&t1);
     510:	00412503          	lw	a0,4(sp)
  polyvec_matrix_pointwise_montgomery(&t1, mat, &s1hat);
     514:	00098a13          	mv	s4,s3
  polyveck_add(&t1, &t1, &s2);

  /* Extract t1 and write public key */
  polyveck_caddq(&t1);
  polyveck_power2round(&t1, &t0, &t1);
  pack_pk(pk, rho, &t1);
     518:	fffe8437          	lui	s0,0xfffe8
  polyveck_invntt_tomont(&t1);
     51c:	32d010ef          	jal	ra,2048 <pqcrystals_dilithium5_ref_polyveck_invntt_tomont>
  polyveck_add(&t1, &t1, &s2);
     520:	00412583          	lw	a1,4(sp)
     524:	fffec7b7          	lui	a5,0xfffec
     528:	8a098713          	addi	a4,s3,-1888
     52c:	00f70733          	add	a4,a4,a5
     530:	01010793          	addi	a5,sp,16
     534:	00f707b3          	add	a5,a4,a5
     538:	00078613          	mv	a2,a5
     53c:	00058513          	mv	a0,a1
     540:	00f12423          	sw	a5,8(sp)
     544:	1b5010ef          	jal	ra,1ef8 <pqcrystals_dilithium5_ref_polyveck_add>
  polyveck_caddq(&t1);
     548:	00412503          	lw	a0,4(sp)
     54c:	16d010ef          	jal	ra,1eb8 <pqcrystals_dilithium5_ref_polyveck_caddq>
  polyveck_power2round(&t1, &t0, &t1);
     550:	00412603          	lw	a2,4(sp)
     554:	ffff07b7          	lui	a5,0xffff0
     558:	8a098713          	addi	a4,s3,-1888
     55c:	00f70733          	add	a4,a4,a5
     560:	01010793          	addi	a5,sp,16
     564:	00f707b3          	add	a5,a4,a5
     568:	00078593          	mv	a1,a5
     56c:	00060513          	mv	a0,a2
     570:	00f12623          	sw	a5,12(sp)
     574:	3e9010ef          	jal	ra,215c <pqcrystals_dilithium5_ref_polyveck_power2round>
  pack_pk(pk, rho, &t1);
     578:	78040993          	addi	s3,s0,1920 # fffe8780 <_end_of_memory+0xfffb8780>
     57c:	8a0a0793          	addi	a5,s4,-1888
     580:	01010713          	addi	a4,sp,16
     584:	00412603          	lw	a2,4(sp)
     588:	013787b3          	add	a5,a5,s3
     58c:	00e789b3          	add	s3,a5,a4
     590:	00098593          	mv	a1,s3
     594:	00048513          	mv	a0,s1
     598:	1e5000ef          	jal	ra,f7c <pqcrystals_dilithium5_ref_pack_pk>

  /* Compute H(rho, t1) and write secret key */
  shake256(tr, SEEDBYTES, pk, CRYPTO_PUBLICKEYBYTES);
     59c:	76040413          	addi	s0,s0,1888
     5a0:	8a0a0793          	addi	a5,s4,-1888
     5a4:	01010713          	addi	a4,sp,16
     5a8:	008787b3          	add	a5,a5,s0
     5ac:	00e78433          	add	s0,a5,a4
     5b0:	000016b7          	lui	a3,0x1
     5b4:	00048613          	mv	a2,s1
     5b8:	00040513          	mv	a0,s0
     5bc:	a2068693          	addi	a3,a3,-1504 # a20 <pqcrystals_dilithium5_ref_signature+0x3f4>
     5c0:	02000593          	li	a1,32
     5c4:	47c060ef          	jal	ra,6a40 <pqcrystals_dilithium_fips202_ref_shake256>
  pack_sk(sk, rho, tr, key, &t0, &s1, &s2);
     5c8:	fffe97b7          	lui	a5,0xfffe9
     5cc:	80078793          	addi	a5,a5,-2048 # fffe8800 <_end_of_memory+0xfffb8800>
     5d0:	8a0a0713          	addi	a4,s4,-1888
     5d4:	00f70733          	add	a4,a4,a5
     5d8:	01010793          	addi	a5,sp,16
     5dc:	00812803          	lw	a6,8(sp)
     5e0:	00f707b3          	add	a5,a4,a5
     5e4:	00c12703          	lw	a4,12(sp)
     5e8:	00090513          	mv	a0,s2
     5ec:	06098693          	addi	a3,s3,96
     5f0:	00040613          	mv	a2,s0
     5f4:	00098593          	mv	a1,s3
     5f8:	335000ef          	jal	ra,112c <pqcrystals_dilithium5_ref_pack_sk>

  return 0;
}
     5fc:	000172b7          	lui	t0,0x17
     600:	0e028293          	addi	t0,t0,224 # 170e0 <_gp+0xdacc>
     604:	00510133          	add	sp,sp,t0
     608:	7ec12083          	lw	ra,2028(sp)
     60c:	7e812403          	lw	s0,2024(sp)
     610:	7e412483          	lw	s1,2020(sp)
     614:	7e012903          	lw	s2,2016(sp)
     618:	7dc12983          	lw	s3,2012(sp)
     61c:	7d812a03          	lw	s4,2008(sp)
     620:	00000513          	li	a0,0
     624:	7f010113          	addi	sp,sp,2032
     628:	00008067          	ret

0000062c <pqcrystals_dilithium5_ref_signature>:
int crypto_sign_signature(uint8_t *sig,
                          size_t *siglen,
                          const uint8_t *m,
                          size_t mlen,
                          const uint8_t *sk)
{
     62c:	81010113          	addi	sp,sp,-2032
     630:	fffe32b7          	lui	t0,0xfffe3
     634:	df028293          	addi	t0,t0,-528 # fffe2df0 <_end_of_memory+0xfffb2df0>
     638:	7e912223          	sw	s1,2020(sp)
     63c:	7d912223          	sw	s9,1988(sp)
  rho = seedbuf;
  tr = rho + SEEDBYTES;
  key = tr + SEEDBYTES;
  mu = key + SEEDBYTES;
  rhoprime = mu + CRHBYTES;
  unpack_sk(rho, tr, key, &t0, &s1, &s2, sk);
     640:	fffe24b7          	lui	s1,0xfffe2
     644:	0001ecb7          	lui	s9,0x1e
{
     648:	7e112623          	sw	ra,2028(sp)
     64c:	7e812423          	sw	s0,2024(sp)
     650:	7f212023          	sw	s2,2016(sp)
     654:	7d312e23          	sw	s3,2012(sp)
     658:	7d412c23          	sw	s4,2008(sp)
     65c:	7d512a23          	sw	s5,2004(sp)
     660:	7d612823          	sw	s6,2000(sp)
     664:	7d712623          	sw	s7,1996(sp)
     668:	7d812423          	sw	s8,1992(sp)
     66c:	7da12023          	sw	s10,1984(sp)
     670:	7bb12e23          	sw	s11,1980(sp)
  unpack_sk(rho, tr, key, &t0, &s1, &s2, sk);
     674:	72048b93          	addi	s7,s1,1824 # fffe2720 <_end_of_memory+0xfffb2720>
{
     678:	00510133          	add	sp,sp,t0
  unpack_sk(rho, tr, key, &t0, &s1, &s2, sk);
     67c:	9b0c8793          	addi	a5,s9,-1616 # 1d9b0 <_gp+0x1439c>
     680:	017787b3          	add	a5,a5,s7
     684:	01010813          	addi	a6,sp,16
     688:	01078bb3          	add	s7,a5,a6
     68c:	fffea7b7          	lui	a5,0xfffea
     690:	9b0c8813          	addi	a6,s9,-1616
     694:	00f80833          	add	a6,a6,a5
     698:	01010793          	addi	a5,sp,16
     69c:	00f807b3          	add	a5,a6,a5
     6a0:	fffe39b7          	lui	s3,0xfffe3
     6a4:	c0098c13          	addi	s8,s3,-1024 # fffe2c00 <_end_of_memory+0xfffb2c00>
     6a8:	00f12023          	sw	a5,0(sp)
     6ac:	9b0c8793          	addi	a5,s9,-1616
     6b0:	018787b3          	add	a5,a5,s8
     6b4:	01010813          	addi	a6,sp,16
     6b8:	01078c33          	add	s8,a5,a6
     6bc:	fffe87b7          	lui	a5,0xfffe8
     6c0:	9b0c8813          	addi	a6,s9,-1616
     6c4:	00f80833          	add	a6,a6,a5
     6c8:	01010793          	addi	a5,sp,16
     6cc:	00f807b3          	add	a5,a6,a5
     6d0:	00f12223          	sw	a5,4(sp)
{
     6d4:	00068913          	mv	s2,a3
  unpack_sk(rho, tr, key, &t0, &s1, &s2, sk);
     6d8:	00012783          	lw	a5,0(sp)
     6dc:	00412683          	lw	a3,4(sp)
     6e0:	040b8a93          	addi	s5,s7,64
     6e4:	020b8b13          	addi	s6,s7,32
{
     6e8:	00058893          	mv	a7,a1
  unpack_sk(rho, tr, key, &t0, &s1, &s2, sk);
     6ec:	00070813          	mv	a6,a4
{
     6f0:	00060413          	mv	s0,a2
  unpack_sk(rho, tr, key, &t0, &s1, &s2, sk);
     6f4:	000b0593          	mv	a1,s6
     6f8:	000a8613          	mv	a2,s5
     6fc:	000c0713          	mv	a4,s8
{
     700:	00050a13          	mv	s4,a0
  unpack_sk(rho, tr, key, &t0, &s1, &s2, sk);
     704:	000b8513          	mv	a0,s7
{
     708:	01112623          	sw	a7,12(sp)
  unpack_sk(rho, tr, key, &t0, &s1, &s2, sk);
     70c:	44d000ef          	jal	ra,1358 <pqcrystals_dilithium5_ref_unpack_sk>

  /* Compute CRH(tr, msg) */
  shake256_init(&state);
     710:	65048493          	addi	s1,s1,1616
     714:	9b0c8793          	addi	a5,s9,-1616
     718:	009787b3          	add	a5,a5,s1
     71c:	01010713          	addi	a4,sp,16
     720:	00e784b3          	add	s1,a5,a4
     724:	00048513          	mv	a0,s1
     728:	665050ef          	jal	ra,658c <pqcrystals_dilithium_fips202_ref_shake256_init>
  shake256_absorb(&state, tr, SEEDBYTES);
     72c:	02000613          	li	a2,32
     730:	000b0593          	mv	a1,s6
     734:	00048513          	mv	a0,s1
     738:	685050ef          	jal	ra,65bc <pqcrystals_dilithium_fips202_ref_shake256_absorb>
  shake256_absorb(&state, m, mlen);
     73c:	00090613          	mv	a2,s2
     740:	00040593          	mv	a1,s0
     744:	00048513          	mv	a0,s1
     748:	675050ef          	jal	ra,65bc <pqcrystals_dilithium_fips202_ref_shake256_absorb>
  shake256_finalize(&state);
     74c:	00048513          	mv	a0,s1
     750:	6a5050ef          	jal	ra,65f4 <pqcrystals_dilithium_fips202_ref_shake256_finalize>
  shake256_squeeze(mu, CRHBYTES, &state);
     754:	00048613          	mv	a2,s1
     758:	04000593          	li	a1,64
     75c:	060b8513          	addi	a0,s7,96
     760:	709050ef          	jal	ra,6668 <pqcrystals_dilithium_fips202_ref_shake256_squeeze>

#ifdef DILITHIUM_RANDOMIZED_SIGNING
  randombytes(rhoprime, CRHBYTES);
#else
  shake256(rhoprime, CRHBYTES, key, SEEDBYTES + CRHBYTES);
     764:	0a0b8d93          	addi	s11,s7,160
     768:	000a8613          	mv	a2,s5
     76c:	06000693          	li	a3,96
     770:	04000593          	li	a1,64
     774:	000d8513          	mv	a0,s11
     778:	2c8060ef          	jal	ra,6a40 <pqcrystals_dilithium_fips202_ref_shake256>
#endif

  /* Expand matrix and transform vectors */
  polyvec_matrix_expand(mat, rho);
     77c:	ffff2537          	lui	a0,0xffff2
     780:	9b0c8793          	addi	a5,s9,-1616
     784:	00a787b3          	add	a5,a5,a0
     788:	01010713          	addi	a4,sp,16
     78c:	00e78533          	add	a0,a5,a4
     790:	000b8593          	mv	a1,s7
     794:	150010ef          	jal	ra,18e4 <pqcrystals_dilithium5_ref_polyvec_matrix_expand>
  polyvecl_ntt(&s1);
     798:	000c0513          	mv	a0,s8
     79c:	468010ef          	jal	ra,1c04 <pqcrystals_dilithium5_ref_polyvecl_ntt>
  polyveck_ntt(&s2);
     7a0:	00012503          	lw	a0,0(sp)
  polyvec_matrix_expand(mat, rho);
     7a4:	000c8913          	mv	s2,s9
  polyveck_ntt(&t0);

rej:
  /* Sample intermediate vector y */
  polyvecl_uniform_gamma1(&y, rhoprime, nonce++);
     7a8:	fffe5d37          	lui	s10,0xfffe5
  polyveck_ntt(&s2);
     7ac:	05d010ef          	jal	ra,2008 <pqcrystals_dilithium5_ref_polyveck_ntt>
  polyveck_ntt(&t0);
     7b0:	00412503          	lw	a0,4(sp)
  polyvecl_uniform_gamma1(&y, rhoprime, nonce++);
     7b4:	800d0a93          	addi	s5,s10,-2048 # fffe4800 <_end_of_memory+0xfffb4800>

  /* Matrix-vector multiplication */
  z = y;
     7b8:	fffe6cb7          	lui	s9,0xfffe6
  polyveck_ntt(&t0);
     7bc:	04d010ef          	jal	ra,2008 <pqcrystals_dilithium5_ref_polyveck_ntt>
  polyvecl_uniform_gamma1(&y, rhoprime, nonce++);
     7c0:	9b090793          	addi	a5,s2,-1616
     7c4:	01010713          	addi	a4,sp,16
     7c8:	015787b3          	add	a5,a5,s5
  polyvecl_ntt(&z);
     7cc:	400c8413          	addi	s0,s9,1024 # fffe6400 <_end_of_memory+0xfffb6400>
  polyvecl_uniform_gamma1(&y, rhoprime, nonce++);
     7d0:	00e78ab3          	add	s5,a5,a4
  polyvecl_ntt(&z);
     7d4:	9b090793          	addi	a5,s2,-1616
     7d8:	008787b3          	add	a5,a5,s0
  shake256_init(&state);
  shake256_absorb(&state, mu, CRHBYTES);
  shake256_absorb(&state, sig, K*POLYW1_PACKEDBYTES);
  shake256_finalize(&state);
  shake256_squeeze(sig, SEEDBYTES, &state);
  poly_challenge(&cp, sig);
     7dc:	80098993          	addi	s3,s3,-2048
  polyvecl_ntt(&z);
     7e0:	00e78433          	add	s0,a5,a4
  poly_challenge(&cp, sig);
     7e4:	9b090793          	addi	a5,s2,-1616
     7e8:	013787b3          	add	a5,a5,s3
  uint16_t nonce = 0;
     7ec:	00000613          	li	a2,0
  poly_challenge(&cp, sig);
     7f0:	00e789b3          	add	s3,a5,a4
  polyvecl_uniform_gamma1(&y, rhoprime, nonce++);
     7f4:	00160793          	addi	a5,a2,1 # 4001 <KeccakF1600_StatePermute+0x62d>
     7f8:	000d8593          	mv	a1,s11
     7fc:	000a8513          	mv	a0,s5
     800:	01079913          	slli	s2,a5,0x10
     804:	2d4010ef          	jal	ra,1ad8 <pqcrystals_dilithium5_ref_polyvecl_uniform_gamma1>
  z = y;
     808:	000037b7          	lui	a5,0x3
     80c:	01010713          	addi	a4,sp,16
     810:	9b078793          	addi	a5,a5,-1616 # 29b0 <pqcrystals_dilithium5_ref_poly_uniform_eta+0xa4>
     814:	00e787b3          	add	a5,a5,a4
     818:	00004737          	lui	a4,0x4
     81c:	01010693          	addi	a3,sp,16
     820:	9b070713          	addi	a4,a4,-1616 # 39b0 <uart_send_string+0x18>
     824:	00d70733          	add	a4,a4,a3
     828:	000026b7          	lui	a3,0x2
     82c:	80078793          	addi	a5,a5,-2048
     830:	c0068693          	addi	a3,a3,-1024 # 1c00 <pqcrystals_dilithium5_ref_polyvecl_add+0x68>
  polyvecl_uniform_gamma1(&y, rhoprime, nonce++);
     834:	01095913          	srli	s2,s2,0x10
  z = y;
     838:	40070713          	addi	a4,a4,1024
     83c:	00d786b3          	add	a3,a5,a3
     840:	0007a803          	lw	a6,0(a5)
     844:	0047a503          	lw	a0,4(a5)
     848:	0087a583          	lw	a1,8(a5)
     84c:	00c7a603          	lw	a2,12(a5)
     850:	01072023          	sw	a6,0(a4)
     854:	00a72223          	sw	a0,4(a4)
     858:	00b72423          	sw	a1,8(a4)
     85c:	00c72623          	sw	a2,12(a4)
     860:	01078793          	addi	a5,a5,16
     864:	01070713          	addi	a4,a4,16
     868:	fcd79ce3          	bne	a5,a3,840 <pqcrystals_dilithium5_ref_signature+0x214>
  polyvecl_ntt(&z);
     86c:	00040513          	mv	a0,s0
     870:	394010ef          	jal	ra,1c04 <pqcrystals_dilithium5_ref_polyvecl_ntt>
  polyvec_matrix_pointwise_montgomery(&w1, mat, &z);
     874:	0001eb37          	lui	s6,0x1e
     878:	fffec7b7          	lui	a5,0xfffec
     87c:	9b0b0713          	addi	a4,s6,-1616 # 1d9b0 <_gp+0x1439c>
     880:	00f70733          	add	a4,a4,a5
     884:	01010793          	addi	a5,sp,16
     888:	00f707b3          	add	a5,a4,a5
     88c:	00f12023          	sw	a5,0(sp)
     890:	00012503          	lw	a0,0(sp)
     894:	ffff25b7          	lui	a1,0xffff2
     898:	9b0b0793          	addi	a5,s6,-1616
     89c:	00b787b3          	add	a5,a5,a1
     8a0:	01010713          	addi	a4,sp,16
     8a4:	00e785b3          	add	a1,a5,a4
     8a8:	00040613          	mv	a2,s0
     8ac:	0e4010ef          	jal	ra,1990 <pqcrystals_dilithium5_ref_polyvec_matrix_pointwise_montgomery>
  polyveck_invntt_tomont(&w1);
     8b0:	00012503          	lw	a0,0(sp)
     8b4:	794010ef          	jal	ra,2048 <pqcrystals_dilithium5_ref_polyveck_invntt_tomont>
  polyveck_caddq(&w1);
     8b8:	00012503          	lw	a0,0(sp)
     8bc:	5fc010ef          	jal	ra,1eb8 <pqcrystals_dilithium5_ref_polyveck_caddq>
  polyveck_decompose(&w1, &w0, &w1);
     8c0:	00012603          	lw	a2,0(sp)
     8c4:	fffee7b7          	lui	a5,0xfffee
     8c8:	9b0b0713          	addi	a4,s6,-1616
     8cc:	00f70733          	add	a4,a4,a5
     8d0:	01010793          	addi	a5,sp,16
     8d4:	00f707b3          	add	a5,a4,a5
     8d8:	00078593          	mv	a1,a5
     8dc:	00060513          	mv	a0,a2
     8e0:	00f12223          	sw	a5,4(sp)
     8e4:	0e1010ef          	jal	ra,21c4 <pqcrystals_dilithium5_ref_polyveck_decompose>
  polyveck_pack_w1(sig, &w1);
     8e8:	00012583          	lw	a1,0(sp)
     8ec:	000a0513          	mv	a0,s4
     8f0:	221010ef          	jal	ra,2310 <pqcrystals_dilithium5_ref_polyveck_pack_w1>
  shake256_init(&state);
     8f4:	00048513          	mv	a0,s1
     8f8:	495050ef          	jal	ra,658c <pqcrystals_dilithium_fips202_ref_shake256_init>
  shake256_absorb(&state, mu, CRHBYTES);
     8fc:	04000613          	li	a2,64
     900:	060b8593          	addi	a1,s7,96
     904:	00048513          	mv	a0,s1
     908:	4b5050ef          	jal	ra,65bc <pqcrystals_dilithium_fips202_ref_shake256_absorb>
  shake256_absorb(&state, sig, K*POLYW1_PACKEDBYTES);
     90c:	000a0593          	mv	a1,s4
     910:	40000613          	li	a2,1024
     914:	00048513          	mv	a0,s1
     918:	4a5050ef          	jal	ra,65bc <pqcrystals_dilithium_fips202_ref_shake256_absorb>
  shake256_finalize(&state);
     91c:	00048513          	mv	a0,s1
     920:	4d5050ef          	jal	ra,65f4 <pqcrystals_dilithium_fips202_ref_shake256_finalize>
  shake256_squeeze(sig, SEEDBYTES, &state);
     924:	00048613          	mv	a2,s1
     928:	02000593          	li	a1,32
     92c:	000a0513          	mv	a0,s4
     930:	539050ef          	jal	ra,6668 <pqcrystals_dilithium_fips202_ref_shake256_squeeze>
  poly_challenge(&cp, sig);
     934:	000a0593          	mv	a1,s4
     938:	00098513          	mv	a0,s3
     93c:	188020ef          	jal	ra,2ac4 <pqcrystals_dilithium5_ref_poly_challenge>
  poly_ntt(&cp);
     940:	00098513          	mv	a0,s3
     944:	36d010ef          	jal	ra,24b0 <pqcrystals_dilithium5_ref_poly_ntt>
  /* Compute z, reject if it reveals secret */
#ifdef PROFILING_MAC
  uart_send_string("\n\rPointwise mult l vector");
  asm("csrrs s2, "TICKS_REGISTER", zero");
#endif
  polyvecl_pointwise_poly_montgomery(&z, &cp, &s1);
     948:	000c0613          	mv	a2,s8
     94c:	00098593          	mv	a1,s3
     950:	00040513          	mv	a0,s0
     954:	338010ef          	jal	ra,1c8c <pqcrystals_dilithium5_ref_polyvecl_pointwise_poly_montgomery>
#ifdef PROFILING_MAC
  asm("csrrs s3, "TICKS_REGISTER", zero");
  print_runtime(cycle_start, cycle_end);
#endif

  polyvecl_invntt_tomont(&z);
     958:	00040513          	mv	a0,s0
     95c:	2ec010ef          	jal	ra,1c48 <pqcrystals_dilithium5_ref_polyvecl_invntt_tomont>

#ifdef PROFILING_ADD_SUB
  uart_send_string("\n\rADD polyvecl_add");
  asm("csrrs s2, "TICKS_REGISTER", zero");
#endif
  polyvecl_add(&z, &z, &y);
     960:	00040593          	mv	a1,s0
     964:	00040513          	mv	a0,s0
     968:	000a8613          	mv	a2,s5
     96c:	22c010ef          	jal	ra,1b98 <pqcrystals_dilithium5_ref_polyvecl_add>
#ifdef PROFILING_ADD_SUB
  asm("csrrs s3, "TICKS_REGISTER", zero");
  print_runtime(cycle_start, cycle_end);
#endif

  if(polyvecl_chknorm(&z, GAMMA1 - BETA))
     970:	000805b7          	lui	a1,0x80
     974:	f8858593          	addi	a1,a1,-120 # 7ff88 <_end_of_memory+0x4ff88>
     978:	00040513          	mv	a0,s0
     97c:	41c010ef          	jal	ra,1d98 <pqcrystals_dilithium5_ref_polyvecl_chknorm>
     980:	0c051663          	bnez	a0,a4c <pqcrystals_dilithium5_ref_signature+0x420>

#ifdef PROFILING_MAC
  uart_send_string("\n\rPointwise mult k vector");
  asm("csrrs s2, "TICKS_REGISTER", zero");
#endif
  polyveck_pointwise_poly_montgomery(&h, &cp, &s2);
     984:	ffff07b7          	lui	a5,0xffff0
     988:	9b0b0713          	addi	a4,s6,-1616
     98c:	00f70733          	add	a4,a4,a5
     990:	01010793          	addi	a5,sp,16
     994:	00f707b3          	add	a5,a4,a5
     998:	00f12423          	sw	a5,8(sp)
     99c:	00812503          	lw	a0,8(sp)
     9a0:	fffea637          	lui	a2,0xfffea
     9a4:	9b0b0713          	addi	a4,s6,-1616
     9a8:	00c70733          	add	a4,a4,a2
     9ac:	01010793          	addi	a5,sp,16
     9b0:	00f70633          	add	a2,a4,a5
     9b4:	00098593          	mv	a1,s3
     9b8:	6d0010ef          	jal	ra,2088 <pqcrystals_dilithium5_ref_polyveck_pointwise_poly_montgomery>
#ifdef PROFILING_MAC
  asm("csrrs s3, "TICKS_REGISTER", zero");
  print_runtime(cycle_start, cycle_end);
#endif

  polyveck_invntt_tomont(&h);
     9bc:	00812503          	lw	a0,8(sp)
#ifdef PROFILING_ADD_SUB
  asm("csrrs s3, "TICKS_REGISTER", zero");
  print_runtime(cycle_start, cycle_end);
#endif

  if(polyveck_chknorm(&w0, GAMMA2 - BETA))
     9c0:	00040b37          	lui	s6,0x40
  polyveck_invntt_tomont(&h);
     9c4:	684010ef          	jal	ra,2048 <pqcrystals_dilithium5_ref_polyveck_invntt_tomont>
  polyveck_sub(&w0, &w0, &h);
     9c8:	00412583          	lw	a1,4(sp)
     9cc:	00812603          	lw	a2,8(sp)
     9d0:	00058513          	mv	a0,a1
     9d4:	58c010ef          	jal	ra,1f60 <pqcrystals_dilithium5_ref_polyveck_sub>
  if(polyveck_chknorm(&w0, GAMMA2 - BETA))
     9d8:	00412503          	lw	a0,4(sp)
     9dc:	e88b0593          	addi	a1,s6,-376 # 3fe88 <_end_of_memory+0xfe88>
     9e0:	70c010ef          	jal	ra,20ec <pqcrystals_dilithium5_ref_polyveck_chknorm>
     9e4:	06051463          	bnez	a0,a4c <pqcrystals_dilithium5_ref_signature+0x420>
    goto rej;

  /* Compute hints for w1 */
  polyveck_pointwise_poly_montgomery(&h, &cp, &t0);
     9e8:	0001e7b7          	lui	a5,0x1e
     9ec:	00812503          	lw	a0,8(sp)
     9f0:	fffe8637          	lui	a2,0xfffe8
     9f4:	9b078793          	addi	a5,a5,-1616 # 1d9b0 <_gp+0x1439c>
     9f8:	00c787b3          	add	a5,a5,a2
     9fc:	01010713          	addi	a4,sp,16
     a00:	00098593          	mv	a1,s3
     a04:	00e78633          	add	a2,a5,a4
     a08:	680010ef          	jal	ra,2088 <pqcrystals_dilithium5_ref_polyveck_pointwise_poly_montgomery>
  polyveck_invntt_tomont(&h);
     a0c:	00812503          	lw	a0,8(sp)
     a10:	638010ef          	jal	ra,2048 <pqcrystals_dilithium5_ref_polyveck_invntt_tomont>
    uart_send_string("\r");
    uart_send_string(str);
  }
#endif

  if(polyveck_chknorm(&h, GAMMA2))
     a14:	00812503          	lw	a0,8(sp)
     a18:	f00b0593          	addi	a1,s6,-256
     a1c:	6d0010ef          	jal	ra,20ec <pqcrystals_dilithium5_ref_polyveck_chknorm>
     a20:	02051663          	bnez	a0,a4c <pqcrystals_dilithium5_ref_signature+0x420>
    goto rej;

  polyveck_add(&w0, &w0, &h);
     a24:	00412583          	lw	a1,4(sp)
     a28:	00812603          	lw	a2,8(sp)
     a2c:	00058513          	mv	a0,a1
     a30:	4c8010ef          	jal	ra,1ef8 <pqcrystals_dilithium5_ref_polyveck_add>
  n = polyveck_make_hint(&h, &w0, &w1);
     a34:	00012603          	lw	a2,0(sp)
     a38:	00412583          	lw	a1,4(sp)
     a3c:	00812503          	lw	a0,8(sp)
     a40:	7ec010ef          	jal	ra,222c <pqcrystals_dilithium5_ref_polyveck_make_hint>
  if(n > OMEGA)
     a44:	04b00793          	li	a5,75
     a48:	00a7f663          	bgeu	a5,a0,a54 <pqcrystals_dilithium5_ref_signature+0x428>
{
     a4c:	00090613          	mv	a2,s2
     a50:	da5ff06f          	j	7f4 <pqcrystals_dilithium5_ref_signature+0x1c8>
    goto rej;

  /* Write signature */
  pack_sig(sig, sig, &z, &h);
     a54:	00812683          	lw	a3,8(sp)
     a58:	000a0513          	mv	a0,s4
     a5c:	00040613          	mv	a2,s0
     a60:	000a0593          	mv	a1,s4
     a64:	325000ef          	jal	ra,1588 <pqcrystals_dilithium5_ref_pack_sig>
  *siglen = CRYPTO_BYTES;
     a68:	00c12703          	lw	a4,12(sp)
     a6c:	000017b7          	lui	a5,0x1
     a70:	1f378793          	addi	a5,a5,499 # 11f3 <pqcrystals_dilithium5_ref_pack_sk+0xc7>
  return 0;
}
     a74:	0001d2b7          	lui	t0,0x1d
  *siglen = CRYPTO_BYTES;
     a78:	00f72023          	sw	a5,0(a4)
}
     a7c:	21028293          	addi	t0,t0,528 # 1d210 <_gp+0x13bfc>
     a80:	00510133          	add	sp,sp,t0
     a84:	7ec12083          	lw	ra,2028(sp)
     a88:	7e812403          	lw	s0,2024(sp)
     a8c:	7e412483          	lw	s1,2020(sp)
     a90:	7e012903          	lw	s2,2016(sp)
     a94:	7dc12983          	lw	s3,2012(sp)
     a98:	7d812a03          	lw	s4,2008(sp)
     a9c:	7d412a83          	lw	s5,2004(sp)
     aa0:	7d012b03          	lw	s6,2000(sp)
     aa4:	7cc12b83          	lw	s7,1996(sp)
     aa8:	7c812c03          	lw	s8,1992(sp)
     aac:	7c412c83          	lw	s9,1988(sp)
     ab0:	7c012d03          	lw	s10,1984(sp)
     ab4:	7bc12d83          	lw	s11,1980(sp)
     ab8:	00000513          	li	a0,0
     abc:	7f010113          	addi	sp,sp,2032
     ac0:	00008067          	ret

00000ac4 <pqcrystals_dilithium5_ref>:
int crypto_sign(uint8_t *sm,
                size_t *smlen,
                const uint8_t *m,
                size_t mlen,
                const uint8_t *sk)
{
     ac4:	ff010113          	addi	sp,sp,-16
     ac8:	00812423          	sw	s0,8(sp)
     acc:	00912223          	sw	s1,4(sp)
     ad0:	00112623          	sw	ra,12(sp)
     ad4:	00068413          	mv	s0,a3
     ad8:	00058493          	mv	s1,a1
  size_t i;

  for(i = 0; i < mlen; ++i)
     adc:	02068a63          	beqz	a3,b10 <pqcrystals_dilithium5_ref+0x4c>
     ae0:	00001837          	lui	a6,0x1
     ae4:	1f280813          	addi	a6,a6,498 # 11f2 <pqcrystals_dilithium5_ref_pack_sk+0xc6>
     ae8:	fff68793          	addi	a5,a3,-1
     aec:	01068833          	add	a6,a3,a6
     af0:	00f607b3          	add	a5,a2,a5
     af4:	01050833          	add	a6,a0,a6
    sm[CRYPTO_BYTES + mlen - 1 - i] = m[mlen - 1 - i];
     af8:	0007c303          	lbu	t1,0(a5)
     afc:	00078893          	mv	a7,a5
  for(i = 0; i < mlen; ++i)
     b00:	fff80813          	addi	a6,a6,-1
    sm[CRYPTO_BYTES + mlen - 1 - i] = m[mlen - 1 - i];
     b04:	006800a3          	sb	t1,1(a6)
  for(i = 0; i < mlen; ++i)
     b08:	fff78793          	addi	a5,a5,-1
     b0c:	ff1616e3          	bne	a2,a7,af8 <pqcrystals_dilithium5_ref+0x34>
  crypto_sign_signature(sm, smlen, sm + CRYPTO_BYTES, mlen, sk);
     b10:	00001637          	lui	a2,0x1
     b14:	1f360613          	addi	a2,a2,499 # 11f3 <pqcrystals_dilithium5_ref_pack_sk+0xc7>
     b18:	00040693          	mv	a3,s0
     b1c:	00048593          	mv	a1,s1
     b20:	00c50633          	add	a2,a0,a2
     b24:	b09ff0ef          	jal	ra,62c <pqcrystals_dilithium5_ref_signature>
  *smlen += mlen;
     b28:	0004a783          	lw	a5,0(s1)
  return 0;
}
     b2c:	00c12083          	lw	ra,12(sp)
     b30:	00000513          	li	a0,0
  *smlen += mlen;
     b34:	008787b3          	add	a5,a5,s0
}
     b38:	00812403          	lw	s0,8(sp)
  *smlen += mlen;
     b3c:	00f4a023          	sw	a5,0(s1)
}
     b40:	00412483          	lw	s1,4(sp)
     b44:	01010113          	addi	sp,sp,16
     b48:	00008067          	ret

00000b4c <pqcrystals_dilithium5_ref_verify>:
int crypto_sign_verify(const uint8_t *sig,
                       size_t siglen,
                       const uint8_t *m,
                       size_t mlen,
                       const uint8_t *pk)
{
     b4c:	a5010113          	addi	sp,sp,-1456
     b50:	59912223          	sw	s9,1412(sp)
  poly cp;
  polyvecl mat[K], z;
  polyveck t1, w1, h;
  keccak_state state;

  if(siglen != CRYPTO_BYTES)
     b54:	00001cb7          	lui	s9,0x1
{
     b58:	5a112623          	sw	ra,1452(sp)
     b5c:	5a812423          	sw	s0,1448(sp)
     b60:	5a912223          	sw	s1,1444(sp)
     b64:	5b212023          	sw	s2,1440(sp)
     b68:	59312e23          	sw	s3,1436(sp)
     b6c:	59412c23          	sw	s4,1432(sp)
     b70:	59512a23          	sw	s5,1428(sp)
     b74:	59612823          	sw	s6,1424(sp)
     b78:	59712623          	sw	s7,1420(sp)
     b7c:	59812423          	sw	s8,1416(sp)
     b80:	59a12023          	sw	s10,1408(sp)
     b84:	fffea2b7          	lui	t0,0xfffea
  if(siglen != CRYPTO_BYTES)
     b88:	1f3c8793          	addi	a5,s9,499 # 11f3 <pqcrystals_dilithium5_ref_pack_sk+0xc7>
{
     b8c:	00510133          	add	sp,sp,t0
  if(siglen != CRYPTO_BYTES)
     b90:	28f59e63          	bne	a1,a5,e2c <pqcrystals_dilithium5_ref_verify+0x2e0>
    return -1;

  unpack_pk(rho, &t1, pk);
     b94:	00016d37          	lui	s10,0x16
     b98:	00070913          	mv	s2,a4
     b9c:	fffec7b7          	lui	a5,0xfffec
     ba0:	570d0713          	addi	a4,s10,1392 # 16570 <_gp+0xcf5c>
     ba4:	00f70733          	add	a4,a4,a5
     ba8:	01010793          	addi	a5,sp,16
     bac:	fffea4b7          	lui	s1,0xfffea
     bb0:	00f707b3          	add	a5,a4,a5
     bb4:	00f12223          	sw	a5,4(sp)
     bb8:	a9048b13          	addi	s6,s1,-1392 # fffe9a90 <_end_of_memory+0xfffb9a90>
     bbc:	570d0793          	addi	a5,s10,1392
     bc0:	016787b3          	add	a5,a5,s6
     bc4:	01010713          	addi	a4,sp,16
     bc8:	00412583          	lw	a1,4(sp)
     bcc:	00e78b33          	add	s6,a5,a4
     bd0:	00050a13          	mv	s4,a0
     bd4:	00060b93          	mv	s7,a2
     bd8:	000b0513          	mv	a0,s6
     bdc:	00090613          	mv	a2,s2
     be0:	00068c13          	mv	s8,a3
     be4:	470000ef          	jal	ra,1054 <pqcrystals_dilithium5_ref_unpack_pk>
  if(unpack_sig(c, &z, &h, sig))
     be8:	ffff07b7          	lui	a5,0xffff0
     bec:	570d0713          	addi	a4,s10,1392
     bf0:	00f70733          	add	a4,a4,a5
     bf4:	01010793          	addi	a5,sp,16
     bf8:	00f707b3          	add	a5,a4,a5
     bfc:	40048993          	addi	s3,s1,1024
     c00:	00f12423          	sw	a5,8(sp)
     c04:	570d0793          	addi	a5,s10,1392
     c08:	013787b3          	add	a5,a5,s3
     c0c:	01010713          	addi	a4,sp,16
     c10:	ab048593          	addi	a1,s1,-1360
     c14:	00e789b3          	add	s3,a5,a4
     c18:	570d0793          	addi	a5,s10,1392
     c1c:	00b787b3          	add	a5,a5,a1
     c20:	00812603          	lw	a2,8(sp)
     c24:	00e78433          	add	s0,a5,a4
     c28:	000a0693          	mv	a3,s4
     c2c:	00098593          	mv	a1,s3
     c30:	00040513          	mv	a0,s0
     c34:	2b9000ef          	jal	ra,16ec <pqcrystals_dilithium5_ref_unpack_sig>
     c38:	1e051a63          	bnez	a0,e2c <pqcrystals_dilithium5_ref_verify+0x2e0>
    return -1;
  if(polyvecl_chknorm(&z, GAMMA1 - BETA))
     c3c:	000805b7          	lui	a1,0x80
     c40:	f8858593          	addi	a1,a1,-120 # 7ff88 <_end_of_memory+0x4ff88>
     c44:	00098513          	mv	a0,s3
     c48:	150010ef          	jal	ra,1d98 <pqcrystals_dilithium5_ref_polyvecl_chknorm>
     c4c:	00050a93          	mv	s5,a0
     c50:	1c051e63          	bnez	a0,e2c <pqcrystals_dilithium5_ref_verify+0x2e0>
    return -1;

  /* Compute CRH(H(rho, t1), msg) */
  shake256(mu, SEEDBYTES, pk, CRYPTO_PUBLICKEYBYTES);
     c54:	af048a13          	addi	s4,s1,-1296
     c58:	570d0793          	addi	a5,s10,1392
     c5c:	014787b3          	add	a5,a5,s4
     c60:	01010713          	addi	a4,sp,16
     c64:	00e78a33          	add	s4,a5,a4
     c68:	a20c8693          	addi	a3,s9,-1504
     c6c:	00090613          	mv	a2,s2
     c70:	02000593          	li	a1,32
     c74:	000a0513          	mv	a0,s4
     c78:	5c9050ef          	jal	ra,6a40 <pqcrystals_dilithium_fips202_ref_shake256>
  shake256_init(&state);
     c7c:	b3048913          	addi	s2,s1,-1232
     c80:	570d0793          	addi	a5,s10,1392
     c84:	012787b3          	add	a5,a5,s2
     c88:	01010713          	addi	a4,sp,16
     c8c:	00e78933          	add	s2,a5,a4
     c90:	00090513          	mv	a0,s2
     c94:	0f9050ef          	jal	ra,658c <pqcrystals_dilithium_fips202_ref_shake256_init>
  shake256_absorb(&state, mu, SEEDBYTES);
     c98:	02000613          	li	a2,32
     c9c:	000a0593          	mv	a1,s4
     ca0:	00090513          	mv	a0,s2
     ca4:	119050ef          	jal	ra,65bc <pqcrystals_dilithium_fips202_ref_shake256_absorb>
  shake256_absorb(&state, m, mlen);
     ca8:	000c0613          	mv	a2,s8
     cac:	000b8593          	mv	a1,s7
     cb0:	00090513          	mv	a0,s2
     cb4:	109050ef          	jal	ra,65bc <pqcrystals_dilithium_fips202_ref_shake256_absorb>
  shake256_finalize(&state);
     cb8:	00090513          	mv	a0,s2
     cbc:	139050ef          	jal	ra,65f4 <pqcrystals_dilithium_fips202_ref_shake256_finalize>
  shake256_squeeze(mu, CRHBYTES, &state);
     cc0:	00090613          	mv	a2,s2
     cc4:	04000593          	li	a1,64
     cc8:	000a0513          	mv	a0,s4
     ccc:	19d050ef          	jal	ra,6668 <pqcrystals_dilithium_fips202_ref_shake256_squeeze>

  /* Matrix-vector multiplication; compute Az - c2^dt1 */
  poly_challenge(&cp, c);
     cd0:	00040593          	mv	a1,s0
     cd4:	58010513          	addi	a0,sp,1408
     cd8:	5ed010ef          	jal	ra,2ac4 <pqcrystals_dilithium5_ref_poly_challenge>
  polyvec_matrix_expand(mat, rho);
     cdc:	ffff27b7          	lui	a5,0xffff2
     ce0:	570d0713          	addi	a4,s10,1392
     ce4:	00f70733          	add	a4,a4,a5
     ce8:	01010793          	addi	a5,sp,16
     cec:	00f707b3          	add	a5,a4,a5
     cf0:	00078513          	mv	a0,a5
     cf4:	000b0593          	mv	a1,s6
     cf8:	00f12623          	sw	a5,12(sp)
     cfc:	3e9000ef          	jal	ra,18e4 <pqcrystals_dilithium5_ref_polyvec_matrix_expand>

  polyvecl_ntt(&z);
     d00:	00098513          	mv	a0,s3
     d04:	701000ef          	jal	ra,1c04 <pqcrystals_dilithium5_ref_polyvecl_ntt>
  polyvec_matrix_pointwise_montgomery(&w1, mat, &z);
     d08:	fffee7b7          	lui	a5,0xfffee
     d0c:	570d0713          	addi	a4,s10,1392
     d10:	00f70733          	add	a4,a4,a5
     d14:	00c12583          	lw	a1,12(sp)
     d18:	01010793          	addi	a5,sp,16
     d1c:	00f707b3          	add	a5,a4,a5
     d20:	00078513          	mv	a0,a5
     d24:	00098613          	mv	a2,s3
     d28:	00f12023          	sw	a5,0(sp)
     d2c:	465000ef          	jal	ra,1990 <pqcrystals_dilithium5_ref_polyvec_matrix_pointwise_montgomery>

  poly_ntt(&cp);
     d30:	58010513          	addi	a0,sp,1408
     d34:	77c010ef          	jal	ra,24b0 <pqcrystals_dilithium5_ref_poly_ntt>
  polyveck_shiftl(&t1);
     d38:	00412503          	lw	a0,4(sp)
  polyveck_invntt_tomont(&w1);

  /* Reconstruct w1 */
  polyveck_caddq(&w1);
  polyveck_use_hint(&w1, &w1, &h);
  polyveck_pack_w1(buf, &w1);
     d3c:	c0048993          	addi	s3,s1,-1024
  /* Call random oracle and verify challenge */
  shake256_init(&state);
  shake256_absorb(&state, mu, CRHBYTES);
  shake256_absorb(&state, buf, K*POLYW1_PACKEDBYTES);
  shake256_finalize(&state);
  shake256_squeeze(c2, SEEDBYTES, &state);
     d40:	ad048493          	addi	s1,s1,-1328
  polyveck_shiftl(&t1);
     d44:	284010ef          	jal	ra,1fc8 <pqcrystals_dilithium5_ref_polyveck_shiftl>
  polyveck_ntt(&t1);
     d48:	00412503          	lw	a0,4(sp)
     d4c:	2bc010ef          	jal	ra,2008 <pqcrystals_dilithium5_ref_polyveck_ntt>
  polyveck_pointwise_poly_montgomery(&t1, &cp, &t1);
     d50:	00412603          	lw	a2,4(sp)
     d54:	58010593          	addi	a1,sp,1408
     d58:	00060513          	mv	a0,a2
     d5c:	32c010ef          	jal	ra,2088 <pqcrystals_dilithium5_ref_polyveck_pointwise_poly_montgomery>
  polyveck_sub(&w1, &w1, &t1);
     d60:	00012583          	lw	a1,0(sp)
     d64:	00412603          	lw	a2,4(sp)
     d68:	00058513          	mv	a0,a1
     d6c:	1f4010ef          	jal	ra,1f60 <pqcrystals_dilithium5_ref_polyveck_sub>
  polyveck_reduce(&w1);
     d70:	00012503          	lw	a0,0(sp)
     d74:	104010ef          	jal	ra,1e78 <pqcrystals_dilithium5_ref_polyveck_reduce>
  polyveck_invntt_tomont(&w1);
     d78:	00012503          	lw	a0,0(sp)
     d7c:	2cc010ef          	jal	ra,2048 <pqcrystals_dilithium5_ref_polyveck_invntt_tomont>
  polyveck_caddq(&w1);
     d80:	00012503          	lw	a0,0(sp)
     d84:	134010ef          	jal	ra,1eb8 <pqcrystals_dilithium5_ref_polyveck_caddq>
  polyveck_use_hint(&w1, &w1, &h);
     d88:	00012583          	lw	a1,0(sp)
     d8c:	00812603          	lw	a2,8(sp)
     d90:	00058513          	mv	a0,a1
     d94:	514010ef          	jal	ra,22a8 <pqcrystals_dilithium5_ref_polyveck_use_hint>
  polyveck_pack_w1(buf, &w1);
     d98:	570d0793          	addi	a5,s10,1392
     d9c:	013787b3          	add	a5,a5,s3
     da0:	01010713          	addi	a4,sp,16
     da4:	00012583          	lw	a1,0(sp)
     da8:	00e789b3          	add	s3,a5,a4
     dac:	00098513          	mv	a0,s3
     db0:	560010ef          	jal	ra,2310 <pqcrystals_dilithium5_ref_polyveck_pack_w1>
  shake256_init(&state);
     db4:	00090513          	mv	a0,s2
     db8:	7d4050ef          	jal	ra,658c <pqcrystals_dilithium_fips202_ref_shake256_init>
  shake256_absorb(&state, mu, CRHBYTES);
     dbc:	04000613          	li	a2,64
     dc0:	000a0593          	mv	a1,s4
     dc4:	00090513          	mv	a0,s2
     dc8:	7f4050ef          	jal	ra,65bc <pqcrystals_dilithium_fips202_ref_shake256_absorb>
  shake256_absorb(&state, buf, K*POLYW1_PACKEDBYTES);
     dcc:	40000613          	li	a2,1024
     dd0:	00098593          	mv	a1,s3
     dd4:	00090513          	mv	a0,s2
     dd8:	7e4050ef          	jal	ra,65bc <pqcrystals_dilithium_fips202_ref_shake256_absorb>
  shake256_finalize(&state);
     ddc:	00090513          	mv	a0,s2
     de0:	015050ef          	jal	ra,65f4 <pqcrystals_dilithium_fips202_ref_shake256_finalize>
  shake256_squeeze(c2, SEEDBYTES, &state);
     de4:	570d0793          	addi	a5,s10,1392
     de8:	009787b3          	add	a5,a5,s1
     dec:	01010713          	addi	a4,sp,16
     df0:	00e784b3          	add	s1,a5,a4
     df4:	02000593          	li	a1,32
     df8:	00048513          	mv	a0,s1
     dfc:	00090613          	mv	a2,s2
     e00:	069050ef          	jal	ra,6668 <pqcrystals_dilithium_fips202_ref_shake256_squeeze>
  for(i = 0; i < SEEDBYTES; ++i)
     e04:	00040593          	mv	a1,s0
     e08:	00048513          	mv	a0,s1
     e0c:	02040693          	addi	a3,s0,32
     e10:	0080006f          	j	e18 <pqcrystals_dilithium5_ref_verify+0x2cc>
     e14:	00d58e63          	beq	a1,a3,e30 <pqcrystals_dilithium5_ref_verify+0x2e4>
    if(c[i] != c2[i])
     e18:	0005c703          	lbu	a4,0(a1)
     e1c:	00054783          	lbu	a5,0(a0) # ffff2000 <_end_of_memory+0xfffc2000>
  for(i = 0; i < SEEDBYTES; ++i)
     e20:	00158593          	addi	a1,a1,1
     e24:	00150513          	addi	a0,a0,1
    if(c[i] != c2[i])
     e28:	fef706e3          	beq	a4,a5,e14 <pqcrystals_dilithium5_ref_verify+0x2c8>
    return -1;
     e2c:	fff00a93          	li	s5,-1
      return -1;

  return 0;
}
     e30:	000162b7          	lui	t0,0x16
     e34:	00510133          	add	sp,sp,t0
     e38:	5ac12083          	lw	ra,1452(sp)
     e3c:	000a8513          	mv	a0,s5
     e40:	5a812403          	lw	s0,1448(sp)
     e44:	5a412483          	lw	s1,1444(sp)
     e48:	5a012903          	lw	s2,1440(sp)
     e4c:	59c12983          	lw	s3,1436(sp)
     e50:	59812a03          	lw	s4,1432(sp)
     e54:	59412a83          	lw	s5,1428(sp)
     e58:	59012b03          	lw	s6,1424(sp)
     e5c:	58c12b83          	lw	s7,1420(sp)
     e60:	58812c03          	lw	s8,1416(sp)
     e64:	58412c83          	lw	s9,1412(sp)
     e68:	58012d03          	lw	s10,1408(sp)
     e6c:	5b010113          	addi	sp,sp,1456
     e70:	00008067          	ret

00000e74 <pqcrystals_dilithium5_ref_open>:
int crypto_sign_open(uint8_t *m,
                     size_t *mlen,
                     const uint8_t *sm,
                     size_t smlen,
                     const uint8_t *pk)
{
     e74:	fe010113          	addi	sp,sp,-32
     e78:	01212823          	sw	s2,16(sp)
  size_t i;

  if(smlen < CRYPTO_BYTES)
     e7c:	00001937          	lui	s2,0x1
{
     e80:	00812c23          	sw	s0,24(sp)
     e84:	01312623          	sw	s3,12(sp)
     e88:	01412423          	sw	s4,8(sp)
     e8c:	00112e23          	sw	ra,28(sp)
     e90:	00912a23          	sw	s1,20(sp)
  if(smlen < CRYPTO_BYTES)
     e94:	1f290793          	addi	a5,s2,498 # 11f2 <pqcrystals_dilithium5_ref_pack_sk+0xc6>
{
     e98:	00068993          	mv	s3,a3
     e9c:	00050a13          	mv	s4,a0
     ea0:	00058413          	mv	s0,a1
  if(smlen < CRYPTO_BYTES)
     ea4:	04d7e263          	bltu	a5,a3,ee8 <pqcrystals_dilithium5_ref_open+0x74>
    return 0;
  }

badsig:
  /* Signature verification failed */
  *mlen = -1;
     ea8:	fff00793          	li	a5,-1
     eac:	00f5a023          	sw	a5,0(a1)
  for(i = 0; i < smlen; ++i)
     eb0:	00068a63          	beqz	a3,ec4 <pqcrystals_dilithium5_ref_open+0x50>
    m[i] = 0;
     eb4:	00098613          	mv	a2,s3
     eb8:	00000593          	li	a1,0
     ebc:	000a0513          	mv	a0,s4
     ec0:	1a8070ef          	jal	ra,8068 <memset>

  return -1;
     ec4:	fff00513          	li	a0,-1
}
     ec8:	01c12083          	lw	ra,28(sp)
     ecc:	01812403          	lw	s0,24(sp)
     ed0:	01412483          	lw	s1,20(sp)
     ed4:	01012903          	lw	s2,16(sp)
     ed8:	00c12983          	lw	s3,12(sp)
     edc:	00812a03          	lw	s4,8(sp)
     ee0:	02010113          	addi	sp,sp,32
     ee4:	00008067          	ret
  *mlen = smlen - CRYPTO_BYTES;
     ee8:	fffff6b7          	lui	a3,0xfffff
     eec:	e0d68693          	addi	a3,a3,-499 # ffffee0d <_end_of_memory+0xfffcee0d>
     ef0:	00060493          	mv	s1,a2
  if(crypto_sign_verify(sm, CRYPTO_BYTES, sm + CRYPTO_BYTES, *mlen, pk))
     ef4:	1f390913          	addi	s2,s2,499
  *mlen = smlen - CRYPTO_BYTES;
     ef8:	00d986b3          	add	a3,s3,a3
     efc:	00d5a023          	sw	a3,0(a1)
  if(crypto_sign_verify(sm, CRYPTO_BYTES, sm + CRYPTO_BYTES, *mlen, pk))
     f00:	01260633          	add	a2,a2,s2
     f04:	00090593          	mv	a1,s2
     f08:	00048513          	mv	a0,s1
     f0c:	c41ff0ef          	jal	ra,b4c <pqcrystals_dilithium5_ref_verify>
     f10:	04051863          	bnez	a0,f60 <pqcrystals_dilithium5_ref_open+0xec>
    for(i = 0; i < *mlen; ++i)
     f14:	00042783          	lw	a5,0(s0)
     f18:	fa0788e3          	beqz	a5,ec8 <pqcrystals_dilithium5_ref_open+0x54>
     f1c:	00000793          	li	a5,0
      m[i] = sm[CRYPTO_BYTES + i];
     f20:	01278733          	add	a4,a5,s2
     f24:	00e48733          	add	a4,s1,a4
     f28:	00074683          	lbu	a3,0(a4)
     f2c:	00fa0733          	add	a4,s4,a5
    for(i = 0; i < *mlen; ++i)
     f30:	00178793          	addi	a5,a5,1 # fffee001 <_end_of_memory+0xfffbe001>
      m[i] = sm[CRYPTO_BYTES + i];
     f34:	00d70023          	sb	a3,0(a4)
    for(i = 0; i < *mlen; ++i)
     f38:	00042703          	lw	a4,0(s0)
     f3c:	fee7e2e3          	bltu	a5,a4,f20 <pqcrystals_dilithium5_ref_open+0xac>
}
     f40:	01c12083          	lw	ra,28(sp)
     f44:	01812403          	lw	s0,24(sp)
     f48:	01412483          	lw	s1,20(sp)
     f4c:	01012903          	lw	s2,16(sp)
     f50:	00c12983          	lw	s3,12(sp)
     f54:	00812a03          	lw	s4,8(sp)
     f58:	02010113          	addi	sp,sp,32
     f5c:	00008067          	ret
  *mlen = -1;
     f60:	fff00793          	li	a5,-1
     f64:	00f42023          	sw	a5,0(s0)
    m[i] = 0;
     f68:	00098613          	mv	a2,s3
     f6c:	00000593          	li	a1,0
     f70:	000a0513          	mv	a0,s4
     f74:	0f4070ef          	jal	ra,8068 <memset>
     f78:	f4dff06f          	j	ec4 <pqcrystals_dilithium5_ref_open+0x50>

00000f7c <pqcrystals_dilithium5_ref_pack_pk>:
*              - const polyveck *t1: pointer to vector t1
**************************************************/
void pack_pk(uint8_t pk[CRYPTO_PUBLICKEYBYTES],
             const uint8_t rho[SEEDBYTES],
             const polyveck *t1)
{
     f7c:	ff010113          	addi	sp,sp,-16
     f80:	00b56733          	or	a4,a0,a1
     f84:	00112623          	sw	ra,12(sp)
     f88:	00812423          	sw	s0,8(sp)
     f8c:	00912223          	sw	s1,4(sp)
     f90:	01212023          	sw	s2,0(sp)
     f94:	00377713          	andi	a4,a4,3
     f98:	00058793          	mv	a5,a1
     f9c:	08071c63          	bnez	a4,1034 <pqcrystals_dilithium5_ref_pack_pk+0xb8>
     fa0:	00158713          	addi	a4,a1,1
     fa4:	40e50733          	sub	a4,a0,a4
     fa8:	00373713          	sltiu	a4,a4,3
     fac:	08071463          	bnez	a4,1034 <pqcrystals_dilithium5_ref_pack_pk+0xb8>
  unsigned int i;

  for(i = 0; i < SEEDBYTES; ++i)
    pk[i] = rho[i];
     fb0:	0005a703          	lw	a4,0(a1)
     fb4:	00e52023          	sw	a4,0(a0)
     fb8:	0045a703          	lw	a4,4(a1)
     fbc:	00e52223          	sw	a4,4(a0)
     fc0:	0085a703          	lw	a4,8(a1)
     fc4:	00e52423          	sw	a4,8(a0)
     fc8:	00c5a703          	lw	a4,12(a1)
     fcc:	00e52623          	sw	a4,12(a0)
     fd0:	0105a703          	lw	a4,16(a1)
     fd4:	00e52823          	sw	a4,16(a0)
     fd8:	0145a703          	lw	a4,20(a1)
     fdc:	00e52a23          	sw	a4,20(a0)
     fe0:	0185a703          	lw	a4,24(a1)
     fe4:	00e52c23          	sw	a4,24(a0)
     fe8:	01c5a783          	lw	a5,28(a1)
     fec:	00f52e23          	sw	a5,28(a0)
  for(i = 0; i < SEEDBYTES; ++i)
     ff0:	000017b7          	lui	a5,0x1
     ff4:	a2078793          	addi	a5,a5,-1504 # a20 <pqcrystals_dilithium5_ref_signature+0x3f4>
     ff8:	02050413          	addi	s0,a0,32
     ffc:	00060493          	mv	s1,a2
    1000:	00f50933          	add	s2,a0,a5
  pk += SEEDBYTES;

  for(i = 0; i < K; ++i)
    polyt1_pack(pk + i*POLYT1_PACKEDBYTES, &t1->vec[i]);
    1004:	00048593          	mv	a1,s1
    1008:	00040513          	mv	a0,s0
  for(i = 0; i < K; ++i)
    100c:	14040413          	addi	s0,s0,320
    polyt1_pack(pk + i*POLYT1_PACKEDBYTES, &t1->vec[i]);
    1010:	5c9010ef          	jal	ra,2dd8 <pqcrystals_dilithium5_ref_polyt1_pack>
  for(i = 0; i < K; ++i)
    1014:	40048493          	addi	s1,s1,1024
    1018:	ff2416e3          	bne	s0,s2,1004 <pqcrystals_dilithium5_ref_pack_pk+0x88>
}
    101c:	00c12083          	lw	ra,12(sp)
    1020:	00812403          	lw	s0,8(sp)
    1024:	00412483          	lw	s1,4(sp)
    1028:	00012903          	lw	s2,0(sp)
    102c:	01010113          	addi	sp,sp,16
    1030:	00008067          	ret
    1034:	00050713          	mv	a4,a0
    1038:	02078593          	addi	a1,a5,32
    pk[i] = rho[i];
    103c:	0007c683          	lbu	a3,0(a5)
  for(i = 0; i < SEEDBYTES; ++i)
    1040:	00178793          	addi	a5,a5,1
    1044:	00170713          	addi	a4,a4,1
    pk[i] = rho[i];
    1048:	fed70fa3          	sb	a3,-1(a4)
  for(i = 0; i < SEEDBYTES; ++i)
    104c:	feb798e3          	bne	a5,a1,103c <pqcrystals_dilithium5_ref_pack_pk+0xc0>
    1050:	fa1ff06f          	j	ff0 <pqcrystals_dilithium5_ref_pack_pk+0x74>

00001054 <pqcrystals_dilithium5_ref_unpack_pk>:
*              - uint8_t pk[]: byte array containing bit-packed pk
**************************************************/
void unpack_pk(uint8_t rho[SEEDBYTES],
               polyveck *t1,
               const uint8_t pk[CRYPTO_PUBLICKEYBYTES])
{
    1054:	ff010113          	addi	sp,sp,-16
    1058:	00a66733          	or	a4,a2,a0
    105c:	00112623          	sw	ra,12(sp)
    1060:	00812423          	sw	s0,8(sp)
    1064:	00912223          	sw	s1,4(sp)
    1068:	01212023          	sw	s2,0(sp)
    106c:	00377713          	andi	a4,a4,3
    1070:	00050793          	mv	a5,a0
    1074:	08071c63          	bnez	a4,110c <pqcrystals_dilithium5_ref_unpack_pk+0xb8>
    1078:	00160713          	addi	a4,a2,1
    107c:	40e50733          	sub	a4,a0,a4
    1080:	00373713          	sltiu	a4,a4,3
    1084:	08071463          	bnez	a4,110c <pqcrystals_dilithium5_ref_unpack_pk+0xb8>
  unsigned int i;

  for(i = 0; i < SEEDBYTES; ++i)
    rho[i] = pk[i];
    1088:	00062703          	lw	a4,0(a2)
    108c:	02060413          	addi	s0,a2,32
    1090:	00e52023          	sw	a4,0(a0)
    1094:	00462703          	lw	a4,4(a2)
    1098:	00e52223          	sw	a4,4(a0)
    109c:	00862703          	lw	a4,8(a2)
    10a0:	00e52423          	sw	a4,8(a0)
    10a4:	00c62703          	lw	a4,12(a2)
    10a8:	00e52623          	sw	a4,12(a0)
    10ac:	01062703          	lw	a4,16(a2)
    10b0:	00e52823          	sw	a4,16(a0)
    10b4:	01462703          	lw	a4,20(a2)
    10b8:	00e52a23          	sw	a4,20(a0)
    10bc:	01862703          	lw	a4,24(a2)
    10c0:	00e52c23          	sw	a4,24(a0)
    10c4:	01c62703          	lw	a4,28(a2)
    10c8:	00e52e23          	sw	a4,28(a0)
  for(i = 0; i < SEEDBYTES; ++i)
    10cc:	000017b7          	lui	a5,0x1
    10d0:	a2078793          	addi	a5,a5,-1504 # a20 <pqcrystals_dilithium5_ref_signature+0x3f4>
    10d4:	00058493          	mv	s1,a1
    10d8:	00f60933          	add	s2,a2,a5
  pk += SEEDBYTES;

  for(i = 0; i < K; ++i)
    polyt1_unpack(&t1->vec[i], pk + i*POLYT1_PACKEDBYTES);
    10dc:	00040593          	mv	a1,s0
    10e0:	00048513          	mv	a0,s1
  for(i = 0; i < K; ++i)
    10e4:	14040413          	addi	s0,s0,320
    polyt1_unpack(&t1->vec[i], pk + i*POLYT1_PACKEDBYTES);
    10e8:	561010ef          	jal	ra,2e48 <pqcrystals_dilithium5_ref_polyt1_unpack>
  for(i = 0; i < K; ++i)
    10ec:	40048493          	addi	s1,s1,1024
    10f0:	ff2416e3          	bne	s0,s2,10dc <pqcrystals_dilithium5_ref_unpack_pk+0x88>
}
    10f4:	00c12083          	lw	ra,12(sp)
    10f8:	00812403          	lw	s0,8(sp)
    10fc:	00412483          	lw	s1,4(sp)
    1100:	00012903          	lw	s2,0(sp)
    1104:	01010113          	addi	sp,sp,16
    1108:	00008067          	ret
    110c:	00060713          	mv	a4,a2
    1110:	02060413          	addi	s0,a2,32
    rho[i] = pk[i];
    1114:	00074683          	lbu	a3,0(a4)
  for(i = 0; i < SEEDBYTES; ++i)
    1118:	00170713          	addi	a4,a4,1
    111c:	00178793          	addi	a5,a5,1
    rho[i] = pk[i];
    1120:	fed78fa3          	sb	a3,-1(a5)
  for(i = 0; i < SEEDBYTES; ++i)
    1124:	fe8718e3          	bne	a4,s0,1114 <pqcrystals_dilithium5_ref_unpack_pk+0xc0>
    1128:	fa5ff06f          	j	10cc <pqcrystals_dilithium5_ref_unpack_pk+0x78>

0000112c <pqcrystals_dilithium5_ref_pack_sk>:
             const uint8_t tr[SEEDBYTES],
             const uint8_t key[SEEDBYTES],
             const polyveck *t0,
             const polyvecl *s1,
             const polyveck *s2)
{
    112c:	fe010113          	addi	sp,sp,-32
    1130:	01212823          	sw	s2,16(sp)
    1134:	00050913          	mv	s2,a0
    1138:	00b968b3          	or	a7,s2,a1
    113c:	01312623          	sw	s3,12(sp)
    1140:	01412423          	sw	s4,8(sp)
    1144:	01512223          	sw	s5,4(sp)
    1148:	00112e23          	sw	ra,28(sp)
    114c:	00812c23          	sw	s0,24(sp)
    1150:	00912a23          	sw	s1,20(sp)
    1154:	0038f893          	andi	a7,a7,3
    1158:	00058513          	mv	a0,a1
    115c:	00070993          	mv	s3,a4
    1160:	00078a93          	mv	s5,a5
    1164:	00080a13          	mv	s4,a6
    1168:	18089c63          	bnez	a7,1300 <pqcrystals_dilithium5_ref_pack_sk+0x1d4>
    116c:	00158793          	addi	a5,a1,1
    1170:	40f907b3          	sub	a5,s2,a5
    1174:	0037b793          	sltiu	a5,a5,3
    1178:	18079463          	bnez	a5,1300 <pqcrystals_dilithium5_ref_pack_sk+0x1d4>
  unsigned int i;

  for(i = 0; i < SEEDBYTES; ++i)
    sk[i] = rho[i];
    117c:	0005a783          	lw	a5,0(a1)
    1180:	00f92023          	sw	a5,0(s2)
    1184:	0045a783          	lw	a5,4(a1)
    1188:	00f92223          	sw	a5,4(s2)
    118c:	0085a783          	lw	a5,8(a1)
    1190:	00f92423          	sw	a5,8(s2)
    1194:	00c5a783          	lw	a5,12(a1)
    1198:	00f92623          	sw	a5,12(s2)
    119c:	0105a783          	lw	a5,16(a1)
    11a0:	00f92823          	sw	a5,16(s2)
    11a4:	0145a783          	lw	a5,20(a1)
    11a8:	00f92a23          	sw	a5,20(s2)
    11ac:	0185a783          	lw	a5,24(a1)
    11b0:	00f92c23          	sw	a5,24(s2)
    11b4:	01c5a783          	lw	a5,28(a1)
    11b8:	00f92e23          	sw	a5,28(s2)
  for(i = 0; i < SEEDBYTES; ++i)
    11bc:	02090793          	addi	a5,s2,32
    11c0:	00f6e733          	or	a4,a3,a5
    11c4:	00377713          	andi	a4,a4,3
    11c8:	16071a63          	bnez	a4,133c <pqcrystals_dilithium5_ref_pack_sk+0x210>
    11cc:	00168713          	addi	a4,a3,1
    11d0:	40e78733          	sub	a4,a5,a4
    11d4:	00373713          	sltiu	a4,a4,3
    11d8:	16071263          	bnez	a4,133c <pqcrystals_dilithium5_ref_pack_sk+0x210>
  sk += SEEDBYTES;

  for(i = 0; i < SEEDBYTES; ++i)
    sk[i] = key[i];
    11dc:	0006a783          	lw	a5,0(a3)
    11e0:	02f92023          	sw	a5,32(s2)
    11e4:	0046a783          	lw	a5,4(a3)
    11e8:	02f92223          	sw	a5,36(s2)
    11ec:	0086a783          	lw	a5,8(a3)
    11f0:	02f92423          	sw	a5,40(s2)
    11f4:	00c6a783          	lw	a5,12(a3)
    11f8:	02f92623          	sw	a5,44(s2)
    11fc:	0106a783          	lw	a5,16(a3)
    1200:	02f92823          	sw	a5,48(s2)
    1204:	0146a783          	lw	a5,20(a3)
    1208:	02f92a23          	sw	a5,52(s2)
    120c:	0186a783          	lw	a5,24(a3)
    1210:	02f92c23          	sw	a5,56(s2)
    1214:	01c6a783          	lw	a5,28(a3)
    1218:	02f92e23          	sw	a5,60(s2)
  for(i = 0; i < SEEDBYTES; ++i)
    121c:	04090793          	addi	a5,s2,64
    1220:	00160713          	addi	a4,a2,1
    1224:	40e78733          	sub	a4,a5,a4
    1228:	00373713          	sltiu	a4,a4,3
    122c:	0e071a63          	bnez	a4,1320 <pqcrystals_dilithium5_ref_pack_sk+0x1f4>
    1230:	00f66733          	or	a4,a2,a5
    1234:	00377713          	andi	a4,a4,3
    1238:	0e071463          	bnez	a4,1320 <pqcrystals_dilithium5_ref_pack_sk+0x1f4>
  sk += SEEDBYTES;

  for(i = 0; i < SEEDBYTES; ++i)
    sk[i] = tr[i];
    123c:	00062783          	lw	a5,0(a2)
    1240:	04f92023          	sw	a5,64(s2)
    1244:	00462783          	lw	a5,4(a2)
    1248:	04f92223          	sw	a5,68(s2)
    124c:	00862783          	lw	a5,8(a2)
    1250:	04f92423          	sw	a5,72(s2)
    1254:	00c62783          	lw	a5,12(a2)
    1258:	04f92623          	sw	a5,76(s2)
    125c:	01062783          	lw	a5,16(a2)
    1260:	04f92823          	sw	a5,80(s2)
    1264:	01462783          	lw	a5,20(a2)
    1268:	04f92a23          	sw	a5,84(s2)
    126c:	01862783          	lw	a5,24(a2)
    1270:	04f92c23          	sw	a5,88(s2)
    1274:	01c62783          	lw	a5,28(a2)
    1278:	04f92e23          	sw	a5,92(s2)
  for(i = 0; i < SEEDBYTES; ++i)
    127c:	06090413          	addi	s0,s2,96
    1280:	30090493          	addi	s1,s2,768
  sk += SEEDBYTES;

  for(i = 0; i < L; ++i)
    polyeta_pack(sk + i*POLYETA_PACKEDBYTES, &s1->vec[i]);
    1284:	000a8593          	mv	a1,s5
    1288:	00040513          	mv	a0,s0
  for(i = 0; i < L; ++i)
    128c:	06040413          	addi	s0,s0,96
    polyeta_pack(sk + i*POLYETA_PACKEDBYTES, &s1->vec[i]);
    1290:	1a5010ef          	jal	ra,2c34 <pqcrystals_dilithium5_ref_polyeta_pack>
  for(i = 0; i < L; ++i)
    1294:	400a8a93          	addi	s5,s5,1024
    1298:	fe8496e3          	bne	s1,s0,1284 <pqcrystals_dilithium5_ref_pack_sk+0x158>
    129c:	60090413          	addi	s0,s2,1536
  sk += L*POLYETA_PACKEDBYTES;

  for(i = 0; i < K; ++i)
    polyeta_pack(sk + i*POLYETA_PACKEDBYTES, &s2->vec[i]);
    12a0:	000a0593          	mv	a1,s4
    12a4:	00048513          	mv	a0,s1
  for(i = 0; i < K; ++i)
    12a8:	06048493          	addi	s1,s1,96
    polyeta_pack(sk + i*POLYETA_PACKEDBYTES, &s2->vec[i]);
    12ac:	189010ef          	jal	ra,2c34 <pqcrystals_dilithium5_ref_polyeta_pack>
  for(i = 0; i < K; ++i)
    12b0:	400a0a13          	addi	s4,s4,1024
    12b4:	fe9416e3          	bne	s0,s1,12a0 <pqcrystals_dilithium5_ref_pack_sk+0x174>
    12b8:	000017b7          	lui	a5,0x1
    12bc:	30078793          	addi	a5,a5,768 # 1300 <pqcrystals_dilithium5_ref_pack_sk+0x1d4>
    12c0:	00f90933          	add	s2,s2,a5
  sk += K*POLYETA_PACKEDBYTES;

  for(i = 0; i < K; ++i)
    polyt0_pack(sk + i*POLYT0_PACKEDBYTES, &t0->vec[i]);
    12c4:	00098593          	mv	a1,s3
    12c8:	00040513          	mv	a0,s0
  for(i = 0; i < K; ++i)
    12cc:	1a040413          	addi	s0,s0,416
    polyt0_pack(sk + i*POLYT0_PACKEDBYTES, &t0->vec[i]);
    12d0:	3f5010ef          	jal	ra,2ec4 <pqcrystals_dilithium5_ref_polyt0_pack>
  for(i = 0; i < K; ++i)
    12d4:	40098993          	addi	s3,s3,1024
    12d8:	ff2416e3          	bne	s0,s2,12c4 <pqcrystals_dilithium5_ref_pack_sk+0x198>
}
    12dc:	01c12083          	lw	ra,28(sp)
    12e0:	01812403          	lw	s0,24(sp)
    12e4:	01412483          	lw	s1,20(sp)
    12e8:	01012903          	lw	s2,16(sp)
    12ec:	00c12983          	lw	s3,12(sp)
    12f0:	00812a03          	lw	s4,8(sp)
    12f4:	00412a83          	lw	s5,4(sp)
    12f8:	02010113          	addi	sp,sp,32
    12fc:	00008067          	ret
    1300:	00090793          	mv	a5,s2
    1304:	02050593          	addi	a1,a0,32
    sk[i] = rho[i];
    1308:	00054703          	lbu	a4,0(a0)
  for(i = 0; i < SEEDBYTES; ++i)
    130c:	00150513          	addi	a0,a0,1
    1310:	00178793          	addi	a5,a5,1
    sk[i] = rho[i];
    1314:	fee78fa3          	sb	a4,-1(a5)
  for(i = 0; i < SEEDBYTES; ++i)
    1318:	fea598e3          	bne	a1,a0,1308 <pqcrystals_dilithium5_ref_pack_sk+0x1dc>
    131c:	ea1ff06f          	j	11bc <pqcrystals_dilithium5_ref_pack_sk+0x90>
    1320:	02060693          	addi	a3,a2,32
    sk[i] = tr[i];
    1324:	00064703          	lbu	a4,0(a2)
  for(i = 0; i < SEEDBYTES; ++i)
    1328:	00160613          	addi	a2,a2,1
    132c:	00178793          	addi	a5,a5,1
    sk[i] = tr[i];
    1330:	fee78fa3          	sb	a4,-1(a5)
  for(i = 0; i < SEEDBYTES; ++i)
    1334:	fed618e3          	bne	a2,a3,1324 <pqcrystals_dilithium5_ref_pack_sk+0x1f8>
    1338:	f45ff06f          	j	127c <pqcrystals_dilithium5_ref_pack_sk+0x150>
    133c:	02068593          	addi	a1,a3,32
    sk[i] = key[i];
    1340:	0006c703          	lbu	a4,0(a3)
  for(i = 0; i < SEEDBYTES; ++i)
    1344:	00168693          	addi	a3,a3,1
    1348:	00178793          	addi	a5,a5,1
    sk[i] = key[i];
    134c:	fee78fa3          	sb	a4,-1(a5)
  for(i = 0; i < SEEDBYTES; ++i)
    1350:	feb698e3          	bne	a3,a1,1340 <pqcrystals_dilithium5_ref_pack_sk+0x214>
    1354:	ec9ff06f          	j	121c <pqcrystals_dilithium5_ref_pack_sk+0xf0>

00001358 <pqcrystals_dilithium5_ref_unpack_sk>:
               uint8_t key[SEEDBYTES],
               polyveck *t0,
               polyvecl *s1,
               polyveck *s2,
               const uint8_t sk[CRYPTO_SECRETKEYBYTES])
{
    1358:	fe010113          	addi	sp,sp,-32
    135c:	01212823          	sw	s2,16(sp)
    1360:	00080913          	mv	s2,a6
    1364:	00a86833          	or	a6,a6,a0
    1368:	01312623          	sw	s3,12(sp)
    136c:	01412423          	sw	s4,8(sp)
    1370:	01512223          	sw	s5,4(sp)
    1374:	00112e23          	sw	ra,28(sp)
    1378:	00812c23          	sw	s0,24(sp)
    137c:	00912a23          	sw	s1,20(sp)
    1380:	00387813          	andi	a6,a6,3
    1384:	00050893          	mv	a7,a0
    1388:	00068993          	mv	s3,a3
    138c:	00070a93          	mv	s5,a4
    1390:	00078a13          	mv	s4,a5
    1394:	18081c63          	bnez	a6,152c <pqcrystals_dilithium5_ref_unpack_sk+0x1d4>
    1398:	00190793          	addi	a5,s2,1
    139c:	40f507b3          	sub	a5,a0,a5
    13a0:	0037b793          	sltiu	a5,a5,3
    13a4:	18079463          	bnez	a5,152c <pqcrystals_dilithium5_ref_unpack_sk+0x1d4>
  unsigned int i;

  for(i = 0; i < SEEDBYTES; ++i)
    rho[i] = sk[i];
    13a8:	00092783          	lw	a5,0(s2)
    13ac:	02090813          	addi	a6,s2,32
    13b0:	00f52023          	sw	a5,0(a0)
    13b4:	00492783          	lw	a5,4(s2)
    13b8:	00f52223          	sw	a5,4(a0)
    13bc:	00892783          	lw	a5,8(s2)
    13c0:	00f52423          	sw	a5,8(a0)
    13c4:	00c92783          	lw	a5,12(s2)
    13c8:	00f52623          	sw	a5,12(a0)
    13cc:	01092783          	lw	a5,16(s2)
    13d0:	00f52823          	sw	a5,16(a0)
    13d4:	01492783          	lw	a5,20(s2)
    13d8:	00f52a23          	sw	a5,20(a0)
    13dc:	01892783          	lw	a5,24(s2)
    13e0:	00f52c23          	sw	a5,24(a0)
    13e4:	01c92783          	lw	a5,28(s2)
    13e8:	00f52e23          	sw	a5,28(a0)
  for(i = 0; i < SEEDBYTES; ++i)
    13ec:	010667b3          	or	a5,a2,a6
    13f0:	0037f793          	andi	a5,a5,3
    13f4:	16079c63          	bnez	a5,156c <pqcrystals_dilithium5_ref_unpack_sk+0x214>
    13f8:	02190793          	addi	a5,s2,33
    13fc:	40f607b3          	sub	a5,a2,a5
    1400:	0037b793          	sltiu	a5,a5,3
    1404:	16079463          	bnez	a5,156c <pqcrystals_dilithium5_ref_unpack_sk+0x214>
  sk += SEEDBYTES;

  for(i = 0; i < SEEDBYTES; ++i)
    key[i] = sk[i];
    1408:	02092783          	lw	a5,32(s2)
    140c:	04090893          	addi	a7,s2,64
    1410:	00f62023          	sw	a5,0(a2)
    1414:	02492783          	lw	a5,36(s2)
    1418:	00f62223          	sw	a5,4(a2)
    141c:	02892783          	lw	a5,40(s2)
    1420:	00f62423          	sw	a5,8(a2)
    1424:	02c92783          	lw	a5,44(s2)
    1428:	00f62623          	sw	a5,12(a2)
    142c:	03092783          	lw	a5,48(s2)
    1430:	00f62823          	sw	a5,16(a2)
    1434:	03492783          	lw	a5,52(s2)
    1438:	00f62a23          	sw	a5,20(a2)
    143c:	03892783          	lw	a5,56(s2)
    1440:	00f62c23          	sw	a5,24(a2)
    1444:	03c92783          	lw	a5,60(s2)
    1448:	00f62e23          	sw	a5,28(a2)
  for(i = 0; i < SEEDBYTES; ++i)
    144c:	04190793          	addi	a5,s2,65
    1450:	40f587b3          	sub	a5,a1,a5
    1454:	0037b793          	sltiu	a5,a5,3
    1458:	0e079a63          	bnez	a5,154c <pqcrystals_dilithium5_ref_unpack_sk+0x1f4>
    145c:	0115e7b3          	or	a5,a1,a7
    1460:	0037f793          	andi	a5,a5,3
    1464:	0e079463          	bnez	a5,154c <pqcrystals_dilithium5_ref_unpack_sk+0x1f4>
  sk += SEEDBYTES;

  for(i = 0; i < SEEDBYTES; ++i)
    tr[i] = sk[i];
    1468:	04092783          	lw	a5,64(s2)
    146c:	06090413          	addi	s0,s2,96
    1470:	00f5a023          	sw	a5,0(a1)
    1474:	04492783          	lw	a5,68(s2)
    1478:	00f5a223          	sw	a5,4(a1)
    147c:	04892783          	lw	a5,72(s2)
    1480:	00f5a423          	sw	a5,8(a1)
    1484:	04c92783          	lw	a5,76(s2)
    1488:	00f5a623          	sw	a5,12(a1)
    148c:	05092783          	lw	a5,80(s2)
    1490:	00f5a823          	sw	a5,16(a1)
    1494:	05492783          	lw	a5,84(s2)
    1498:	00f5aa23          	sw	a5,20(a1)
    149c:	05892783          	lw	a5,88(s2)
    14a0:	00f5ac23          	sw	a5,24(a1)
    14a4:	05c92783          	lw	a5,92(s2)
    14a8:	00f5ae23          	sw	a5,28(a1)
  for(i = 0; i < SEEDBYTES; ++i)
    14ac:	30090493          	addi	s1,s2,768
  sk += SEEDBYTES;

  for(i=0; i < L; ++i)
    polyeta_unpack(&s1->vec[i], sk + i*POLYETA_PACKEDBYTES);
    14b0:	00040593          	mv	a1,s0
    14b4:	000a8513          	mv	a0,s5
  for(i=0; i < L; ++i)
    14b8:	06040413          	addi	s0,s0,96
    polyeta_unpack(&s1->vec[i], sk + i*POLYETA_PACKEDBYTES);
    14bc:	039010ef          	jal	ra,2cf4 <pqcrystals_dilithium5_ref_polyeta_unpack>
  for(i=0; i < L; ++i)
    14c0:	400a8a93          	addi	s5,s5,1024
    14c4:	fe8496e3          	bne	s1,s0,14b0 <pqcrystals_dilithium5_ref_unpack_sk+0x158>
    14c8:	60090413          	addi	s0,s2,1536
  sk += L*POLYETA_PACKEDBYTES;

  for(i=0; i < K; ++i)
    polyeta_unpack(&s2->vec[i], sk + i*POLYETA_PACKEDBYTES);
    14cc:	00048593          	mv	a1,s1
    14d0:	000a0513          	mv	a0,s4
  for(i=0; i < K; ++i)
    14d4:	06048493          	addi	s1,s1,96
    polyeta_unpack(&s2->vec[i], sk + i*POLYETA_PACKEDBYTES);
    14d8:	01d010ef          	jal	ra,2cf4 <pqcrystals_dilithium5_ref_polyeta_unpack>
  for(i=0; i < K; ++i)
    14dc:	400a0a13          	addi	s4,s4,1024
    14e0:	fe9416e3          	bne	s0,s1,14cc <pqcrystals_dilithium5_ref_unpack_sk+0x174>
    14e4:	000017b7          	lui	a5,0x1
    14e8:	30078793          	addi	a5,a5,768 # 1300 <pqcrystals_dilithium5_ref_pack_sk+0x1d4>
    14ec:	00f90933          	add	s2,s2,a5
  sk += K*POLYETA_PACKEDBYTES;

  for(i=0; i < K; ++i)
    polyt0_unpack(&t0->vec[i], sk + i*POLYT0_PACKEDBYTES);
    14f0:	00040593          	mv	a1,s0
    14f4:	00098513          	mv	a0,s3
  for(i=0; i < K; ++i)
    14f8:	1a040413          	addi	s0,s0,416
    polyt0_unpack(&t0->vec[i], sk + i*POLYT0_PACKEDBYTES);
    14fc:	30d010ef          	jal	ra,3008 <pqcrystals_dilithium5_ref_polyt0_unpack>
  for(i=0; i < K; ++i)
    1500:	40098993          	addi	s3,s3,1024
    1504:	ff2416e3          	bne	s0,s2,14f0 <pqcrystals_dilithium5_ref_unpack_sk+0x198>
}
    1508:	01c12083          	lw	ra,28(sp)
    150c:	01812403          	lw	s0,24(sp)
    1510:	01412483          	lw	s1,20(sp)
    1514:	01012903          	lw	s2,16(sp)
    1518:	00c12983          	lw	s3,12(sp)
    151c:	00812a03          	lw	s4,8(sp)
    1520:	00412a83          	lw	s5,4(sp)
    1524:	02010113          	addi	sp,sp,32
    1528:	00008067          	ret
    152c:	00090793          	mv	a5,s2
    1530:	02090813          	addi	a6,s2,32
    rho[i] = sk[i];
    1534:	0007c703          	lbu	a4,0(a5)
  for(i = 0; i < SEEDBYTES; ++i)
    1538:	00178793          	addi	a5,a5,1
    153c:	00188893          	addi	a7,a7,1 # ff0001 <_end_of_memory+0xfc0001>
    rho[i] = sk[i];
    1540:	fee88fa3          	sb	a4,-1(a7)
  for(i = 0; i < SEEDBYTES; ++i)
    1544:	fef818e3          	bne	a6,a5,1534 <pqcrystals_dilithium5_ref_unpack_sk+0x1dc>
    1548:	ea5ff06f          	j	13ec <pqcrystals_dilithium5_ref_unpack_sk+0x94>
    154c:	00088613          	mv	a2,a7
    1550:	06090413          	addi	s0,s2,96
    tr[i] = sk[i];
    1554:	00064783          	lbu	a5,0(a2)
  for(i = 0; i < SEEDBYTES; ++i)
    1558:	00160613          	addi	a2,a2,1
    155c:	00158593          	addi	a1,a1,1
    tr[i] = sk[i];
    1560:	fef58fa3          	sb	a5,-1(a1)
  for(i = 0; i < SEEDBYTES; ++i)
    1564:	fe8618e3          	bne	a2,s0,1554 <pqcrystals_dilithium5_ref_unpack_sk+0x1fc>
    1568:	f45ff06f          	j	14ac <pqcrystals_dilithium5_ref_unpack_sk+0x154>
    156c:	04090893          	addi	a7,s2,64
    key[i] = sk[i];
    1570:	00084783          	lbu	a5,0(a6)
  for(i = 0; i < SEEDBYTES; ++i)
    1574:	00180813          	addi	a6,a6,1
    1578:	00160613          	addi	a2,a2,1
    key[i] = sk[i];
    157c:	fef60fa3          	sb	a5,-1(a2)
  for(i = 0; i < SEEDBYTES; ++i)
    1580:	ff0898e3          	bne	a7,a6,1570 <pqcrystals_dilithium5_ref_unpack_sk+0x218>
    1584:	ec9ff06f          	j	144c <pqcrystals_dilithium5_ref_unpack_sk+0xf4>

00001588 <pqcrystals_dilithium5_ref_pack_sig>:
**************************************************/
void pack_sig(uint8_t sig[CRYPTO_BYTES],
              const uint8_t c[SEEDBYTES],
              const polyvecl *z,
              const polyveck *h)
{
    1588:	00158713          	addi	a4,a1,1
    158c:	fe010113          	addi	sp,sp,-32
    1590:	40e50733          	sub	a4,a0,a4
    1594:	00812c23          	sw	s0,24(sp)
    1598:	00912a23          	sw	s1,20(sp)
    159c:	00112e23          	sw	ra,28(sp)
    15a0:	01212823          	sw	s2,16(sp)
    15a4:	01312623          	sw	s3,12(sp)
    15a8:	01412423          	sw	s4,8(sp)
    15ac:	00373713          	sltiu	a4,a4,3
    15b0:	00058793          	mv	a5,a1
    15b4:	00050413          	mv	s0,a0
    15b8:	00068493          	mv	s1,a3
    15bc:	10071863          	bnez	a4,16cc <pqcrystals_dilithium5_ref_pack_sig+0x144>
    15c0:	00b56733          	or	a4,a0,a1
    15c4:	00377713          	andi	a4,a4,3
    15c8:	10071263          	bnez	a4,16cc <pqcrystals_dilithium5_ref_pack_sig+0x144>
  unsigned int i, j, k;

  for(i=0; i < SEEDBYTES; ++i)
    sig[i] = c[i];
    15cc:	0005a703          	lw	a4,0(a1)
    15d0:	00e52023          	sw	a4,0(a0)
    15d4:	0045a703          	lw	a4,4(a1)
    15d8:	00e52223          	sw	a4,4(a0)
    15dc:	0085a703          	lw	a4,8(a1)
    15e0:	00e52423          	sw	a4,8(a0)
    15e4:	00c5a703          	lw	a4,12(a1)
    15e8:	00e52623          	sw	a4,12(a0)
    15ec:	0105a703          	lw	a4,16(a1)
    15f0:	00e52823          	sw	a4,16(a0)
    15f4:	0145a703          	lw	a4,20(a1)
    15f8:	00e52a23          	sw	a4,20(a0)
    15fc:	0185a703          	lw	a4,24(a1)
    1600:	00e52c23          	sw	a4,24(a0)
    1604:	01c5a783          	lw	a5,28(a1)
    1608:	00f52e23          	sw	a5,28(a0)
  for(i=0; i < SEEDBYTES; ++i)
    160c:	00001a37          	lui	s4,0x1
    1610:	1a0a0a13          	addi	s4,s4,416 # 11a0 <pqcrystals_dilithium5_ref_pack_sk+0x74>
    1614:	02040913          	addi	s2,s0,32
    1618:	00060993          	mv	s3,a2
    161c:	01440a33          	add	s4,s0,s4
  sig += SEEDBYTES;

  for(i = 0; i < L; ++i)
    polyz_pack(sig + i*POLYZ_PACKEDBYTES, &z->vec[i]);
    1620:	00098593          	mv	a1,s3
    1624:	00090513          	mv	a0,s2
  for(i = 0; i < L; ++i)
    1628:	28090913          	addi	s2,s2,640
    polyz_pack(sig + i*POLYZ_PACKEDBYTES, &z->vec[i]);
    162c:	371010ef          	jal	ra,319c <pqcrystals_dilithium5_ref_polyz_pack>
  for(i = 0; i < L; ++i)
    1630:	40098993          	addi	s3,s3,1024
    1634:	ff2a16e3          	bne	s4,s2,1620 <pqcrystals_dilithium5_ref_pack_sig+0x98>
  sig += L*POLYZ_PACKEDBYTES;
    1638:	00001937          	lui	s2,0x1
    163c:	1a090813          	addi	a6,s2,416 # 11a0 <pqcrystals_dilithium5_ref_pack_sk+0x74>
    1640:	01040833          	add	a6,s0,a6

  /* Encode h */
  for(i = 0; i < OMEGA + K; ++i)
    sig[i] = 0;
    1644:	00080513          	mv	a0,a6
    1648:	05300613          	li	a2,83
    164c:	00000593          	li	a1,0
    1650:	219060ef          	jal	ra,8068 <memset>
    1654:	1eb90913          	addi	s2,s2,491
    1658:	00002e37          	lui	t3,0x2
    165c:	00050813          	mv	a6,a0
    1660:	00048313          	mv	t1,s1
    1664:	012408b3          	add	a7,s0,s2
    1668:	01c48e33          	add	t3,s1,t3

  k = 0;
    166c:	00000693          	li	a3,0
  for(i = 0; i < K; ++i) {
    for(j = 0; j < N; ++j)
    1670:	10000513          	li	a0,256
{
    1674:	00030713          	mv	a4,t1
    for(j = 0; j < N; ++j)
    1678:	00000793          	li	a5,0
      if(h->vec[i].coeffs[j] != 0)
    167c:	00072603          	lw	a2,0(a4)
        sig[k++] = j;
    1680:	00d805b3          	add	a1,a6,a3
    for(j = 0; j < N; ++j)
    1684:	00470713          	addi	a4,a4,4
      if(h->vec[i].coeffs[j] != 0)
    1688:	00060663          	beqz	a2,1694 <pqcrystals_dilithium5_ref_pack_sig+0x10c>
        sig[k++] = j;
    168c:	00f58023          	sb	a5,0(a1)
    1690:	00168693          	addi	a3,a3,1
    for(j = 0; j < N; ++j)
    1694:	00178793          	addi	a5,a5,1
    1698:	fea792e3          	bne	a5,a0,167c <pqcrystals_dilithium5_ref_pack_sig+0xf4>

    sig[OMEGA + i] = k;
    169c:	00d88023          	sb	a3,0(a7)
  for(i = 0; i < K; ++i) {
    16a0:	40030313          	addi	t1,t1,1024
    16a4:	00188893          	addi	a7,a7,1
    16a8:	fc6e16e3          	bne	t3,t1,1674 <pqcrystals_dilithium5_ref_pack_sig+0xec>
  }
}
    16ac:	01c12083          	lw	ra,28(sp)
    16b0:	01812403          	lw	s0,24(sp)
    16b4:	01412483          	lw	s1,20(sp)
    16b8:	01012903          	lw	s2,16(sp)
    16bc:	00c12983          	lw	s3,12(sp)
    16c0:	00812a03          	lw	s4,8(sp)
    16c4:	02010113          	addi	sp,sp,32
    16c8:	00008067          	ret
    16cc:	00040713          	mv	a4,s0
    16d0:	02078593          	addi	a1,a5,32
    sig[i] = c[i];
    16d4:	0007c683          	lbu	a3,0(a5)
  for(i=0; i < SEEDBYTES; ++i)
    16d8:	00178793          	addi	a5,a5,1
    16dc:	00170713          	addi	a4,a4,1
    sig[i] = c[i];
    16e0:	fed70fa3          	sb	a3,-1(a4)
  for(i=0; i < SEEDBYTES; ++i)
    16e4:	fef598e3          	bne	a1,a5,16d4 <pqcrystals_dilithium5_ref_pack_sig+0x14c>
    16e8:	f25ff06f          	j	160c <pqcrystals_dilithium5_ref_pack_sig+0x84>

000016ec <pqcrystals_dilithium5_ref_unpack_sig>:
**************************************************/
int unpack_sig(uint8_t c[SEEDBYTES],
               polyvecl *z,
               polyveck *h,
               const uint8_t sig[CRYPTO_BYTES])
{
    16ec:	00168713          	addi	a4,a3,1
    16f0:	fd010113          	addi	sp,sp,-48
    16f4:	40e50733          	sub	a4,a0,a4
    16f8:	02912223          	sw	s1,36(sp)
    16fc:	01612823          	sw	s6,16(sp)
    1700:	02112623          	sw	ra,44(sp)
    1704:	02812423          	sw	s0,40(sp)
    1708:	03212023          	sw	s2,32(sp)
    170c:	01312e23          	sw	s3,28(sp)
    1710:	01412c23          	sw	s4,24(sp)
    1714:	01512a23          	sw	s5,20(sp)
    1718:	01712623          	sw	s7,12(sp)
    171c:	01812423          	sw	s8,8(sp)
    1720:	00373713          	sltiu	a4,a4,3
    1724:	00068493          	mv	s1,a3
    1728:	00050793          	mv	a5,a0
    172c:	00060b13          	mv	s6,a2
  unsigned int i, j, k;

  for(i = 0; i < SEEDBYTES; ++i)
    1730:	18071663          	bnez	a4,18bc <pqcrystals_dilithium5_ref_unpack_sig+0x1d0>
    1734:	00a6e733          	or	a4,a3,a0
    1738:	00377713          	andi	a4,a4,3
    173c:	18071063          	bnez	a4,18bc <pqcrystals_dilithium5_ref_unpack_sig+0x1d0>
    c[i] = sig[i];
    1740:	0006a703          	lw	a4,0(a3)
    1744:	02068413          	addi	s0,a3,32
    1748:	00e52023          	sw	a4,0(a0)
    174c:	0046a703          	lw	a4,4(a3)
    1750:	00e52223          	sw	a4,4(a0)
    1754:	0086a703          	lw	a4,8(a3)
    1758:	00e52423          	sw	a4,8(a0)
    175c:	00c6a703          	lw	a4,12(a3)
    1760:	00e52623          	sw	a4,12(a0)
    1764:	0106a703          	lw	a4,16(a3)
    1768:	00e52823          	sw	a4,16(a0)
    176c:	0146a703          	lw	a4,20(a3)
    1770:	00e52a23          	sw	a4,20(a0)
    1774:	0186a703          	lw	a4,24(a3)
    1778:	00e52c23          	sw	a4,24(a0)
    177c:	01c6a703          	lw	a4,28(a3)
    1780:	00e52e23          	sw	a4,28(a0)
  for(i = 0; i < SEEDBYTES; ++i)
    1784:	000019b7          	lui	s3,0x1
    1788:	1a098993          	addi	s3,s3,416 # 11a0 <pqcrystals_dilithium5_ref_pack_sk+0x74>
    178c:	00058913          	mv	s2,a1
    1790:	013489b3          	add	s3,s1,s3
  sig += SEEDBYTES;

  for(i = 0; i < L; ++i)
    polyz_unpack(&z->vec[i], sig + i*POLYZ_PACKEDBYTES);
    1794:	00040593          	mv	a1,s0
    1798:	00090513          	mv	a0,s2
  for(i = 0; i < L; ++i)
    179c:	28040413          	addi	s0,s0,640
    polyz_unpack(&z->vec[i], sig + i*POLYZ_PACKEDBYTES);
    17a0:	251010ef          	jal	ra,31f0 <pqcrystals_dilithium5_ref_polyz_unpack>
  for(i = 0; i < L; ++i)
    17a4:	40090913          	addi	s2,s2,1024
    17a8:	fe8996e3          	bne	s3,s0,1794 <pqcrystals_dilithium5_ref_unpack_sig+0xa8>
  sig += L*POLYZ_PACKEDBYTES;

  /* Decode h */
  k = 0;
  for(i = 0; i < K; ++i) {
    17ac:	00001437          	lui	s0,0x1
    17b0:	1eb40a93          	addi	s5,s0,491 # 11eb <pqcrystals_dilithium5_ref_pack_sk+0xbf>
    17b4:	000b0813          	mv	a6,s6
    17b8:	01548ab3          	add	s5,s1,s5
  k = 0;
    17bc:	00000a13          	li	s4,0
  for(i = 0; i < K; ++i) {
    17c0:	00000c13          	li	s8,0
    for(j = 0; j < N; ++j)
      h->vec[i].coeffs[j] = 0;

    if(sig[OMEGA + i] < k || sig[OMEGA + i] > OMEGA)
    17c4:	04b00913          	li	s2,75
    17c8:	19f40413          	addi	s0,s0,415
      return 1;

    for(j = k; j < sig[OMEGA + i]; ++j) {
      /* Coefficients are ordered for strong unforgeability */
      if(j > k && sig[j] <= sig[j-1]) return 1;
      h->vec[i].coeffs[sig[j]] = 1;
    17cc:	00100b93          	li	s7,1
  for(i = 0; i < K; ++i) {
    17d0:	00800993          	li	s3,8
      h->vec[i].coeffs[j] = 0;
    17d4:	00080513          	mv	a0,a6
    17d8:	40000613          	li	a2,1024
    17dc:	00000593          	li	a1,0
    17e0:	089060ef          	jal	ra,8068 <memset>
    if(sig[OMEGA + i] < k || sig[OMEGA + i] > OMEGA)
    17e4:	000ac703          	lbu	a4,0(s5)
      h->vec[i].coeffs[j] = 0;
    17e8:	00050813          	mv	a6,a0
    if(sig[OMEGA + i] < k || sig[OMEGA + i] > OMEGA)
    17ec:	00070793          	mv	a5,a4
    17f0:	09476c63          	bltu	a4,s4,1888 <pqcrystals_dilithium5_ref_unpack_sig+0x19c>
    17f4:	08e96a63          	bltu	s2,a4,1888 <pqcrystals_dilithium5_ref_unpack_sig+0x19c>
    for(j = k; j < sig[OMEGA + i]; ++j) {
    17f8:	04ea7263          	bgeu	s4,a4,183c <pqcrystals_dilithium5_ref_unpack_sig+0x150>
    17fc:	008a05b3          	add	a1,s4,s0
    1800:	00b485b3          	add	a1,s1,a1
    1804:	000a0713          	mv	a4,s4
      h->vec[i].coeffs[sig[j]] = 1;
    1808:	008c1693          	slli	a3,s8,0x8
      if(j > k && sig[j] <= sig[j-1]) return 1;
    180c:	0015c783          	lbu	a5,1(a1)
    1810:	00ea7663          	bgeu	s4,a4,181c <pqcrystals_dilithium5_ref_unpack_sig+0x130>
    1814:	0005c603          	lbu	a2,0(a1)
    1818:	06f67863          	bgeu	a2,a5,1888 <pqcrystals_dilithium5_ref_unpack_sig+0x19c>
      h->vec[i].coeffs[sig[j]] = 1;
    181c:	00f687b3          	add	a5,a3,a5
    1820:	00279793          	slli	a5,a5,0x2
    1824:	00fb07b3          	add	a5,s6,a5
    1828:	0177a023          	sw	s7,0(a5)
    for(j = k; j < sig[OMEGA + i]; ++j) {
    182c:	000ac783          	lbu	a5,0(s5)
    1830:	00170713          	addi	a4,a4,1
    1834:	00158593          	addi	a1,a1,1
    1838:	fcf76ae3          	bltu	a4,a5,180c <pqcrystals_dilithium5_ref_unpack_sig+0x120>
  for(i = 0; i < K; ++i) {
    183c:	001c0c13          	addi	s8,s8,1
    1840:	40080813          	addi	a6,a6,1024
    1844:	001a8a93          	addi	s5,s5,1
    1848:	013c0663          	beq	s8,s3,1854 <pqcrystals_dilithium5_ref_unpack_sig+0x168>
    184c:	00078a13          	mv	s4,a5
    1850:	f85ff06f          	j	17d4 <pqcrystals_dilithium5_ref_unpack_sig+0xe8>

    k = sig[OMEGA + i];
  }

  /* Extra indices are zero for strong unforgeability */
  for(j = k; j < OMEGA; ++j)
    1854:	04a00713          	li	a4,74
    1858:	08f76263          	bltu	a4,a5,18dc <pqcrystals_dilithium5_ref_unpack_sig+0x1f0>
    185c:	00001737          	lui	a4,0x1
    1860:	1a070693          	addi	a3,a4,416 # 11a0 <pqcrystals_dilithium5_ref_pack_sk+0x74>
    1864:	00d787b3          	add	a5,a5,a3
    1868:	1eb70713          	addi	a4,a4,491
    186c:	00f487b3          	add	a5,s1,a5
    1870:	00e484b3          	add	s1,s1,a4
    1874:	0080006f          	j	187c <pqcrystals_dilithium5_ref_unpack_sig+0x190>
    1878:	06978263          	beq	a5,s1,18dc <pqcrystals_dilithium5_ref_unpack_sig+0x1f0>
    if(sig[j])
    187c:	0007c703          	lbu	a4,0(a5)
  for(j = k; j < OMEGA; ++j)
    1880:	00178793          	addi	a5,a5,1
    if(sig[j])
    1884:	fe070ae3          	beqz	a4,1878 <pqcrystals_dilithium5_ref_unpack_sig+0x18c>
      return 1;
    1888:	00100513          	li	a0,1
      return 1;

  return 0;
}
    188c:	02c12083          	lw	ra,44(sp)
    1890:	02812403          	lw	s0,40(sp)
    1894:	02412483          	lw	s1,36(sp)
    1898:	02012903          	lw	s2,32(sp)
    189c:	01c12983          	lw	s3,28(sp)
    18a0:	01812a03          	lw	s4,24(sp)
    18a4:	01412a83          	lw	s5,20(sp)
    18a8:	01012b03          	lw	s6,16(sp)
    18ac:	00c12b83          	lw	s7,12(sp)
    18b0:	00812c03          	lw	s8,8(sp)
    18b4:	03010113          	addi	sp,sp,48
    18b8:	00008067          	ret
    18bc:	00048713          	mv	a4,s1
    18c0:	02048413          	addi	s0,s1,32
    c[i] = sig[i];
    18c4:	00074683          	lbu	a3,0(a4)
  for(i = 0; i < SEEDBYTES; ++i)
    18c8:	00170713          	addi	a4,a4,1
    18cc:	00178793          	addi	a5,a5,1
    c[i] = sig[i];
    18d0:	fed78fa3          	sb	a3,-1(a5)
  for(i = 0; i < SEEDBYTES; ++i)
    18d4:	fe8718e3          	bne	a4,s0,18c4 <pqcrystals_dilithium5_ref_unpack_sig+0x1d8>
    18d8:	eadff06f          	j	1784 <pqcrystals_dilithium5_ref_unpack_sig+0x98>
  return 0;
    18dc:	00000513          	li	a0,0
    18e0:	fadff06f          	j	188c <pqcrystals_dilithium5_ref_unpack_sig+0x1a0>

000018e4 <pqcrystals_dilithium5_ref_polyvec_matrix_expand>:
*              or AES256CTR(rho,j|i).
*
* Arguments:   - polyvecl mat[K]: output matrix
*              - const uint8_t rho[]: byte array containing seed rho
**************************************************/
void polyvec_matrix_expand(polyvecl mat[K], const uint8_t rho[SEEDBYTES]) {
    18e4:	fe010113          	addi	sp,sp,-32
    18e8:	01512223          	sw	s5,4(sp)
    18ec:	00002ab7          	lui	s5,0x2
    18f0:	01612023          	sw	s6,0(sp)
    18f4:	c00a8a93          	addi	s5,s5,-1024 # 1c00 <pqcrystals_dilithium5_ref_polyvecl_add+0x68>
    18f8:	ffffeb37          	lui	s6,0xffffe
    18fc:	01212823          	sw	s2,16(sp)
    1900:	01312623          	sw	s3,12(sp)
    1904:	01412423          	sw	s4,8(sp)
    1908:	00112e23          	sw	ra,28(sp)
    190c:	00812c23          	sw	s0,24(sp)
    1910:	00912a23          	sw	s1,20(sp)
    1914:	00058993          	mv	s3,a1
    1918:	01550933          	add	s2,a0,s5
    191c:	00000a13          	li	s4,0
    1920:	400b0b13          	addi	s6,s6,1024 # ffffe400 <_end_of_memory+0xfffce400>
  unsigned int i, j;

  for(i = 0; i < K; ++i)
    for(j = 0; j < L; ++j)
    1924:	016904b3          	add	s1,s2,s6
void polyvec_matrix_expand(polyvecl mat[K], const uint8_t rho[SEEDBYTES]) {
    1928:	000a0413          	mv	s0,s4
      poly_uniform(&mat[i].vec[j], rho, (i << 8) + j);
    192c:	00040613          	mv	a2,s0
    for(j = 0; j < L; ++j)
    1930:	00140413          	addi	s0,s0,1
      poly_uniform(&mat[i].vec[j], rho, (i << 8) + j);
    1934:	00048513          	mv	a0,s1
    1938:	00098593          	mv	a1,s3
    for(j = 0; j < L; ++j)
    193c:	01041413          	slli	s0,s0,0x10
    1940:	40048493          	addi	s1,s1,1024
      poly_uniform(&mat[i].vec[j], rho, (i << 8) + j);
    1944:	611000ef          	jal	ra,2754 <pqcrystals_dilithium5_ref_poly_uniform>
    for(j = 0; j < L; ++j)
    1948:	01045413          	srli	s0,s0,0x10
    194c:	ff2490e3          	bne	s1,s2,192c <pqcrystals_dilithium5_ref_polyvec_matrix_expand+0x48>
  for(i = 0; i < K; ++i)
    1950:	100a0a13          	addi	s4,s4,256
    1954:	010a1a13          	slli	s4,s4,0x10
    1958:	010a5a13          	srli	s4,s4,0x10
    195c:	800a0793          	addi	a5,s4,-2048
    1960:	01548933          	add	s2,s1,s5
    1964:	fc0790e3          	bnez	a5,1924 <pqcrystals_dilithium5_ref_polyvec_matrix_expand+0x40>
}
    1968:	01c12083          	lw	ra,28(sp)
    196c:	01812403          	lw	s0,24(sp)
    1970:	01412483          	lw	s1,20(sp)
    1974:	01012903          	lw	s2,16(sp)
    1978:	00c12983          	lw	s3,12(sp)
    197c:	00812a03          	lw	s4,8(sp)
    1980:	00412a83          	lw	s5,4(sp)
    1984:	00012b03          	lw	s6,0(sp)
    1988:	02010113          	addi	sp,sp,32
    198c:	00008067          	ret

00001990 <pqcrystals_dilithium5_ref_polyvec_matrix_pointwise_montgomery>:

void polyvec_matrix_pointwise_montgomery(polyveck *t, const polyvecl mat[K], const polyvecl *v) {
    1990:	fe010113          	addi	sp,sp,-32
    1994:	000027b7          	lui	a5,0x2
    1998:	01212823          	sw	s2,16(sp)
    199c:	40078913          	addi	s2,a5,1024 # 2400 <pqcrystals_dilithium5_ref_poly_add+0x20>
    19a0:	00812c23          	sw	s0,24(sp)
    19a4:	00912a23          	sw	s1,20(sp)
    19a8:	01312623          	sw	s3,12(sp)
    19ac:	01412423          	sw	s4,8(sp)
    19b0:	00112e23          	sw	ra,28(sp)
    19b4:	00050313          	mv	t1,a0
    19b8:	00060993          	mv	s3,a2
    19bc:	00058a13          	mv	s4,a1
    19c0:	40050413          	addi	s0,a0,1024
    19c4:	01250933          	add	s2,a0,s2
    19c8:	c0078493          	addi	s1,a5,-1024
#ifdef FPAU
  unsigned int i, j;
  int32_t d, u_coeff, v_coeff;

  for(i = 0; i < N; i++){
    w->coeffs[i] = 0;
    19cc:	00030513          	mv	a0,t1
    19d0:	40000613          	li	a2,1024
    19d4:	00000593          	li	a1,0
    19d8:	690060ef          	jal	ra,8068 <memset>
    19dc:	00050313          	mv	t1,a0
    19e0:	000a0813          	mv	a6,s4
    19e4:	00098893          	mv	a7,s3
    19e8:	009a0e33          	add	t3,s4,s1
  }

  for(i = 0; i < L; ++i) {
    for(j = 0; j < N; j++){
    19ec:	00088693          	mv	a3,a7
    19f0:	00080713          	mv	a4,a6
    19f4:	00030793          	mv	a5,t1
      d = w->coeffs[j];
    19f8:	0007a503          	lw	a0,0(a5)
      u_coeff = u->vec[i].coeffs[j];
    19fc:	00072603          	lw	a2,0(a4)
      v_coeff = v->vec[i].coeffs[j];
    1a00:	0006a583          	lw	a1,0(a3)

      // Compute MAC operation
#ifndef STEEL
      asm volatile("nop"); //ORCA
    1a04:	00000013          	nop
      asm volatile("nop"); //ORCA
    1a08:	00000013          	nop
      asm volatile("nop"); //ORCA
    1a0c:	00000013          	nop
#endif
      asm volatile("fpau.dil.mac %0, %1, %2\n": : "r"(u_coeff), "r"(v_coeff),"r"(d): );
    1a10:	50a5a633          	fpau.dil.mac	a2,a1,a0

      // Store the result
      w->coeffs[j] = u_coeff;
    1a14:	00c7a023          	sw	a2,0(a5)
    for(j = 0; j < N; j++){
    1a18:	00478793          	addi	a5,a5,4
    1a1c:	00470713          	addi	a4,a4,4
    1a20:	00468693          	addi	a3,a3,4
    1a24:	fc879ae3          	bne	a5,s0,19f8 <pqcrystals_dilithium5_ref_polyvec_matrix_pointwise_montgomery+0x68>
  for(i = 0; i < L; ++i) {
    1a28:	40080813          	addi	a6,a6,1024
    1a2c:	40088893          	addi	a7,a7,1024
    1a30:	fbc81ee3          	bne	a6,t3,19ec <pqcrystals_dilithium5_ref_polyvec_matrix_pointwise_montgomery+0x5c>
  for(i = 0; i < K; ++i){
    1a34:	40078413          	addi	s0,a5,1024
    1a38:	40030313          	addi	t1,t1,1024
    1a3c:	01240663          	beq	s0,s2,1a48 <pqcrystals_dilithium5_ref_polyvec_matrix_pointwise_montgomery+0xb8>
    1a40:	00080a13          	mv	s4,a6
    1a44:	f89ff06f          	j	19cc <pqcrystals_dilithium5_ref_polyvec_matrix_pointwise_montgomery+0x3c>
}
    1a48:	01c12083          	lw	ra,28(sp)
    1a4c:	01812403          	lw	s0,24(sp)
    1a50:	01412483          	lw	s1,20(sp)
    1a54:	01012903          	lw	s2,16(sp)
    1a58:	00c12983          	lw	s3,12(sp)
    1a5c:	00812a03          	lw	s4,8(sp)
    1a60:	02010113          	addi	sp,sp,32
    1a64:	00008067          	ret

00001a68 <pqcrystals_dilithium5_ref_polyvecl_uniform_eta>:
void polyvecl_uniform_eta(polyvecl *v, const uint8_t seed[CRHBYTES], uint16_t nonce) {
    1a68:	fe010113          	addi	sp,sp,-32
    1a6c:	01212823          	sw	s2,16(sp)
    1a70:	00002937          	lui	s2,0x2
    1a74:	c0090913          	addi	s2,s2,-1024 # 1c00 <pqcrystals_dilithium5_ref_polyvecl_add+0x68>
    1a78:	00812c23          	sw	s0,24(sp)
    1a7c:	00912a23          	sw	s1,20(sp)
    1a80:	01312623          	sw	s3,12(sp)
    1a84:	00112e23          	sw	ra,28(sp)
    1a88:	00050493          	mv	s1,a0
    1a8c:	00058993          	mv	s3,a1
    1a90:	00060413          	mv	s0,a2
  for(i = 0; i < L; ++i)
    1a94:	01250933          	add	s2,a0,s2
    poly_uniform_eta(&v->vec[i], seed, nonce++);
    1a98:	00140793          	addi	a5,s0,1
    1a9c:	00040613          	mv	a2,s0
    1aa0:	00048513          	mv	a0,s1
    1aa4:	01079413          	slli	s0,a5,0x10
  for(i = 0; i < L; ++i)
    1aa8:	40048493          	addi	s1,s1,1024
    poly_uniform_eta(&v->vec[i], seed, nonce++);
    1aac:	00098593          	mv	a1,s3
    1ab0:	01045413          	srli	s0,s0,0x10
    1ab4:	659000ef          	jal	ra,290c <pqcrystals_dilithium5_ref_poly_uniform_eta>
  for(i = 0; i < L; ++i)
    1ab8:	ff2490e3          	bne	s1,s2,1a98 <pqcrystals_dilithium5_ref_polyvecl_uniform_eta+0x30>
}
    1abc:	01c12083          	lw	ra,28(sp)
    1ac0:	01812403          	lw	s0,24(sp)
    1ac4:	01412483          	lw	s1,20(sp)
    1ac8:	01012903          	lw	s2,16(sp)
    1acc:	00c12983          	lw	s3,12(sp)
    1ad0:	02010113          	addi	sp,sp,32
    1ad4:	00008067          	ret

00001ad8 <pqcrystals_dilithium5_ref_polyvecl_uniform_gamma1>:
void polyvecl_uniform_gamma1(polyvecl *v, const uint8_t seed[CRHBYTES], uint16_t nonce) {
    1ad8:	fe010113          	addi	sp,sp,-32
    1adc:	00812c23          	sw	s0,24(sp)
    poly_uniform_gamma1(&v->vec[i], seed, L*nonce + i);
    1ae0:	00361413          	slli	s0,a2,0x3
void polyvecl_uniform_gamma1(polyvecl *v, const uint8_t seed[CRHBYTES], uint16_t nonce) {
    1ae4:	01212823          	sw	s2,16(sp)
    poly_uniform_gamma1(&v->vec[i], seed, L*nonce + i);
    1ae8:	40c40433          	sub	s0,s0,a2
    1aec:	00002937          	lui	s2,0x2
    1af0:	01041413          	slli	s0,s0,0x10
    1af4:	c0090913          	addi	s2,s2,-1024 # 1c00 <pqcrystals_dilithium5_ref_polyvecl_add+0x68>
void polyvecl_uniform_gamma1(polyvecl *v, const uint8_t seed[CRHBYTES], uint16_t nonce) {
    1af8:	00912a23          	sw	s1,20(sp)
    1afc:	01312623          	sw	s3,12(sp)
    1b00:	00112e23          	sw	ra,28(sp)
    1b04:	00050493          	mv	s1,a0
    1b08:	00058993          	mv	s3,a1
    poly_uniform_gamma1(&v->vec[i], seed, L*nonce + i);
    1b0c:	01045413          	srli	s0,s0,0x10
    1b10:	01250933          	add	s2,a0,s2
    1b14:	00040613          	mv	a2,s0
  for(i = 0; i < L; ++i)
    1b18:	00140413          	addi	s0,s0,1
    poly_uniform_gamma1(&v->vec[i], seed, L*nonce + i);
    1b1c:	00048513          	mv	a0,s1
    1b20:	00098593          	mv	a1,s3
  for(i = 0; i < L; ++i)
    1b24:	01041413          	slli	s0,s0,0x10
    1b28:	40048493          	addi	s1,s1,1024
    poly_uniform_gamma1(&v->vec[i], seed, L*nonce + i);
    1b2c:	748010ef          	jal	ra,3274 <pqcrystals_dilithium5_ref_poly_uniform_gamma1>
  for(i = 0; i < L; ++i)
    1b30:	01045413          	srli	s0,s0,0x10
    1b34:	ff2490e3          	bne	s1,s2,1b14 <pqcrystals_dilithium5_ref_polyvecl_uniform_gamma1+0x3c>
}
    1b38:	01c12083          	lw	ra,28(sp)
    1b3c:	01812403          	lw	s0,24(sp)
    1b40:	01412483          	lw	s1,20(sp)
    1b44:	01012903          	lw	s2,16(sp)
    1b48:	00c12983          	lw	s3,12(sp)
    1b4c:	02010113          	addi	sp,sp,32
    1b50:	00008067          	ret

00001b54 <pqcrystals_dilithium5_ref_polyvecl_reduce>:
void polyvecl_reduce(polyvecl *v) {
    1b54:	ff010113          	addi	sp,sp,-16
    1b58:	00912223          	sw	s1,4(sp)
    1b5c:	000024b7          	lui	s1,0x2
    1b60:	c0048493          	addi	s1,s1,-1024 # 1c00 <pqcrystals_dilithium5_ref_polyvecl_add+0x68>
    1b64:	00812423          	sw	s0,8(sp)
    1b68:	00112623          	sw	ra,12(sp)
    1b6c:	00050413          	mv	s0,a0
    1b70:	009504b3          	add	s1,a0,s1
    poly_reduce(&v->vec[i]);
    1b74:	00040513          	mv	a0,s0
  for(i = 0; i < L; ++i)
    1b78:	40040413          	addi	s0,s0,1024
    poly_reduce(&v->vec[i]);
    1b7c:	7e4000ef          	jal	ra,2360 <pqcrystals_dilithium5_ref_poly_reduce>
  for(i = 0; i < L; ++i)
    1b80:	fe941ae3          	bne	s0,s1,1b74 <pqcrystals_dilithium5_ref_polyvecl_reduce+0x20>
}
    1b84:	00c12083          	lw	ra,12(sp)
    1b88:	00812403          	lw	s0,8(sp)
    1b8c:	00412483          	lw	s1,4(sp)
    1b90:	01010113          	addi	sp,sp,16
    1b94:	00008067          	ret

00001b98 <pqcrystals_dilithium5_ref_polyvecl_add>:
void polyvecl_add(polyvecl *w, const polyvecl *u, const polyvecl *v) {
    1b98:	fe010113          	addi	sp,sp,-32
    1b9c:	00912a23          	sw	s1,20(sp)
  for(i = 0; i < L; ++i)
    1ba0:	000024b7          	lui	s1,0x2
void polyvecl_add(polyvecl *w, const polyvecl *u, const polyvecl *v) {
    1ba4:	00812c23          	sw	s0,24(sp)
    1ba8:	01212823          	sw	s2,16(sp)
    1bac:	01312623          	sw	s3,12(sp)
    1bb0:	01412423          	sw	s4,8(sp)
    1bb4:	00112e23          	sw	ra,28(sp)
    1bb8:	00050a13          	mv	s4,a0
    1bbc:	00058993          	mv	s3,a1
    1bc0:	00060913          	mv	s2,a2
    1bc4:	00000413          	li	s0,0
  for(i = 0; i < L; ++i)
    1bc8:	c0048493          	addi	s1,s1,-1024 # 1c00 <pqcrystals_dilithium5_ref_polyvecl_add+0x68>
    poly_add(&w->vec[i], &u->vec[i], &v->vec[i]);
    1bcc:	00890633          	add	a2,s2,s0
    1bd0:	008985b3          	add	a1,s3,s0
    1bd4:	008a0533          	add	a0,s4,s0
  for(i = 0; i < L; ++i)
    1bd8:	40040413          	addi	s0,s0,1024
    poly_add(&w->vec[i], &u->vec[i], &v->vec[i]);
    1bdc:	005000ef          	jal	ra,23e0 <pqcrystals_dilithium5_ref_poly_add>
  for(i = 0; i < L; ++i)
    1be0:	fe9416e3          	bne	s0,s1,1bcc <pqcrystals_dilithium5_ref_polyvecl_add+0x34>
}
    1be4:	01c12083          	lw	ra,28(sp)
    1be8:	01812403          	lw	s0,24(sp)
    1bec:	01412483          	lw	s1,20(sp)
    1bf0:	01012903          	lw	s2,16(sp)
    1bf4:	00c12983          	lw	s3,12(sp)
    1bf8:	00812a03          	lw	s4,8(sp)
    1bfc:	02010113          	addi	sp,sp,32
    1c00:	00008067          	ret

00001c04 <pqcrystals_dilithium5_ref_polyvecl_ntt>:
void polyvecl_ntt(polyvecl *v) {
    1c04:	ff010113          	addi	sp,sp,-16
    1c08:	00912223          	sw	s1,4(sp)
    1c0c:	000024b7          	lui	s1,0x2
    1c10:	c0048493          	addi	s1,s1,-1024 # 1c00 <pqcrystals_dilithium5_ref_polyvecl_add+0x68>
    1c14:	00812423          	sw	s0,8(sp)
    1c18:	00112623          	sw	ra,12(sp)
    1c1c:	00050413          	mv	s0,a0
    1c20:	009504b3          	add	s1,a0,s1
    poly_ntt(&v->vec[i]);
    1c24:	00040513          	mv	a0,s0
  for(i = 0; i < L; ++i)
    1c28:	40040413          	addi	s0,s0,1024
    poly_ntt(&v->vec[i]);
    1c2c:	085000ef          	jal	ra,24b0 <pqcrystals_dilithium5_ref_poly_ntt>
  for(i = 0; i < L; ++i)
    1c30:	fe941ae3          	bne	s0,s1,1c24 <pqcrystals_dilithium5_ref_polyvecl_ntt+0x20>
}
    1c34:	00c12083          	lw	ra,12(sp)
    1c38:	00812403          	lw	s0,8(sp)
    1c3c:	00412483          	lw	s1,4(sp)
    1c40:	01010113          	addi	sp,sp,16
    1c44:	00008067          	ret

00001c48 <pqcrystals_dilithium5_ref_polyvecl_invntt_tomont>:
void polyvecl_invntt_tomont(polyvecl *v) {
    1c48:	ff010113          	addi	sp,sp,-16
    1c4c:	00912223          	sw	s1,4(sp)
    1c50:	000024b7          	lui	s1,0x2
    1c54:	c0048493          	addi	s1,s1,-1024 # 1c00 <pqcrystals_dilithium5_ref_polyvecl_add+0x68>
    1c58:	00812423          	sw	s0,8(sp)
    1c5c:	00112623          	sw	ra,12(sp)
    1c60:	00050413          	mv	s0,a0
    1c64:	009504b3          	add	s1,a0,s1
    poly_invntt_tomont(&v->vec[i]);
    1c68:	00040513          	mv	a0,s0
  for(i = 0; i < L; ++i)
    1c6c:	40040413          	addi	s0,s0,1024
    poly_invntt_tomont(&v->vec[i]);
    1c70:	045000ef          	jal	ra,24b4 <pqcrystals_dilithium5_ref_poly_invntt_tomont>
  for(i = 0; i < L; ++i)
    1c74:	fe941ae3          	bne	s0,s1,1c68 <pqcrystals_dilithium5_ref_polyvecl_invntt_tomont+0x20>
}
    1c78:	00c12083          	lw	ra,12(sp)
    1c7c:	00812403          	lw	s0,8(sp)
    1c80:	00412483          	lw	s1,4(sp)
    1c84:	01010113          	addi	sp,sp,16
    1c88:	00008067          	ret

00001c8c <pqcrystals_dilithium5_ref_polyvecl_pointwise_poly_montgomery>:
  for(i = 0; i < L; ++i)
    1c8c:	00002e37          	lui	t3,0x2
    1c90:	c00e0e13          	addi	t3,t3,-1024 # 1c00 <pqcrystals_dilithium5_ref_polyvecl_add+0x68>
    1c94:	00050313          	mv	t1,a0
void polyvecl_pointwise_poly_montgomery(polyvecl *r, const poly *a, const polyvecl *v) {
    1c98:	00058e93          	mv	t4,a1
    1c9c:	00060893          	mv	a7,a2
    1ca0:	01c60e33          	add	t3,a2,t3
    1ca4:	40058813          	addi	a6,a1,1024
      asm volatile("fpau.dil.mac %0, %1, %2\n": : "r"(u_coeff), "r"(v_coeff),"r"(0): );
    1ca8:	00000513          	li	a0,0
    for( unsigned int j = 0; j < N; ++j)
    1cac:	000e8793          	mv	a5,t4
void polyvecl_pointwise_poly_montgomery(polyvecl *r, const poly *a, const polyvecl *v) {
    1cb0:	00030693          	mv	a3,t1
    1cb4:	00088713          	mv	a4,a7
      u_coeff = a->coeffs[j];
    1cb8:	0007a603          	lw	a2,0(a5)
      v_coeff = v->vec[i].coeffs[j];
    1cbc:	00072583          	lw	a1,0(a4)
      asm volatile ("nop"); //ORCA
    1cc0:	00000013          	nop
      asm volatile ("nop"); //ORCA
    1cc4:	00000013          	nop
      asm volatile ("nop"); //ORCA
    1cc8:	00000013          	nop
      asm volatile("fpau.dil.mac %0, %1, %2\n": : "r"(u_coeff), "r"(v_coeff),"r"(0): );
    1ccc:	50a5a633          	fpau.dil.mac	a2,a1,a0
      r->vec[i].coeffs[j] = u_coeff;
    1cd0:	00c6a023          	sw	a2,0(a3)
    for( unsigned int j = 0; j < N; ++j)
    1cd4:	00478793          	addi	a5,a5,4
    1cd8:	00470713          	addi	a4,a4,4
    1cdc:	00468693          	addi	a3,a3,4
    1ce0:	fd079ce3          	bne	a5,a6,1cb8 <pqcrystals_dilithium5_ref_polyvecl_pointwise_poly_montgomery+0x2c>
  for(i = 0; i < L; ++i)
    1ce4:	40088893          	addi	a7,a7,1024
    1ce8:	40030313          	addi	t1,t1,1024
    1cec:	fdc890e3          	bne	a7,t3,1cac <pqcrystals_dilithium5_ref_polyvecl_pointwise_poly_montgomery+0x20>
}
    1cf0:	00008067          	ret

00001cf4 <pqcrystals_dilithium5_ref_polyvecl_pointwise_acc_montgomery>:
{
    1cf4:	ff010113          	addi	sp,sp,-16
    1cf8:	00912223          	sw	s1,4(sp)
    1cfc:	01212023          	sw	s2,0(sp)
    1d00:	00060493          	mv	s1,a2
    1d04:	00058913          	mv	s2,a1
    w->coeffs[i] = 0;
    1d08:	40000613          	li	a2,1024
    1d0c:	00000593          	li	a1,0
{
    1d10:	00812423          	sw	s0,8(sp)
    1d14:	00112623          	sw	ra,12(sp)
    1d18:	00050413          	mv	s0,a0
    w->coeffs[i] = 0;
    1d1c:	34c060ef          	jal	ra,8068 <memset>
    1d20:	00002e37          	lui	t3,0x2
    1d24:	c00e0e13          	addi	t3,t3,-1024 # 1c00 <pqcrystals_dilithium5_ref_polyvecl_add+0x68>
    1d28:	00090893          	mv	a7,s2
    1d2c:	00048313          	mv	t1,s1
    1d30:	01c90e33          	add	t3,s2,t3
    1d34:	40040813          	addi	a6,s0,1024
    for(j = 0; j < N; j++){
    1d38:	00040793          	mv	a5,s0
{
    1d3c:	00030693          	mv	a3,t1
    1d40:	00088713          	mv	a4,a7
      d = w->coeffs[j];
    1d44:	0007a503          	lw	a0,0(a5)
      u_coeff = u->vec[i].coeffs[j];
    1d48:	00072603          	lw	a2,0(a4)
      v_coeff = v->vec[i].coeffs[j];
    1d4c:	0006a583          	lw	a1,0(a3)
      asm volatile("nop"); //ORCA
    1d50:	00000013          	nop
      asm volatile("nop"); //ORCA
    1d54:	00000013          	nop
      asm volatile("nop"); //ORCA
    1d58:	00000013          	nop
      asm volatile("fpau.dil.mac %0, %1, %2\n": : "r"(u_coeff), "r"(v_coeff),"r"(d): );
    1d5c:	50a5a633          	fpau.dil.mac	a2,a1,a0
      w->coeffs[j] = u_coeff;
    1d60:	00c7a023          	sw	a2,0(a5)
    for(j = 0; j < N; j++){
    1d64:	00478793          	addi	a5,a5,4
    1d68:	00470713          	addi	a4,a4,4
    1d6c:	00468693          	addi	a3,a3,4
    1d70:	fd079ae3          	bne	a5,a6,1d44 <pqcrystals_dilithium5_ref_polyvecl_pointwise_acc_montgomery+0x50>
  for(i = 0; i < L; ++i) {
    1d74:	40088893          	addi	a7,a7,1024
    1d78:	40030313          	addi	t1,t1,1024
    1d7c:	fbc89ee3          	bne	a7,t3,1d38 <pqcrystals_dilithium5_ref_polyvecl_pointwise_acc_montgomery+0x44>
  for(i = 1; i < L; ++i) {
    poly_pointwise_montgomery(&t, &u->vec[i], &v->vec[i]);
    poly_add(w, w, &t);
  }
#endif
}
    1d80:	00c12083          	lw	ra,12(sp)
    1d84:	00812403          	lw	s0,8(sp)
    1d88:	00412483          	lw	s1,4(sp)
    1d8c:	00012903          	lw	s2,0(sp)
    1d90:	01010113          	addi	sp,sp,16
    1d94:	00008067          	ret

00001d98 <pqcrystals_dilithium5_ref_polyvecl_chknorm>:
*              - int32_t B: norm bound
*
* Returns 0 if norm of all polynomials is strictly smaller than B <= (Q-1)/8
* and 1 otherwise.
**************************************************/
int polyvecl_chknorm(const polyvecl *v, int32_t bound)  {
    1d98:	ff010113          	addi	sp,sp,-16
    1d9c:	00912223          	sw	s1,4(sp)
    1da0:	000024b7          	lui	s1,0x2
    1da4:	c0048493          	addi	s1,s1,-1024 # 1c00 <pqcrystals_dilithium5_ref_polyvecl_add+0x68>
    1da8:	00812423          	sw	s0,8(sp)
    1dac:	01212023          	sw	s2,0(sp)
    1db0:	00112623          	sw	ra,12(sp)
    1db4:	00050413          	mv	s0,a0
    1db8:	00058913          	mv	s2,a1
    1dbc:	009504b3          	add	s1,a0,s1
  unsigned int i;

  for(i = 0; i < L; ++i)
    if(poly_chknorm(&v->vec[i], bound))
    1dc0:	00040513          	mv	a0,s0
    1dc4:	00090593          	mv	a1,s2
    1dc8:	149000ef          	jal	ra,2710 <pqcrystals_dilithium5_ref_poly_chknorm>
  for(i = 0; i < L; ++i)
    1dcc:	40040413          	addi	s0,s0,1024
    if(poly_chknorm(&v->vec[i], bound))
    1dd0:	02051063          	bnez	a0,1df0 <pqcrystals_dilithium5_ref_polyvecl_chknorm+0x58>
  for(i = 0; i < L; ++i)
    1dd4:	fe9416e3          	bne	s0,s1,1dc0 <pqcrystals_dilithium5_ref_polyvecl_chknorm+0x28>
      return 1;

  return 0;
}
    1dd8:	00c12083          	lw	ra,12(sp)
    1ddc:	00812403          	lw	s0,8(sp)
    1de0:	00412483          	lw	s1,4(sp)
    1de4:	00012903          	lw	s2,0(sp)
    1de8:	01010113          	addi	sp,sp,16
    1dec:	00008067          	ret
    1df0:	00c12083          	lw	ra,12(sp)
    1df4:	00812403          	lw	s0,8(sp)
    1df8:	00412483          	lw	s1,4(sp)
    1dfc:	00012903          	lw	s2,0(sp)
      return 1;
    1e00:	00100513          	li	a0,1
}
    1e04:	01010113          	addi	sp,sp,16
    1e08:	00008067          	ret

00001e0c <pqcrystals_dilithium5_ref_polyveck_uniform_eta>:

/**************************************************************/
/************ Vectors of polynomials of length K **************/
/**************************************************************/

void polyveck_uniform_eta(polyveck *v, const uint8_t seed[CRHBYTES], uint16_t nonce) {
    1e0c:	fe010113          	addi	sp,sp,-32
    1e10:	01212823          	sw	s2,16(sp)
    1e14:	00002937          	lui	s2,0x2
    1e18:	00812c23          	sw	s0,24(sp)
    1e1c:	00912a23          	sw	s1,20(sp)
    1e20:	01312623          	sw	s3,12(sp)
    1e24:	00112e23          	sw	ra,28(sp)
    1e28:	00050493          	mv	s1,a0
    1e2c:	00058993          	mv	s3,a1
    1e30:	00060413          	mv	s0,a2
  unsigned int i;

  for(i = 0; i < K; ++i)
    1e34:	01250933          	add	s2,a0,s2
    poly_uniform_eta(&v->vec[i], seed, nonce++);
    1e38:	00140793          	addi	a5,s0,1
    1e3c:	00040613          	mv	a2,s0
    1e40:	00048513          	mv	a0,s1
    1e44:	01079413          	slli	s0,a5,0x10
  for(i = 0; i < K; ++i)
    1e48:	40048493          	addi	s1,s1,1024
    poly_uniform_eta(&v->vec[i], seed, nonce++);
    1e4c:	00098593          	mv	a1,s3
    1e50:	01045413          	srli	s0,s0,0x10
    1e54:	2b9000ef          	jal	ra,290c <pqcrystals_dilithium5_ref_poly_uniform_eta>
  for(i = 0; i < K; ++i)
    1e58:	ff2490e3          	bne	s1,s2,1e38 <pqcrystals_dilithium5_ref_polyveck_uniform_eta+0x2c>
}
    1e5c:	01c12083          	lw	ra,28(sp)
    1e60:	01812403          	lw	s0,24(sp)
    1e64:	01412483          	lw	s1,20(sp)
    1e68:	01012903          	lw	s2,16(sp)
    1e6c:	00c12983          	lw	s3,12(sp)
    1e70:	02010113          	addi	sp,sp,32
    1e74:	00008067          	ret

00001e78 <pqcrystals_dilithium5_ref_polyveck_reduce>:
* Description: Reduce coefficients of polynomials in vector of length K
*              to representatives in [-6283009,6283007].
*
* Arguments:   - polyveck *v: pointer to input/output vector
**************************************************/
void polyveck_reduce(polyveck *v) {
    1e78:	ff010113          	addi	sp,sp,-16
    1e7c:	00912223          	sw	s1,4(sp)
    1e80:	000024b7          	lui	s1,0x2
    1e84:	00812423          	sw	s0,8(sp)
    1e88:	00112623          	sw	ra,12(sp)
    1e8c:	00050413          	mv	s0,a0
    1e90:	009504b3          	add	s1,a0,s1
  unsigned int i;

  for(i = 0; i < K; ++i)
    poly_reduce(&v->vec[i]);
    1e94:	00040513          	mv	a0,s0
  for(i = 0; i < K; ++i)
    1e98:	40040413          	addi	s0,s0,1024
    poly_reduce(&v->vec[i]);
    1e9c:	4c4000ef          	jal	ra,2360 <pqcrystals_dilithium5_ref_poly_reduce>
  for(i = 0; i < K; ++i)
    1ea0:	fe941ae3          	bne	s0,s1,1e94 <pqcrystals_dilithium5_ref_polyveck_reduce+0x1c>
}
    1ea4:	00c12083          	lw	ra,12(sp)
    1ea8:	00812403          	lw	s0,8(sp)
    1eac:	00412483          	lw	s1,4(sp)
    1eb0:	01010113          	addi	sp,sp,16
    1eb4:	00008067          	ret

00001eb8 <pqcrystals_dilithium5_ref_polyveck_caddq>:
* Description: For all coefficients of polynomials in vector of length K
*              add Q if coefficient is negative.
*
* Arguments:   - polyveck *v: pointer to input/output vector
**************************************************/
void polyveck_caddq(polyveck *v) {
    1eb8:	ff010113          	addi	sp,sp,-16
    1ebc:	00912223          	sw	s1,4(sp)
    1ec0:	000024b7          	lui	s1,0x2
    1ec4:	00812423          	sw	s0,8(sp)
    1ec8:	00112623          	sw	ra,12(sp)
    1ecc:	00050413          	mv	s0,a0
    1ed0:	009504b3          	add	s1,a0,s1
  unsigned int i;

  for(i = 0; i < K; ++i)
    poly_caddq(&v->vec[i]);
    1ed4:	00040513          	mv	a0,s0
  for(i = 0; i < K; ++i)
    1ed8:	40040413          	addi	s0,s0,1024
    poly_caddq(&v->vec[i]);
    1edc:	4c4000ef          	jal	ra,23a0 <pqcrystals_dilithium5_ref_poly_caddq>
  for(i = 0; i < K; ++i)
    1ee0:	fe941ae3          	bne	s0,s1,1ed4 <pqcrystals_dilithium5_ref_polyveck_caddq+0x1c>
}
    1ee4:	00c12083          	lw	ra,12(sp)
    1ee8:	00812403          	lw	s0,8(sp)
    1eec:	00412483          	lw	s1,4(sp)
    1ef0:	01010113          	addi	sp,sp,16
    1ef4:	00008067          	ret

00001ef8 <pqcrystals_dilithium5_ref_polyveck_add>:
*
* Arguments:   - polyveck *w: pointer to output vector
*              - const polyveck *u: pointer to first summand
*              - const polyveck *v: pointer to second summand
**************************************************/
void polyveck_add(polyveck *w, const polyveck *u, const polyveck *v) {
    1ef8:	fe010113          	addi	sp,sp,-32
    1efc:	00812c23          	sw	s0,24(sp)
    1f00:	00912a23          	sw	s1,20(sp)
    1f04:	01212823          	sw	s2,16(sp)
    1f08:	01312623          	sw	s3,12(sp)
    1f0c:	01412423          	sw	s4,8(sp)
    1f10:	00112e23          	sw	ra,28(sp)
    1f14:	00050993          	mv	s3,a0
    1f18:	00058913          	mv	s2,a1
    1f1c:	00060493          	mv	s1,a2
    1f20:	00000413          	li	s0,0
  unsigned int i;

  for(i = 0; i < K; ++i)
    1f24:	00002a37          	lui	s4,0x2
    poly_add(&w->vec[i], &u->vec[i], &v->vec[i]);
    1f28:	00848633          	add	a2,s1,s0
    1f2c:	008905b3          	add	a1,s2,s0
    1f30:	00898533          	add	a0,s3,s0
  for(i = 0; i < K; ++i)
    1f34:	40040413          	addi	s0,s0,1024
    poly_add(&w->vec[i], &u->vec[i], &v->vec[i]);
    1f38:	4a8000ef          	jal	ra,23e0 <pqcrystals_dilithium5_ref_poly_add>
  for(i = 0; i < K; ++i)
    1f3c:	ff4416e3          	bne	s0,s4,1f28 <pqcrystals_dilithium5_ref_polyveck_add+0x30>
}
    1f40:	01c12083          	lw	ra,28(sp)
    1f44:	01812403          	lw	s0,24(sp)
    1f48:	01412483          	lw	s1,20(sp)
    1f4c:	01012903          	lw	s2,16(sp)
    1f50:	00c12983          	lw	s3,12(sp)
    1f54:	00812a03          	lw	s4,8(sp)
    1f58:	02010113          	addi	sp,sp,32
    1f5c:	00008067          	ret

00001f60 <pqcrystals_dilithium5_ref_polyveck_sub>:
* Arguments:   - polyveck *w: pointer to output vector
*              - const polyveck *u: pointer to first input vector
*              - const polyveck *v: pointer to second input vector to be
*                                   subtracted from first input vector
**************************************************/
void polyveck_sub(polyveck *w, const polyveck *u, const polyveck *v) {
    1f60:	fe010113          	addi	sp,sp,-32
    1f64:	00812c23          	sw	s0,24(sp)
    1f68:	00912a23          	sw	s1,20(sp)
    1f6c:	01212823          	sw	s2,16(sp)
    1f70:	01312623          	sw	s3,12(sp)
    1f74:	01412423          	sw	s4,8(sp)
    1f78:	00112e23          	sw	ra,28(sp)
    1f7c:	00050993          	mv	s3,a0
    1f80:	00058913          	mv	s2,a1
    1f84:	00060493          	mv	s1,a2
    1f88:	00000413          	li	s0,0
  unsigned int i;

  for(i = 0; i < K; ++i)
    1f8c:	00002a37          	lui	s4,0x2
    poly_sub(&w->vec[i], &u->vec[i], &v->vec[i]);
    1f90:	00848633          	add	a2,s1,s0
    1f94:	008905b3          	add	a1,s2,s0
    1f98:	00898533          	add	a0,s3,s0
  for(i = 0; i < K; ++i)
    1f9c:	40040413          	addi	s0,s0,1024
    poly_sub(&w->vec[i], &u->vec[i], &v->vec[i]);
    1fa0:	498000ef          	jal	ra,2438 <pqcrystals_dilithium5_ref_poly_sub>
  for(i = 0; i < K; ++i)
    1fa4:	ff4416e3          	bne	s0,s4,1f90 <pqcrystals_dilithium5_ref_polyveck_sub+0x30>
}
    1fa8:	01c12083          	lw	ra,28(sp)
    1fac:	01812403          	lw	s0,24(sp)
    1fb0:	01412483          	lw	s1,20(sp)
    1fb4:	01012903          	lw	s2,16(sp)
    1fb8:	00c12983          	lw	s3,12(sp)
    1fbc:	00812a03          	lw	s4,8(sp)
    1fc0:	02010113          	addi	sp,sp,32
    1fc4:	00008067          	ret

00001fc8 <pqcrystals_dilithium5_ref_polyveck_shiftl>:
* Description: Multiply vector of polynomials of Length K by 2^D without modular
*              reduction. Assumes input coefficients to be less than 2^{31-D}.
*
* Arguments:   - polyveck *v: pointer to input/output vector
**************************************************/
void polyveck_shiftl(polyveck *v) {
    1fc8:	ff010113          	addi	sp,sp,-16
    1fcc:	00912223          	sw	s1,4(sp)
    1fd0:	000024b7          	lui	s1,0x2
    1fd4:	00812423          	sw	s0,8(sp)
    1fd8:	00112623          	sw	ra,12(sp)
    1fdc:	00050413          	mv	s0,a0
    1fe0:	009504b3          	add	s1,a0,s1
  unsigned int i;

  for(i = 0; i < K; ++i)
    poly_shiftl(&v->vec[i]);
    1fe4:	00040513          	mv	a0,s0
  for(i = 0; i < K; ++i)
    1fe8:	40040413          	addi	s0,s0,1024
    poly_shiftl(&v->vec[i]);
    1fec:	4a8000ef          	jal	ra,2494 <pqcrystals_dilithium5_ref_poly_shiftl>
  for(i = 0; i < K; ++i)
    1ff0:	fe941ae3          	bne	s0,s1,1fe4 <pqcrystals_dilithium5_ref_polyveck_shiftl+0x1c>
}
    1ff4:	00c12083          	lw	ra,12(sp)
    1ff8:	00812403          	lw	s0,8(sp)
    1ffc:	00412483          	lw	s1,4(sp)
    2000:	01010113          	addi	sp,sp,16
    2004:	00008067          	ret

00002008 <pqcrystals_dilithium5_ref_polyveck_ntt>:
* Description: Forward NTT of all polynomials in vector of length K. Output
*              coefficients can be up to 16*Q larger than input coefficients.
*
* Arguments:   - polyveck *v: pointer to input/output vector
**************************************************/
void polyveck_ntt(polyveck *v) {
    2008:	ff010113          	addi	sp,sp,-16
    200c:	00912223          	sw	s1,4(sp)
    2010:	000024b7          	lui	s1,0x2
    2014:	00812423          	sw	s0,8(sp)
    2018:	00112623          	sw	ra,12(sp)
    201c:	00050413          	mv	s0,a0
    2020:	009504b3          	add	s1,a0,s1
  unsigned int i;

  for(i = 0; i < K; ++i)
    poly_ntt(&v->vec[i]);
    2024:	00040513          	mv	a0,s0
  for(i = 0; i < K; ++i)
    2028:	40040413          	addi	s0,s0,1024
    poly_ntt(&v->vec[i]);
    202c:	484000ef          	jal	ra,24b0 <pqcrystals_dilithium5_ref_poly_ntt>
  for(i = 0; i < K; ++i)
    2030:	fe941ae3          	bne	s0,s1,2024 <pqcrystals_dilithium5_ref_polyveck_ntt+0x1c>
}
    2034:	00c12083          	lw	ra,12(sp)
    2038:	00812403          	lw	s0,8(sp)
    203c:	00412483          	lw	s1,4(sp)
    2040:	01010113          	addi	sp,sp,16
    2044:	00008067          	ret

00002048 <pqcrystals_dilithium5_ref_polyveck_invntt_tomont>:
*              in vector of length K. Input coefficients need to be less
*              than 2*Q.
*
* Arguments:   - polyveck *v: pointer to input/output vector
**************************************************/
void polyveck_invntt_tomont(polyveck *v) {
    2048:	ff010113          	addi	sp,sp,-16
    204c:	00912223          	sw	s1,4(sp)
    2050:	000024b7          	lui	s1,0x2
    2054:	00812423          	sw	s0,8(sp)
    2058:	00112623          	sw	ra,12(sp)
    205c:	00050413          	mv	s0,a0
    2060:	009504b3          	add	s1,a0,s1
  unsigned int i;

  for(i = 0; i < K; ++i)
    poly_invntt_tomont(&v->vec[i]);
    2064:	00040513          	mv	a0,s0
  for(i = 0; i < K; ++i)
    2068:	40040413          	addi	s0,s0,1024
    poly_invntt_tomont(&v->vec[i]);
    206c:	448000ef          	jal	ra,24b4 <pqcrystals_dilithium5_ref_poly_invntt_tomont>
  for(i = 0; i < K; ++i)
    2070:	fe941ae3          	bne	s0,s1,2064 <pqcrystals_dilithium5_ref_polyveck_invntt_tomont+0x1c>
}
    2074:	00c12083          	lw	ra,12(sp)
    2078:	00812403          	lw	s0,8(sp)
    207c:	00412483          	lw	s1,4(sp)
    2080:	01010113          	addi	sp,sp,16
    2084:	00008067          	ret

00002088 <pqcrystals_dilithium5_ref_polyveck_pointwise_poly_montgomery>:
void polyveck_pointwise_poly_montgomery(polyveck *r, const poly *a, const polyveck *v) {
#ifdef FPAU
  unsigned int i, j;
  int32_t u_coeff, v_coeff;

  for(i = 0; i < K; ++i)
    2088:	00002eb7          	lui	t4,0x2
    208c:	00050313          	mv	t1,a0
void polyveck_pointwise_poly_montgomery(polyveck *r, const poly *a, const polyveck *v) {
    2090:	00058e13          	mv	t3,a1
    2094:	00060893          	mv	a7,a2
    2098:	01d60eb3          	add	t4,a2,t4
    209c:	40058813          	addi	a6,a1,1024
#ifndef STEEL
      asm volatile("nop");  //ORCA
      asm volatile("nop");  //ORCA
      asm volatile ("nop"); //ORCA
#endif
      asm volatile("fpau.dil.mac %0, %1, %2\n": : "r"(u_coeff), "r"(v_coeff),"r"(0): ); // syntax with no outputs to avoid compiler optimization (no loading u_coeff)
    20a0:	00000513          	li	a0,0
    for(j = 0; j < N; ++j)
    20a4:	000e0793          	mv	a5,t3
void polyveck_pointwise_poly_montgomery(polyveck *r, const poly *a, const polyveck *v) {
    20a8:	00030693          	mv	a3,t1
    20ac:	00088713          	mv	a4,a7
      u_coeff = a->coeffs[j];
    20b0:	0007a603          	lw	a2,0(a5)
      v_coeff = v->vec[i].coeffs[j];
    20b4:	00072583          	lw	a1,0(a4)
      asm volatile("nop");  //ORCA
    20b8:	00000013          	nop
      asm volatile("nop");  //ORCA
    20bc:	00000013          	nop
      asm volatile ("nop"); //ORCA
    20c0:	00000013          	nop
      asm volatile("fpau.dil.mac %0, %1, %2\n": : "r"(u_coeff), "r"(v_coeff),"r"(0): ); // syntax with no outputs to avoid compiler optimization (no loading u_coeff)
    20c4:	50a5a633          	fpau.dil.mac	a2,a1,a0

      // store result
      r->vec[i].coeffs[j] = u_coeff;
    20c8:	00c6a023          	sw	a2,0(a3)
    for(j = 0; j < N; ++j)
    20cc:	00478793          	addi	a5,a5,4
    20d0:	00470713          	addi	a4,a4,4
    20d4:	00468693          	addi	a3,a3,4
    20d8:	fd079ce3          	bne	a5,a6,20b0 <pqcrystals_dilithium5_ref_polyveck_pointwise_poly_montgomery+0x28>
  for(i = 0; i < K; ++i)
    20dc:	40088893          	addi	a7,a7,1024
    20e0:	40030313          	addi	t1,t1,1024
    20e4:	fdd890e3          	bne	a7,t4,20a4 <pqcrystals_dilithium5_ref_polyveck_pointwise_poly_montgomery+0x1c>
  unsigned int i;

  for(i = 0; i < K; ++i)
    poly_pointwise_montgomery(&r->vec[i], a, &v->vec[i]);
#endif
}
    20e8:	00008067          	ret

000020ec <pqcrystals_dilithium5_ref_polyveck_chknorm>:
*              - int32_t B: norm bound
*
* Returns 0 if norm of all polynomials are strictly smaller than B <= (Q-1)/8
* and 1 otherwise.
**************************************************/
int polyveck_chknorm(const polyveck *v, int32_t bound) {
    20ec:	ff010113          	addi	sp,sp,-16
    20f0:	01212023          	sw	s2,0(sp)
    20f4:	00002937          	lui	s2,0x2
    20f8:	00812423          	sw	s0,8(sp)
    20fc:	00912223          	sw	s1,4(sp)
    2100:	00112623          	sw	ra,12(sp)
    2104:	00050413          	mv	s0,a0
    2108:	00058493          	mv	s1,a1
    210c:	01250933          	add	s2,a0,s2
  unsigned int i;

  for(i = 0; i < K; ++i)
    if(poly_chknorm(&v->vec[i], bound))
    2110:	00040513          	mv	a0,s0
    2114:	00048593          	mv	a1,s1
    2118:	5f8000ef          	jal	ra,2710 <pqcrystals_dilithium5_ref_poly_chknorm>
  for(i = 0; i < K; ++i)
    211c:	40040413          	addi	s0,s0,1024
    if(poly_chknorm(&v->vec[i], bound))
    2120:	02051063          	bnez	a0,2140 <pqcrystals_dilithium5_ref_polyveck_chknorm+0x54>
  for(i = 0; i < K; ++i)
    2124:	ff2416e3          	bne	s0,s2,2110 <pqcrystals_dilithium5_ref_polyveck_chknorm+0x24>
      return 1;

  return 0;
}
    2128:	00c12083          	lw	ra,12(sp)
    212c:	00812403          	lw	s0,8(sp)
    2130:	00412483          	lw	s1,4(sp)
    2134:	00012903          	lw	s2,0(sp)
    2138:	01010113          	addi	sp,sp,16
    213c:	00008067          	ret
    2140:	00c12083          	lw	ra,12(sp)
    2144:	00812403          	lw	s0,8(sp)
    2148:	00412483          	lw	s1,4(sp)
    214c:	00012903          	lw	s2,0(sp)
      return 1;
    2150:	00100513          	li	a0,1
}
    2154:	01010113          	addi	sp,sp,16
    2158:	00008067          	ret

0000215c <pqcrystals_dilithium5_ref_polyveck_power2round>:
*                              coefficients a1
*              - polyveck *v0: pointer to output vector of polynomials with
*                              coefficients a0
*              - const polyveck *v: pointer to input vector
**************************************************/
void polyveck_power2round(polyveck *v1, polyveck *v0, const polyveck *v) {
    215c:	fe010113          	addi	sp,sp,-32
    2160:	00812c23          	sw	s0,24(sp)
    2164:	00912a23          	sw	s1,20(sp)
    2168:	01212823          	sw	s2,16(sp)
    216c:	01312623          	sw	s3,12(sp)
    2170:	01412423          	sw	s4,8(sp)
    2174:	00112e23          	sw	ra,28(sp)
    2178:	00050993          	mv	s3,a0
    217c:	00058913          	mv	s2,a1
    2180:	00060493          	mv	s1,a2
    2184:	00000413          	li	s0,0
  unsigned int i;

  for(i = 0; i < K; ++i)
    2188:	00002a37          	lui	s4,0x2
    poly_power2round(&v1->vec[i], &v0->vec[i], &v->vec[i]);
    218c:	00848633          	add	a2,s1,s0
    2190:	008905b3          	add	a1,s2,s0
    2194:	00898533          	add	a0,s3,s0
  for(i = 0; i < K; ++i)
    2198:	40040413          	addi	s0,s0,1024
    poly_power2round(&v1->vec[i], &v0->vec[i], &v->vec[i]);
    219c:	398000ef          	jal	ra,2534 <pqcrystals_dilithium5_ref_poly_power2round>
  for(i = 0; i < K; ++i)
    21a0:	ff4416e3          	bne	s0,s4,218c <pqcrystals_dilithium5_ref_polyveck_power2round+0x30>
}
    21a4:	01c12083          	lw	ra,28(sp)
    21a8:	01812403          	lw	s0,24(sp)
    21ac:	01412483          	lw	s1,20(sp)
    21b0:	01012903          	lw	s2,16(sp)
    21b4:	00c12983          	lw	s3,12(sp)
    21b8:	00812a03          	lw	s4,8(sp)
    21bc:	02010113          	addi	sp,sp,32
    21c0:	00008067          	ret

000021c4 <pqcrystals_dilithium5_ref_polyveck_decompose>:
*                              coefficients a1
*              - polyveck *v0: pointer to output vector of polynomials with
*                              coefficients a0
*              - const polyveck *v: pointer to input vector
**************************************************/
void polyveck_decompose(polyveck *v1, polyveck *v0, const polyveck *v) {
    21c4:	fe010113          	addi	sp,sp,-32
    21c8:	00812c23          	sw	s0,24(sp)
    21cc:	00912a23          	sw	s1,20(sp)
    21d0:	01212823          	sw	s2,16(sp)
    21d4:	01312623          	sw	s3,12(sp)
    21d8:	01412423          	sw	s4,8(sp)
    21dc:	00112e23          	sw	ra,28(sp)
    21e0:	00050993          	mv	s3,a0
    21e4:	00058913          	mv	s2,a1
    21e8:	00060493          	mv	s1,a2
    21ec:	00000413          	li	s0,0
  unsigned int i;

  for(i = 0; i < K; ++i)
    21f0:	00002a37          	lui	s4,0x2
    poly_decompose(&v1->vec[i], &v0->vec[i], &v->vec[i]);
    21f4:	00848633          	add	a2,s1,s0
    21f8:	008905b3          	add	a1,s2,s0
    21fc:	00898533          	add	a0,s3,s0
  for(i = 0; i < K; ++i)
    2200:	40040413          	addi	s0,s0,1024
    poly_decompose(&v1->vec[i], &v0->vec[i], &v->vec[i]);
    2204:	3a0000ef          	jal	ra,25a4 <pqcrystals_dilithium5_ref_poly_decompose>
  for(i = 0; i < K; ++i)
    2208:	ff4416e3          	bne	s0,s4,21f4 <pqcrystals_dilithium5_ref_polyveck_decompose+0x30>
}
    220c:	01c12083          	lw	ra,28(sp)
    2210:	01812403          	lw	s0,24(sp)
    2214:	01412483          	lw	s1,20(sp)
    2218:	01012903          	lw	s2,16(sp)
    221c:	00c12983          	lw	s3,12(sp)
    2220:	00812a03          	lw	s4,8(sp)
    2224:	02010113          	addi	sp,sp,32
    2228:	00008067          	ret

0000222c <pqcrystals_dilithium5_ref_polyveck_make_hint>:
* Returns number of 1 bits.
**************************************************/
unsigned int polyveck_make_hint(polyveck *h,
                                const polyveck *v0,
                                const polyveck *v1)
{
    222c:	fe010113          	addi	sp,sp,-32
    2230:	00812c23          	sw	s0,24(sp)
    2234:	00912a23          	sw	s1,20(sp)
    2238:	01212823          	sw	s2,16(sp)
    223c:	01312623          	sw	s3,12(sp)
    2240:	01412423          	sw	s4,8(sp)
    2244:	01512223          	sw	s5,4(sp)
    2248:	00112e23          	sw	ra,28(sp)
    224c:	00050a13          	mv	s4,a0
    2250:	00058993          	mv	s3,a1
    2254:	00060913          	mv	s2,a2
    2258:	00000413          	li	s0,0
  unsigned int i, s = 0;
    225c:	00000493          	li	s1,0

  for(i = 0; i < K; ++i)
    2260:	00002ab7          	lui	s5,0x2
    s += poly_make_hint(&h->vec[i], &v0->vec[i], &v1->vec[i]);
    2264:	00890633          	add	a2,s2,s0
    2268:	008985b3          	add	a1,s3,s0
    226c:	008a0533          	add	a0,s4,s0
    2270:	3a4000ef          	jal	ra,2614 <pqcrystals_dilithium5_ref_poly_make_hint>
  for(i = 0; i < K; ++i)
    2274:	40040413          	addi	s0,s0,1024
    s += poly_make_hint(&h->vec[i], &v0->vec[i], &v1->vec[i]);
    2278:	00a484b3          	add	s1,s1,a0
  for(i = 0; i < K; ++i)
    227c:	ff5414e3          	bne	s0,s5,2264 <pqcrystals_dilithium5_ref_polyveck_make_hint+0x38>

  return s;
}
    2280:	01c12083          	lw	ra,28(sp)
    2284:	01812403          	lw	s0,24(sp)
    2288:	01012903          	lw	s2,16(sp)
    228c:	00c12983          	lw	s3,12(sp)
    2290:	00812a03          	lw	s4,8(sp)
    2294:	00412a83          	lw	s5,4(sp)
    2298:	00048513          	mv	a0,s1
    229c:	01412483          	lw	s1,20(sp)
    22a0:	02010113          	addi	sp,sp,32
    22a4:	00008067          	ret

000022a8 <pqcrystals_dilithium5_ref_polyveck_use_hint>:
* Arguments:   - polyveck *w: pointer to output vector of polynomials with
*                             corrected high bits
*              - const polyveck *u: pointer to input vector
*              - const polyveck *h: pointer to input hint vector
**************************************************/
void polyveck_use_hint(polyveck *w, const polyveck *u, const polyveck *h) {
    22a8:	fe010113          	addi	sp,sp,-32
    22ac:	00812c23          	sw	s0,24(sp)
    22b0:	00912a23          	sw	s1,20(sp)
    22b4:	01212823          	sw	s2,16(sp)
    22b8:	01312623          	sw	s3,12(sp)
    22bc:	01412423          	sw	s4,8(sp)
    22c0:	00112e23          	sw	ra,28(sp)
    22c4:	00050993          	mv	s3,a0
    22c8:	00058913          	mv	s2,a1
    22cc:	00060493          	mv	s1,a2
    22d0:	00000413          	li	s0,0
  unsigned int i;

  for(i = 0; i < K; ++i)
    22d4:	00002a37          	lui	s4,0x2
    poly_use_hint(&w->vec[i], &u->vec[i], &h->vec[i]);
    22d8:	00848633          	add	a2,s1,s0
    22dc:	008905b3          	add	a1,s2,s0
    22e0:	00898533          	add	a0,s3,s0
  for(i = 0; i < K; ++i)
    22e4:	40040413          	addi	s0,s0,1024
    poly_use_hint(&w->vec[i], &u->vec[i], &h->vec[i]);
    22e8:	3b4000ef          	jal	ra,269c <pqcrystals_dilithium5_ref_poly_use_hint>
  for(i = 0; i < K; ++i)
    22ec:	ff4416e3          	bne	s0,s4,22d8 <pqcrystals_dilithium5_ref_polyveck_use_hint+0x30>
}
    22f0:	01c12083          	lw	ra,28(sp)
    22f4:	01812403          	lw	s0,24(sp)
    22f8:	01412483          	lw	s1,20(sp)
    22fc:	01012903          	lw	s2,16(sp)
    2300:	00c12983          	lw	s3,12(sp)
    2304:	00812a03          	lw	s4,8(sp)
    2308:	02010113          	addi	sp,sp,32
    230c:	00008067          	ret

00002310 <pqcrystals_dilithium5_ref_polyveck_pack_w1>:

void polyveck_pack_w1(uint8_t r[K*POLYW1_PACKEDBYTES], const polyveck *w1) {
    2310:	ff010113          	addi	sp,sp,-16
    2314:	00812423          	sw	s0,8(sp)
    2318:	00912223          	sw	s1,4(sp)
    231c:	01212023          	sw	s2,0(sp)
    2320:	00112623          	sw	ra,12(sp)
    2324:	00050413          	mv	s0,a0
    2328:	00058493          	mv	s1,a1
    232c:	40050913          	addi	s2,a0,1024
  unsigned int i;

  for(i = 0; i < K; ++i)
    polyw1_pack(&r[i*POLYW1_PACKEDBYTES], &w1->vec[i]);
    2330:	00048593          	mv	a1,s1
    2334:	00040513          	mv	a0,s0
  for(i = 0; i < K; ++i)
    2338:	08040413          	addi	s0,s0,128
    polyw1_pack(&r[i*POLYW1_PACKEDBYTES], &w1->vec[i]);
    233c:	77d000ef          	jal	ra,32b8 <pqcrystals_dilithium5_ref_polyw1_pack>
  for(i = 0; i < K; ++i)
    2340:	40048493          	addi	s1,s1,1024 # 2400 <pqcrystals_dilithium5_ref_poly_add+0x20>
    2344:	ff2416e3          	bne	s0,s2,2330 <pqcrystals_dilithium5_ref_polyveck_pack_w1+0x20>
}
    2348:	00c12083          	lw	ra,12(sp)
    234c:	00812403          	lw	s0,8(sp)
    2350:	00412483          	lw	s1,4(sp)
    2354:	00012903          	lw	s2,0(sp)
    2358:	01010113          	addi	sp,sp,16
    235c:	00008067          	ret

00002360 <pqcrystals_dilithium5_ref_poly_reduce>:
* Description: Inplace reduction of all coefficients of polynomial to
*              representative in [-6283009,6283007].
*
* Arguments:   - poly *a: pointer to input/output polynomial
**************************************************/
void poly_reduce(poly *a) {
    2360:	ff010113          	addi	sp,sp,-16
    2364:	00812423          	sw	s0,8(sp)
    2368:	00912223          	sw	s1,4(sp)
    236c:	00112623          	sw	ra,12(sp)
    2370:	00050413          	mv	s0,a0
    2374:	40050493          	addi	s1,a0,1024
  unsigned int i;
  DBENCH_START();

  for(i = 0; i < N; ++i)
    a->coeffs[i] = reduce32(a->coeffs[i]);
    2378:	00042503          	lw	a0,0(s0)
  for(i = 0; i < N; ++i)
    237c:	00440413          	addi	s0,s0,4
    a->coeffs[i] = reduce32(a->coeffs[i]);
    2380:	1b0010ef          	jal	ra,3530 <pqcrystals_dilithium5_ref_reduce32>
    2384:	fea42e23          	sw	a0,-4(s0)
  for(i = 0; i < N; ++i)
    2388:	fe9418e3          	bne	s0,s1,2378 <pqcrystals_dilithium5_ref_poly_reduce+0x18>

  DBENCH_STOP(*tred);
}
    238c:	00c12083          	lw	ra,12(sp)
    2390:	00812403          	lw	s0,8(sp)
    2394:	00412483          	lw	s1,4(sp)
    2398:	01010113          	addi	sp,sp,16
    239c:	00008067          	ret

000023a0 <pqcrystals_dilithium5_ref_poly_caddq>:
* Description: For all coefficients of in/out polynomial add Q if
*              coefficient is negative.
*
* Arguments:   - poly *a: pointer to input/output polynomial
**************************************************/
void poly_caddq(poly *a) {
    23a0:	ff010113          	addi	sp,sp,-16
    23a4:	00812423          	sw	s0,8(sp)
    23a8:	00912223          	sw	s1,4(sp)
    23ac:	00112623          	sw	ra,12(sp)
    23b0:	00050413          	mv	s0,a0
    23b4:	40050493          	addi	s1,a0,1024
  unsigned int i;
  DBENCH_START();

  for(i = 0; i < N; ++i)
    a->coeffs[i] = caddq(a->coeffs[i]);
    23b8:	00042503          	lw	a0,0(s0)
  for(i = 0; i < N; ++i)
    23bc:	00440413          	addi	s0,s0,4
    a->coeffs[i] = caddq(a->coeffs[i]);
    23c0:	190010ef          	jal	ra,3550 <pqcrystals_dilithium5_ref_caddq>
    23c4:	fea42e23          	sw	a0,-4(s0)
  for(i = 0; i < N; ++i)
    23c8:	fe9418e3          	bne	s0,s1,23b8 <pqcrystals_dilithium5_ref_poly_caddq+0x18>

  DBENCH_STOP(*tred);
}
    23cc:	00c12083          	lw	ra,12(sp)
    23d0:	00812403          	lw	s0,8(sp)
    23d4:	00412483          	lw	s1,4(sp)
    23d8:	01010113          	addi	sp,sp,16
    23dc:	00008067          	ret

000023e0 <pqcrystals_dilithium5_ref_poly_add>:
*
* Arguments:   - poly *c: pointer to output polynomial
*              - const poly *a: pointer to first summand
*              - const poly *b: pointer to second summand
**************************************************/
void poly_add(poly *c, const poly *a, const poly *b)  {
    23e0:	ff010113          	addi	sp,sp,-16
    23e4:	01612623          	sw	s6,12(sp)
    23e8:	01712423          	sw	s7,8(sp)
    23ec:	00000793          	li	a5,0
#ifndef STEEL
    asm volatile("nop"); // ORCA
    asm volatile("nop"); // ORCA
    asm volatile("nop"); // ORCA
#endif
    asm volatile("fpau.dil.bf %0, %1, %2\n": : "r"(coeff0), "r"(coeff1),"r"(1): );  // use of bf to not overwrite "1" constant (output1 = coeff0 + coeff1*1)
    23f0:	00100893          	li	a7,1
  for(i = 0; i < N; ++i){
    23f4:	40000813          	li	a6,1024
    coeff0 = a->coeffs[i];
    23f8:	00f586b3          	add	a3,a1,a5
    coeff1 = b->coeffs[i];
    23fc:	00f60733          	add	a4,a2,a5
    coeff0 = a->coeffs[i];
    2400:	0006ab03          	lw	s6,0(a3)
    coeff1 = b->coeffs[i];
    2404:	00072b83          	lw	s7,0(a4)
    asm volatile("nop"); // ORCA
    2408:	00000013          	nop
    asm volatile("nop"); // ORCA
    240c:	00000013          	nop
    asm volatile("nop"); // ORCA
    2410:	00000013          	nop
    asm volatile("fpau.dil.bf %0, %1, %2\n": : "r"(coeff0), "r"(coeff1),"r"(1): );  // use of bf to not overwrite "1" constant (output1 = coeff0 + coeff1*1)
    2414:	611bab33          	fpau.dil.bf	s6,s7,a7
    
    c->coeffs[i] = coeff0;
    2418:	00f50733          	add	a4,a0,a5
    241c:	01672023          	sw	s6,0(a4)
  for(i = 0; i < N; ++i){
    2420:	00478793          	addi	a5,a5,4
    2424:	fd079ae3          	bne	a5,a6,23f8 <pqcrystals_dilithium5_ref_poly_add+0x18>
    c->coeffs[i] = a->coeffs[i] + b->coeffs[i];
#endif
  }

  DBENCH_STOP(*tadd);
}
    2428:	00c12b03          	lw	s6,12(sp)
    242c:	00812b83          	lw	s7,8(sp)
    2430:	01010113          	addi	sp,sp,16
    2434:	00008067          	ret

00002438 <pqcrystals_dilithium5_ref_poly_sub>:
* Arguments:   - poly *c: pointer to output polynomial
*              - const poly *a: pointer to first input polynomial
*              - const poly *b: pointer to second input polynomial to be
*                               subtraced from first input polynomial
**************************************************/
void poly_sub(poly *c, const poly *a, const poly *b) {
    2438:	ff010113          	addi	sp,sp,-16
    243c:	01612623          	sw	s6,12(sp)
    2440:	01712423          	sw	s7,8(sp)
    2444:	00000793          	li	a5,0
#ifndef STEEL
    asm volatile("nop"); // ORCA
    asm volatile("nop"); // ORCA
    asm volatile("nop"); // ORCA
#endif
    asm volatile("fpau.dil.bf %0, %1, %2\n": : "r"(coeff0), "r"(coeff1),"r"(1): );  // use of bf to not overwrite "1" constant (output2 = coeff0 - coeff1*1)
    2448:	00100893          	li	a7,1
  for(i = 0; i < N; ++i){
    244c:	40000813          	li	a6,1024
    coeff0 = a->coeffs[i];
    2450:	00f586b3          	add	a3,a1,a5
    coeff1 = b->coeffs[i];
    2454:	00f60733          	add	a4,a2,a5
    coeff0 = a->coeffs[i];
    2458:	0006ab03          	lw	s6,0(a3)
    coeff1 = b->coeffs[i];
    245c:	00072b83          	lw	s7,0(a4)
    asm volatile("nop"); // ORCA
    2460:	00000013          	nop
    asm volatile("nop"); // ORCA
    2464:	00000013          	nop
    asm volatile("nop"); // ORCA
    2468:	00000013          	nop
    asm volatile("fpau.dil.bf %0, %1, %2\n": : "r"(coeff0), "r"(coeff1),"r"(1): );  // use of bf to not overwrite "1" constant (output2 = coeff0 - coeff1*1)
    246c:	611bab33          	fpau.dil.bf	s6,s7,a7

    asm volatile("nop"); // ORCA and STEEL (2nd output written in next cycle)
    2470:	00000013          	nop

    c->coeffs[i] = coeff1;
    2474:	00f50733          	add	a4,a0,a5
    2478:	01772023          	sw	s7,0(a4)
  for(i = 0; i < N; ++i){
    247c:	00478793          	addi	a5,a5,4
    2480:	fd0798e3          	bne	a5,a6,2450 <pqcrystals_dilithium5_ref_poly_sub+0x18>
    c->coeffs[i] = a->coeffs[i] - b->coeffs[i];
#endif
  }

  DBENCH_STOP(*tadd);
}
    2484:	00c12b03          	lw	s6,12(sp)
    2488:	00812b83          	lw	s7,8(sp)
    248c:	01010113          	addi	sp,sp,16
    2490:	00008067          	ret

00002494 <pqcrystals_dilithium5_ref_poly_shiftl>:
**************************************************/
void poly_shiftl(poly *a) {
  unsigned int i;
  DBENCH_START();

  for(i = 0; i < N; ++i)
    2494:	40050713          	addi	a4,a0,1024
    a->coeffs[i] <<= D;
    2498:	00052783          	lw	a5,0(a0)
  for(i = 0; i < N; ++i)
    249c:	00450513          	addi	a0,a0,4
    a->coeffs[i] <<= D;
    24a0:	00d79793          	slli	a5,a5,0xd
    24a4:	fef52e23          	sw	a5,-4(a0)
  for(i = 0; i < N; ++i)
    24a8:	fee518e3          	bne	a0,a4,2498 <pqcrystals_dilithium5_ref_poly_shiftl+0x4>

  DBENCH_STOP(*tmul);
}
    24ac:	00008067          	ret

000024b0 <pqcrystals_dilithium5_ref_poly_ntt>:
  uart_send_string("\n\rNTT:");

  asm("csrrs s2, "TICKS_REGISTER", zero");
  #endif

  ntt(a->coeffs);
    24b0:	6310006f          	j	32e0 <pqcrystals_dilithium5_ref_ntt>

000024b4 <pqcrystals_dilithium5_ref_poly_invntt_tomont>:
  uart_send_string("\n\rInverse NTT:");

  asm("csrrs s2, "TICKS_REGISTER", zero");
  #endif

  invntt_tomont(a->coeffs);
    24b4:	6fd0006f          	j	33b0 <pqcrystals_dilithium5_ref_invntt_tomont>

000024b8 <pqcrystals_dilithium5_ref_poly_pointwise_montgomery>:
*
* Arguments:   - poly *c: pointer to output polynomial
*              - const poly *a: pointer to first input polynomial
*              - const poly *b: pointer to second input polynomial
**************************************************/
void poly_pointwise_montgomery(poly *c, const poly *a, const poly *b) {
    24b8:	fe010113          	addi	sp,sp,-32
    24bc:	00812c23          	sw	s0,24(sp)
    24c0:	00912a23          	sw	s1,20(sp)
    24c4:	01212823          	sw	s2,16(sp)
    24c8:	01312623          	sw	s3,12(sp)
    24cc:	01412423          	sw	s4,8(sp)
    24d0:	00112e23          	sw	ra,28(sp)
    24d4:	00050993          	mv	s3,a0
    24d8:	00058913          	mv	s2,a1
    24dc:	00060493          	mv	s1,a2
    24e0:	00000413          	li	s0,0
  unsigned int i;
  DBENCH_START();

  for(i = 0; i < N; ++i)
    24e4:	40000a13          	li	s4,1024
    c->coeffs[i] = montgomery_reduce((int64_t)a->coeffs[i] * b->coeffs[i]);
    24e8:	00890733          	add	a4,s2,s0
    24ec:	008487b3          	add	a5,s1,s0
    24f0:	0007a783          	lw	a5,0(a5)
    24f4:	00072503          	lw	a0,0(a4)
    24f8:	02f515b3          	mulh	a1,a0,a5
    24fc:	02f50533          	mul	a0,a0,a5
    2500:	7cd000ef          	jal	ra,34cc <pqcrystals_dilithium5_ref_montgomery_reduce>
    2504:	008987b3          	add	a5,s3,s0
    2508:	00a7a023          	sw	a0,0(a5)
  for(i = 0; i < N; ++i)
    250c:	00440413          	addi	s0,s0,4
    2510:	fd441ce3          	bne	s0,s4,24e8 <pqcrystals_dilithium5_ref_poly_pointwise_montgomery+0x30>

  DBENCH_STOP(*tmul);
}
    2514:	01c12083          	lw	ra,28(sp)
    2518:	01812403          	lw	s0,24(sp)
    251c:	01412483          	lw	s1,20(sp)
    2520:	01012903          	lw	s2,16(sp)
    2524:	00c12983          	lw	s3,12(sp)
    2528:	00812a03          	lw	s4,8(sp)
    252c:	02010113          	addi	sp,sp,32
    2530:	00008067          	ret

00002534 <pqcrystals_dilithium5_ref_poly_power2round>:
*
* Arguments:   - poly *a1: pointer to output polynomial with coefficients c1
*              - poly *a0: pointer to output polynomial with coefficients c0
*              - const poly *a: pointer to input polynomial
**************************************************/
void poly_power2round(poly *a1, poly *a0, const poly *a) {
    2534:	fe010113          	addi	sp,sp,-32
    2538:	00812c23          	sw	s0,24(sp)
    253c:	00912a23          	sw	s1,20(sp)
    2540:	01212823          	sw	s2,16(sp)
    2544:	01312623          	sw	s3,12(sp)
    2548:	01412423          	sw	s4,8(sp)
    254c:	00112e23          	sw	ra,28(sp)
    2550:	00050993          	mv	s3,a0
    2554:	00058913          	mv	s2,a1
    2558:	00060493          	mv	s1,a2
    255c:	00000413          	li	s0,0
  unsigned int i;
  DBENCH_START();

  for(i = 0; i < N; ++i)
    2560:	40000a13          	li	s4,1024
    a1->coeffs[i] = power2round(&a0->coeffs[i], a->coeffs[i]);
    2564:	008487b3          	add	a5,s1,s0
    2568:	0007a583          	lw	a1,0(a5)
    256c:	00890533          	add	a0,s2,s0
    2570:	02c010ef          	jal	ra,359c <pqcrystals_dilithium5_ref_power2round>
    2574:	008987b3          	add	a5,s3,s0
    2578:	00a7a023          	sw	a0,0(a5)
  for(i = 0; i < N; ++i)
    257c:	00440413          	addi	s0,s0,4
    2580:	ff4412e3          	bne	s0,s4,2564 <pqcrystals_dilithium5_ref_poly_power2round+0x30>

  DBENCH_STOP(*tround);
}
    2584:	01c12083          	lw	ra,28(sp)
    2588:	01812403          	lw	s0,24(sp)
    258c:	01412483          	lw	s1,20(sp)
    2590:	01012903          	lw	s2,16(sp)
    2594:	00c12983          	lw	s3,12(sp)
    2598:	00812a03          	lw	s4,8(sp)
    259c:	02010113          	addi	sp,sp,32
    25a0:	00008067          	ret

000025a4 <pqcrystals_dilithium5_ref_poly_decompose>:
*
* Arguments:   - poly *a1: pointer to output polynomial with coefficients c1
*              - poly *a0: pointer to output polynomial with coefficients c0
*              - const poly *a: pointer to input polynomial
**************************************************/
void poly_decompose(poly *a1, poly *a0, const poly *a) {
    25a4:	fe010113          	addi	sp,sp,-32
    25a8:	00812c23          	sw	s0,24(sp)
    25ac:	00912a23          	sw	s1,20(sp)
    25b0:	01212823          	sw	s2,16(sp)
    25b4:	01312623          	sw	s3,12(sp)
    25b8:	01412423          	sw	s4,8(sp)
    25bc:	00112e23          	sw	ra,28(sp)
    25c0:	00050993          	mv	s3,a0
    25c4:	00058913          	mv	s2,a1
    25c8:	00060493          	mv	s1,a2
    25cc:	00000413          	li	s0,0
  unsigned int i;
  DBENCH_START();

  for(i = 0; i < N; ++i)
    25d0:	40000a13          	li	s4,1024
    a1->coeffs[i] = decompose(&a0->coeffs[i], a->coeffs[i]);
    25d4:	008487b3          	add	a5,s1,s0
    25d8:	0007a583          	lw	a1,0(a5)
    25dc:	00890533          	add	a0,s2,s0
    25e0:	7e1000ef          	jal	ra,35c0 <pqcrystals_dilithium5_ref_decompose>
    25e4:	008987b3          	add	a5,s3,s0
    25e8:	00a7a023          	sw	a0,0(a5)
  for(i = 0; i < N; ++i)
    25ec:	00440413          	addi	s0,s0,4
    25f0:	ff4412e3          	bne	s0,s4,25d4 <pqcrystals_dilithium5_ref_poly_decompose+0x30>

  DBENCH_STOP(*tround);
}
    25f4:	01c12083          	lw	ra,28(sp)
    25f8:	01812403          	lw	s0,24(sp)
    25fc:	01412483          	lw	s1,20(sp)
    2600:	01012903          	lw	s2,16(sp)
    2604:	00c12983          	lw	s3,12(sp)
    2608:	00812a03          	lw	s4,8(sp)
    260c:	02010113          	addi	sp,sp,32
    2610:	00008067          	ret

00002614 <pqcrystals_dilithium5_ref_poly_make_hint>:
*              - const poly *a0: pointer to low part of input polynomial
*              - const poly *a1: pointer to high part of input polynomial
*
* Returns number of 1 bits.
**************************************************/
unsigned int poly_make_hint(poly *h, const poly *a0, const poly *a1) {
    2614:	fe010113          	addi	sp,sp,-32
    2618:	00812c23          	sw	s0,24(sp)
    261c:	00912a23          	sw	s1,20(sp)
    2620:	01212823          	sw	s2,16(sp)
    2624:	01312623          	sw	s3,12(sp)
    2628:	01412423          	sw	s4,8(sp)
    262c:	01512223          	sw	s5,4(sp)
    2630:	00112e23          	sw	ra,28(sp)
    2634:	00050a13          	mv	s4,a0
    2638:	00058993          	mv	s3,a1
    263c:	00060913          	mv	s2,a2
    2640:	00000413          	li	s0,0
  unsigned int i, s = 0;
    2644:	00000493          	li	s1,0
  DBENCH_START();

  for(i = 0; i < N; ++i) {
    2648:	40000a93          	li	s5,1024
    h->coeffs[i] = make_hint(a0->coeffs[i], a1->coeffs[i]);
    264c:	008987b3          	add	a5,s3,s0
    2650:	00890733          	add	a4,s2,s0
    2654:	0007a503          	lw	a0,0(a5)
    2658:	00072583          	lw	a1,0(a4)
    265c:	7bd000ef          	jal	ra,3618 <pqcrystals_dilithium5_ref_make_hint>
    2660:	008a07b3          	add	a5,s4,s0
    2664:	00a7a023          	sw	a0,0(a5)
  for(i = 0; i < N; ++i) {
    2668:	00440413          	addi	s0,s0,4
    s += h->coeffs[i];
    266c:	00a484b3          	add	s1,s1,a0
  for(i = 0; i < N; ++i) {
    2670:	fd541ee3          	bne	s0,s5,264c <pqcrystals_dilithium5_ref_poly_make_hint+0x38>
  }

  DBENCH_STOP(*tround);
  return s;
}
    2674:	01c12083          	lw	ra,28(sp)
    2678:	01812403          	lw	s0,24(sp)
    267c:	01012903          	lw	s2,16(sp)
    2680:	00c12983          	lw	s3,12(sp)
    2684:	00812a03          	lw	s4,8(sp)
    2688:	00412a83          	lw	s5,4(sp)
    268c:	00048513          	mv	a0,s1
    2690:	01412483          	lw	s1,20(sp)
    2694:	02010113          	addi	sp,sp,32
    2698:	00008067          	ret

0000269c <pqcrystals_dilithium5_ref_poly_use_hint>:
*
* Arguments:   - poly *b: pointer to output polynomial with corrected high bits
*              - const poly *a: pointer to input polynomial
*              - const poly *h: pointer to input hint polynomial
**************************************************/
void poly_use_hint(poly *b, const poly *a, const poly *h) {
    269c:	fe010113          	addi	sp,sp,-32
    26a0:	00812c23          	sw	s0,24(sp)
    26a4:	00912a23          	sw	s1,20(sp)
    26a8:	01212823          	sw	s2,16(sp)
    26ac:	01312623          	sw	s3,12(sp)
    26b0:	01412423          	sw	s4,8(sp)
    26b4:	00112e23          	sw	ra,28(sp)
    26b8:	00050993          	mv	s3,a0
    26bc:	00058913          	mv	s2,a1
    26c0:	00060493          	mv	s1,a2
    26c4:	00000413          	li	s0,0
  unsigned int i;
  DBENCH_START();

  for(i = 0; i < N; ++i)
    26c8:	40000a13          	li	s4,1024
    b->coeffs[i] = use_hint(a->coeffs[i], h->coeffs[i]);
    26cc:	008907b3          	add	a5,s2,s0
    26d0:	00848733          	add	a4,s1,s0
    26d4:	0007a503          	lw	a0,0(a5)
    26d8:	00072583          	lw	a1,0(a4)
    26dc:	77d000ef          	jal	ra,3658 <pqcrystals_dilithium5_ref_use_hint>
    26e0:	008987b3          	add	a5,s3,s0
    26e4:	00a7a023          	sw	a0,0(a5)
  for(i = 0; i < N; ++i)
    26e8:	00440413          	addi	s0,s0,4
    26ec:	ff4410e3          	bne	s0,s4,26cc <pqcrystals_dilithium5_ref_poly_use_hint+0x30>

  DBENCH_STOP(*tround);
}
    26f0:	01c12083          	lw	ra,28(sp)
    26f4:	01812403          	lw	s0,24(sp)
    26f8:	01412483          	lw	s1,20(sp)
    26fc:	01012903          	lw	s2,16(sp)
    2700:	00c12983          	lw	s3,12(sp)
    2704:	00812a03          	lw	s4,8(sp)
    2708:	02010113          	addi	sp,sp,32
    270c:	00008067          	ret

00002710 <pqcrystals_dilithium5_ref_poly_chknorm>:
int poly_chknorm(const poly *a, int32_t B) {
  unsigned int i;
  int32_t t;
  DBENCH_START();

  if(B > (Q-1)/8)
    2710:	001007b7          	lui	a5,0x100
    2714:	c0078793          	addi	a5,a5,-1024 # ffc00 <_end_of_memory+0xcfc00>
    2718:	02b7c663          	blt	a5,a1,2744 <pqcrystals_dilithium5_ref_poly_chknorm+0x34>
    271c:	40050613          	addi	a2,a0,1024
    2720:	0080006f          	j	2728 <pqcrystals_dilithium5_ref_poly_chknorm+0x18>
    return 1;

  /* It is ok to leak which coefficient violates the bound since
     the probability for each coefficient is independent of secret
     data but we must not leak the sign of the centralized representative. */
  for(i = 0; i < N; ++i) {
    2724:	02a60463          	beq	a2,a0,274c <pqcrystals_dilithium5_ref_poly_chknorm+0x3c>
    /* Absolute value */
    t = a->coeffs[i] >> 31;
    2728:	00052783          	lw	a5,0(a0)
  for(i = 0; i < N; ++i) {
    272c:	00450513          	addi	a0,a0,4
    t = a->coeffs[i] - (t & 2*a->coeffs[i]);
    2730:	00179713          	slli	a4,a5,0x1
    t = a->coeffs[i] >> 31;
    2734:	41f7d693          	srai	a3,a5,0x1f
    t = a->coeffs[i] - (t & 2*a->coeffs[i]);
    2738:	00d77733          	and	a4,a4,a3
    273c:	40e787b3          	sub	a5,a5,a4

    if(t >= B) {
    2740:	feb7c2e3          	blt	a5,a1,2724 <pqcrystals_dilithium5_ref_poly_chknorm+0x14>
    return 1;
    2744:	00100513          	li	a0,1
    }
  }

  DBENCH_STOP(*tsample);
  return 0;
}
    2748:	00008067          	ret
  return 0;
    274c:	00000513          	li	a0,0
    2750:	00008067          	ret

00002754 <pqcrystals_dilithium5_ref_poly_uniform>:
**************************************************/
#define POLY_UNIFORM_NBLOCKS ((768 + STREAM128_BLOCKBYTES - 1)/STREAM128_BLOCKBYTES)
void poly_uniform(poly *a,
                  const uint8_t seed[SEEDBYTES],
                  uint16_t nonce)
{
    2754:	bb010113          	addi	sp,sp,-1104
    2758:	43512a23          	sw	s5,1076(sp)
    275c:	00050a93          	mv	s5,a0
  unsigned int i, ctr, off;
  unsigned int buflen = POLY_UNIFORM_NBLOCKS*STREAM128_BLOCKBYTES;
  uint8_t buf[POLY_UNIFORM_NBLOCKS*STREAM128_BLOCKBYTES + 2];
  stream128_state state;

  stream128_init(&state, seed, nonce);
    2760:	00010513          	mv	a0,sp
{
    2764:	44112623          	sw	ra,1100(sp)
    2768:	44812423          	sw	s0,1096(sp)
    276c:	43412c23          	sw	s4,1080(sp)
  stream128_squeezeblocks(buf, POLY_UNIFORM_NBLOCKS, &state);
    2770:	0d410413          	addi	s0,sp,212
{
    2774:	44912223          	sw	s1,1092(sp)
    2778:	45212023          	sw	s2,1088(sp)
    277c:	43312e23          	sw	s3,1084(sp)
    2780:	43612823          	sw	s6,1072(sp)
    2784:	43712623          	sw	s7,1068(sp)
    2788:	43812423          	sw	s8,1064(sp)
    278c:	43912223          	sw	s9,1060(sp)
  stream128_init(&state, seed, nonce);
    2790:	259040ef          	jal	ra,71e8 <pqcrystals_dilithium5_ref_dilithium_shake128_stream_init>
  stream128_squeezeblocks(buf, POLY_UNIFORM_NBLOCKS, &state);
    2794:	00500593          	li	a1,5
    2798:	00040513          	mv	a0,s0
    279c:	00010613          	mv	a2,sp
    27a0:	521030ef          	jal	ra,64c0 <pqcrystals_dilithium_fips202_ref_shake128_squeezeblocks>
    t &= 0x7FFFFF;
    27a4:	008005b7          	lui	a1,0x800
    27a8:	41c10813          	addi	a6,sp,1052

  ctr = rej_uniform(a->coeffs, N, buf, buflen);
    27ac:	00040713          	mv	a4,s0
  ctr = pos = 0;
    27b0:	00000a13          	li	s4,0
    t &= 0x7FFFFF;
    27b4:	fff58593          	addi	a1,a1,-1 # 7fffff <_end_of_memory+0x7cffff>
    if(t < Q)
    27b8:	007fe537          	lui	a0,0x7fe
  while(ctr < len && pos + 3 <= buflen) {
    27bc:	10000893          	li	a7,256
    t |= (uint32_t)buf[pos++] << 8;
    27c0:	00174783          	lbu	a5,1(a4)
    t |= (uint32_t)buf[pos++] << 16;
    27c4:	00274683          	lbu	a3,2(a4)
    t  = buf[pos++];
    27c8:	00074603          	lbu	a2,0(a4)
    t |= (uint32_t)buf[pos++] << 8;
    27cc:	00879793          	slli	a5,a5,0x8
    t |= (uint32_t)buf[pos++] << 16;
    27d0:	01069693          	slli	a3,a3,0x10
    27d4:	00d7e7b3          	or	a5,a5,a3
    27d8:	00c7e7b3          	or	a5,a5,a2
      a[ctr++] = t;
    27dc:	002a1693          	slli	a3,s4,0x2
    t &= 0x7FFFFF;
    27e0:	00b7f7b3          	and	a5,a5,a1
      a[ctr++] = t;
    27e4:	00da86b3          	add	a3,s5,a3
  while(ctr < len && pos + 3 <= buflen) {
    27e8:	00370713          	addi	a4,a4,3
      a[ctr++] = t;
    27ec:	001a0613          	addi	a2,s4,1 # 2001 <pqcrystals_dilithium5_ref_polyveck_shiftl+0x39>
    if(t < Q)
    27f0:	00f56863          	bltu	a0,a5,2800 <pqcrystals_dilithium5_ref_poly_uniform+0xac>
      a[ctr++] = t;
    27f4:	00f6a023          	sw	a5,0(a3)
  while(ctr < len && pos + 3 <= buflen) {
    27f8:	0d160463          	beq	a2,a7,28c0 <pqcrystals_dilithium5_ref_poly_uniform+0x16c>
      a[ctr++] = t;
    27fc:	00060a13          	mv	s4,a2
  while(ctr < len && pos + 3 <= buflen) {
    2800:	fce810e3          	bne	a6,a4,27c0 <pqcrystals_dilithium5_ref_poly_uniform+0x6c>

  while(ctr < N) {
    off = buflen % 3;
    2804:	00300493          	li	s1,3
    t &= 0x7FFFFF;
    2808:	00800bb7          	lui	s7,0x800
    280c:	34800513          	li	a0,840
    for(i = 0; i < off; ++i)
      buf[i] = buf[buflen - off + i];

    stream128_squeezeblocks(buf + off, 1, &state);
    buflen = STREAM128_BLOCKBYTES + off;
    ctr += rej_uniform(a->coeffs + ctr, N - ctr, buf, buflen);
    2810:	10000913          	li	s2,256
    for(i = 0; i < off; ++i)
    2814:	00200993          	li	s3,2
    t &= 0x7FFFFF;
    2818:	fffb8b93          	addi	s7,s7,-1 # 7fffff <_end_of_memory+0x7cffff>
  while(ctr < len && pos + 3 <= buflen) {
    281c:	40848c33          	sub	s8,s1,s0
    off = buflen % 3;
    2820:	02957cb3          	remu	s9,a0,s1
    ctr += rej_uniform(a->coeffs + ctr, N - ctr, buf, buflen);
    2824:	41490b33          	sub	s6,s2,s4
    for(i = 0; i < off; ++i)
    2828:	0c0c8663          	beqz	s9,28f4 <pqcrystals_dilithium5_ref_poly_uniform+0x1a0>
      buf[i] = buf[buflen - off + i];
    282c:	41950533          	sub	a0,a0,s9
    2830:	42050793          	addi	a5,a0,1056 # 7fe420 <_end_of_memory+0x7ce420>
    2834:	00278533          	add	a0,a5,sp
    2838:	cb454783          	lbu	a5,-844(a0)
    283c:	0cf10a23          	sb	a5,212(sp)
    for(i = 0; i < off; ++i)
    2840:	013c9663          	bne	s9,s3,284c <pqcrystals_dilithium5_ref_poly_uniform+0xf8>
      buf[i] = buf[buflen - off + i];
    2844:	cb554783          	lbu	a5,-843(a0)
    2848:	0cf10aa3          	sb	a5,213(sp)
    stream128_squeezeblocks(buf + off, 1, &state);
    284c:	01940533          	add	a0,s0,s9
    2850:	00010613          	mv	a2,sp
    2854:	00100593          	li	a1,1
    2858:	469030ef          	jal	ra,64c0 <pqcrystals_dilithium_fips202_ref_shake128_squeezeblocks>
    buflen = STREAM128_BLOCKBYTES + off;
    285c:	0a8c8513          	addi	a0,s9,168
    2860:	00040693          	mv	a3,s0
  ctr = pos = 0;
    2864:	00000613          	li	a2,0
    if(t < Q)
    2868:	007fe837          	lui	a6,0x7fe
    t |= (uint32_t)buf[pos++] << 8;
    286c:	0016c783          	lbu	a5,1(a3)
    t |= (uint32_t)buf[pos++] << 16;
    2870:	0026c703          	lbu	a4,2(a3)
    t  = buf[pos++];
    2874:	0006c583          	lbu	a1,0(a3)
    t |= (uint32_t)buf[pos++] << 8;
    2878:	00879793          	slli	a5,a5,0x8
    t |= (uint32_t)buf[pos++] << 16;
    287c:	01071713          	slli	a4,a4,0x10
    2880:	00e7e7b3          	or	a5,a5,a4
    2884:	00b7e7b3          	or	a5,a5,a1
      a[ctr++] = t;
    2888:	00ca0733          	add	a4,s4,a2
  while(ctr < len && pos + 3 <= buflen) {
    288c:	00368693          	addi	a3,a3,3
      a[ctr++] = t;
    2890:	00271713          	slli	a4,a4,0x2
    t &= 0x7FFFFF;
    2894:	0177f7b3          	and	a5,a5,s7
  while(ctr < len && pos + 3 <= buflen) {
    2898:	00dc05b3          	add	a1,s8,a3
      a[ctr++] = t;
    289c:	00ea8733          	add	a4,s5,a4
    if(t < Q)
    28a0:	00f86663          	bltu	a6,a5,28ac <pqcrystals_dilithium5_ref_poly_uniform+0x158>
      a[ctr++] = t;
    28a4:	00f72023          	sw	a5,0(a4)
    28a8:	00160613          	addi	a2,a2,1
  while(ctr < len && pos + 3 <= buflen) {
    28ac:	01667463          	bgeu	a2,s6,28b4 <pqcrystals_dilithium5_ref_poly_uniform+0x160>
    28b0:	fab57ee3          	bgeu	a0,a1,286c <pqcrystals_dilithium5_ref_poly_uniform+0x118>
    ctr += rej_uniform(a->coeffs + ctr, N - ctr, buf, buflen);
    28b4:	00ca0a33          	add	s4,s4,a2
  while(ctr < N) {
    28b8:	0ff00793          	li	a5,255
    28bc:	f747f2e3          	bgeu	a5,s4,2820 <pqcrystals_dilithium5_ref_poly_uniform+0xcc>
  }
}
    28c0:	44c12083          	lw	ra,1100(sp)
    28c4:	44812403          	lw	s0,1096(sp)
    28c8:	44412483          	lw	s1,1092(sp)
    28cc:	44012903          	lw	s2,1088(sp)
    28d0:	43c12983          	lw	s3,1084(sp)
    28d4:	43812a03          	lw	s4,1080(sp)
    28d8:	43412a83          	lw	s5,1076(sp)
    28dc:	43012b03          	lw	s6,1072(sp)
    28e0:	42c12b83          	lw	s7,1068(sp)
    28e4:	42812c03          	lw	s8,1064(sp)
    28e8:	42412c83          	lw	s9,1060(sp)
    28ec:	45010113          	addi	sp,sp,1104
    28f0:	00008067          	ret
    stream128_squeezeblocks(buf + off, 1, &state);
    28f4:	00040513          	mv	a0,s0
    28f8:	00010613          	mv	a2,sp
    28fc:	00100593          	li	a1,1
    2900:	3c1030ef          	jal	ra,64c0 <pqcrystals_dilithium_fips202_ref_shake128_squeezeblocks>
    buflen = STREAM128_BLOCKBYTES + off;
    2904:	0a800513          	li	a0,168
    2908:	f59ff06f          	j	2860 <pqcrystals_dilithium5_ref_poly_uniform+0x10c>

0000290c <pqcrystals_dilithium5_ref_poly_uniform_eta>:
#define POLY_UNIFORM_ETA_NBLOCKS ((227 + STREAM256_BLOCKBYTES - 1)/STREAM256_BLOCKBYTES)
#endif
void poly_uniform_eta(poly *a,
                      const uint8_t seed[CRHBYTES],
                      uint16_t nonce)
{
    290c:	e8010113          	addi	sp,sp,-384
    2910:	17312623          	sw	s3,364(sp)
  unsigned int ctr;
  unsigned int buflen = POLY_UNIFORM_ETA_NBLOCKS*STREAM256_BLOCKBYTES;
  uint8_t buf[POLY_UNIFORM_ETA_NBLOCKS*STREAM256_BLOCKBYTES];
  stream256_state state;

  stream256_init(&state, seed, nonce);
    2914:	09010993          	addi	s3,sp,144
{
    2918:	17612023          	sw	s6,352(sp)
    291c:	00050b13          	mv	s6,a0
  stream256_init(&state, seed, nonce);
    2920:	00098513          	mv	a0,s3
{
    2924:	16112e23          	sw	ra,380(sp)
    2928:	17412423          	sw	s4,360(sp)
    292c:	16812c23          	sw	s0,376(sp)
    2930:	16912a23          	sw	s1,372(sp)
    2934:	17212823          	sw	s2,368(sp)
    2938:	17512223          	sw	s5,356(sp)
  stream256_init(&state, seed, nonce);
    293c:	109040ef          	jal	ra,7244 <pqcrystals_dilithium5_ref_dilithium_shake256_stream_init>
  stream256_squeezeblocks(buf, POLY_UNIFORM_ETA_NBLOCKS, &state);
    2940:	00810513          	addi	a0,sp,8
    2944:	00098613          	mv	a2,s3
    2948:	00100593          	li	a1,1
    294c:	669030ef          	jal	ra,67b4 <pqcrystals_dilithium_fips202_ref_shake256_squeezeblocks>
  ctr = pos = 0;
    2950:	00000a13          	li	s4,0

  ctr = rej_eta(a->coeffs, N, buf, buflen);
    2954:	00810693          	addi	a3,sp,8
    if(t0 < 15) {
    2958:	00f00513          	li	a0,15
  while(ctr < len && pos < buflen) {
    295c:	10000313          	li	t1,256
      t1 = t1 - (205*t1 >> 10)*5;
    2960:	0cd00e13          	li	t3,205
      a[ctr++] = 2 - t1;
    2964:	00200893          	li	a7,2
    t0 = buf[pos] & 0x0F;
    2968:	0006c703          	lbu	a4,0(a3)
      a[ctr++] = 2 - t0;
    296c:	002a1793          	slli	a5,s4,0x2
    2970:	00fb05b3          	add	a1,s6,a5
    2974:	00f77793          	andi	a5,a4,15
    2978:	40f88833          	sub	a6,a7,a5
    t1 = buf[pos++] >> 4;
    297c:	00475713          	srli	a4,a4,0x4
    if(t0 < 15) {
    2980:	04a78863          	beq	a5,a0,29d0 <pqcrystals_dilithium5_ref_poly_uniform_eta+0xc4>
      t0 = t0 - (205*t0 >> 10)*5;
    2984:	03c787b3          	mul	a5,a5,t3
      a[ctr++] = 2 - t0;
    2988:	001a0a13          	addi	s4,s4,1
      t0 = t0 - (205*t0 >> 10)*5;
    298c:	00a7d793          	srli	a5,a5,0xa
    2990:	00279613          	slli	a2,a5,0x2
    2994:	00f607b3          	add	a5,a2,a5
      a[ctr++] = 2 - t0;
    2998:	010787b3          	add	a5,a5,a6
    299c:	00f5a023          	sw	a5,0(a1)
    if(t1 < 15 && ctr < len) {
    29a0:	04a70e63          	beq	a4,a0,29fc <pqcrystals_dilithium5_ref_poly_uniform_eta+0xf0>
    29a4:	026a1863          	bne	s4,t1,29d4 <pqcrystals_dilithium5_ref_poly_uniform_eta+0xc8>

  while(ctr < N) {
    stream256_squeezeblocks(buf, 1, &state);
    ctr += rej_eta(a->coeffs + ctr, N - ctr, buf, STREAM256_BLOCKBYTES);
  }
}
    29a8:	17c12083          	lw	ra,380(sp)
    29ac:	17812403          	lw	s0,376(sp)
    29b0:	17412483          	lw	s1,372(sp)
    29b4:	17012903          	lw	s2,368(sp)
    29b8:	16c12983          	lw	s3,364(sp)
    29bc:	16812a03          	lw	s4,360(sp)
    29c0:	16412a83          	lw	s5,356(sp)
    29c4:	16012b03          	lw	s6,352(sp)
    29c8:	18010113          	addi	sp,sp,384
    29cc:	00008067          	ret
    if(t1 < 15 && ctr < len) {
    29d0:	02a70863          	beq	a4,a0,2a00 <pqcrystals_dilithium5_ref_poly_uniform_eta+0xf4>
      t1 = t1 - (205*t1 >> 10)*5;
    29d4:	03c70633          	mul	a2,a4,t3
      a[ctr++] = 2 - t1;
    29d8:	002a1593          	slli	a1,s4,0x2
    29dc:	40e88733          	sub	a4,a7,a4
    29e0:	00bb05b3          	add	a1,s6,a1
    29e4:	001a0a13          	addi	s4,s4,1
      t1 = t1 - (205*t1 >> 10)*5;
    29e8:	00a65613          	srli	a2,a2,0xa
    29ec:	00261793          	slli	a5,a2,0x2
    29f0:	00c787b3          	add	a5,a5,a2
      a[ctr++] = 2 - t1;
    29f4:	00e787b3          	add	a5,a5,a4
    29f8:	00f5a023          	sw	a5,0(a1)
  while(ctr < len && pos < buflen) {
    29fc:	fa6a06e3          	beq	s4,t1,29a8 <pqcrystals_dilithium5_ref_poly_uniform_eta+0x9c>
    2a00:	00168693          	addi	a3,a3,1
    2a04:	f6d992e3          	bne	s3,a3,2968 <pqcrystals_dilithium5_ref_poly_uniform_eta+0x5c>
    ctr += rej_eta(a->coeffs + ctr, N - ctr, buf, STREAM256_BLOCKBYTES);
    2a08:	10000413          	li	s0,256
    if(t0 < 15) {
    2a0c:	00f00493          	li	s1,15
      t0 = t0 - (205*t0 >> 10)*5;
    2a10:	0cd00a93          	li	s5,205
      a[ctr++] = 2 - t0;
    2a14:	00200913          	li	s2,2
    stream256_squeezeblocks(buf, 1, &state);
    2a18:	00098613          	mv	a2,s3
    2a1c:	00100593          	li	a1,1
    2a20:	00810513          	addi	a0,sp,8
    2a24:	591030ef          	jal	ra,67b4 <pqcrystals_dilithium_fips202_ref_shake256_squeezeblocks>
    ctr += rej_eta(a->coeffs + ctr, N - ctr, buf, STREAM256_BLOCKBYTES);
    2a28:	002a1513          	slli	a0,s4,0x2
    2a2c:	00ab0533          	add	a0,s6,a0
    2a30:	414408b3          	sub	a7,s0,s4
    2a34:	00810593          	addi	a1,sp,8
  ctr = pos = 0;
    2a38:	00000613          	li	a2,0
    t0 = buf[pos] & 0x0F;
    2a3c:	0005c783          	lbu	a5,0(a1)
      a[ctr++] = 2 - t0;
    2a40:	00261693          	slli	a3,a2,0x2
  while(ctr < len && pos < buflen) {
    2a44:	00158593          	addi	a1,a1,1
    2a48:	00f7f713          	andi	a4,a5,15
      a[ctr++] = 2 - t0;
    2a4c:	40e90333          	sub	t1,s2,a4
    2a50:	00d506b3          	add	a3,a0,a3
    t1 = buf[pos++] >> 4;
    2a54:	0047d793          	srli	a5,a5,0x4
    if(t0 < 15) {
    2a58:	02970063          	beq	a4,s1,2a78 <pqcrystals_dilithium5_ref_poly_uniform_eta+0x16c>
      t0 = t0 - (205*t0 >> 10)*5;
    2a5c:	03570733          	mul	a4,a4,s5
      a[ctr++] = 2 - t0;
    2a60:	00160613          	addi	a2,a2,1
      t0 = t0 - (205*t0 >> 10)*5;
    2a64:	00a75713          	srli	a4,a4,0xa
    2a68:	00271813          	slli	a6,a4,0x2
    2a6c:	00e80733          	add	a4,a6,a4
      a[ctr++] = 2 - t0;
    2a70:	00670733          	add	a4,a4,t1
    2a74:	00e6a023          	sw	a4,0(a3)
    if(t1 < 15 && ctr < len) {
    2a78:	04978063          	beq	a5,s1,2ab8 <pqcrystals_dilithium5_ref_poly_uniform_eta+0x1ac>
      a[ctr++] = 2 - t1;
    2a7c:	00261713          	slli	a4,a2,0x2
    2a80:	40f90833          	sub	a6,s2,a5
    2a84:	00e50733          	add	a4,a0,a4
    if(t1 < 15 && ctr < len) {
    2a88:	01166a63          	bltu	a2,a7,2a9c <pqcrystals_dilithium5_ref_poly_uniform_eta+0x190>
    ctr += rej_eta(a->coeffs + ctr, N - ctr, buf, STREAM256_BLOCKBYTES);
    2a8c:	00ca0a33          	add	s4,s4,a2
  while(ctr < N) {
    2a90:	0ff00793          	li	a5,255
    2a94:	f947f2e3          	bgeu	a5,s4,2a18 <pqcrystals_dilithium5_ref_poly_uniform_eta+0x10c>
    2a98:	f11ff06f          	j	29a8 <pqcrystals_dilithium5_ref_poly_uniform_eta+0x9c>
      t1 = t1 - (205*t1 >> 10)*5;
    2a9c:	035787b3          	mul	a5,a5,s5
      a[ctr++] = 2 - t1;
    2aa0:	00160613          	addi	a2,a2,1
      t1 = t1 - (205*t1 >> 10)*5;
    2aa4:	00a7d793          	srli	a5,a5,0xa
    2aa8:	00279693          	slli	a3,a5,0x2
    2aac:	00f687b3          	add	a5,a3,a5
      a[ctr++] = 2 - t1;
    2ab0:	010787b3          	add	a5,a5,a6
    2ab4:	00f72023          	sw	a5,0(a4)
  while(ctr < len && pos < buflen) {
    2ab8:	fd167ae3          	bgeu	a2,a7,2a8c <pqcrystals_dilithium5_ref_poly_uniform_eta+0x180>
    2abc:	f8b990e3          	bne	s3,a1,2a3c <pqcrystals_dilithium5_ref_poly_uniform_eta+0x130>
    2ac0:	fcdff06f          	j	2a8c <pqcrystals_dilithium5_ref_poly_uniform_eta+0x180>

00002ac4 <pqcrystals_dilithium5_ref_poly_challenge>:
*              SHAKE256(seed).
*
* Arguments:   - poly *c: pointer to output polynomial
*              - const uint8_t mu[]: byte array containing seed of length SEEDBYTES
**************************************************/
void poly_challenge(poly *c, const uint8_t seed[SEEDBYTES]) {
    2ac4:	e8010113          	addi	sp,sp,-384
    2ac8:	17412423          	sw	s4,360(sp)
    2acc:	00050a13          	mv	s4,a0
  unsigned int i, b, pos;
  uint64_t signs;
  uint8_t buf[SHAKE256_RATE];
  keccak_state state;

  shake256_init(&state);
    2ad0:	09010513          	addi	a0,sp,144
void poly_challenge(poly *c, const uint8_t seed[SEEDBYTES]) {
    2ad4:	16112e23          	sw	ra,380(sp)
    2ad8:	16812c23          	sw	s0,376(sp)
    2adc:	16912a23          	sw	s1,372(sp)
    2ae0:	00058413          	mv	s0,a1
    2ae4:	17212823          	sw	s2,368(sp)
    2ae8:	17312623          	sw	s3,364(sp)
    2aec:	17512223          	sw	s5,356(sp)
    2af0:	17612023          	sw	s6,352(sp)
  shake256_init(&state);
    2af4:	299030ef          	jal	ra,658c <pqcrystals_dilithium_fips202_ref_shake256_init>
  shake256_absorb(&state, seed, SEEDBYTES);
    2af8:	00040593          	mv	a1,s0
    2afc:	02000613          	li	a2,32
    2b00:	09010513          	addi	a0,sp,144
    2b04:	2b9030ef          	jal	ra,65bc <pqcrystals_dilithium_fips202_ref_shake256_absorb>
  shake256_finalize(&state);
    2b08:	09010513          	addi	a0,sp,144
    2b0c:	2e9030ef          	jal	ra,65f4 <pqcrystals_dilithium_fips202_ref_shake256_finalize>
  shake256_squeezeblocks(buf, 1, &state);
    2b10:	09010613          	addi	a2,sp,144
    2b14:	00100593          	li	a1,1
    2b18:	00810513          	addi	a0,sp,8
    2b1c:	499030ef          	jal	ra,67b4 <pqcrystals_dilithium_fips202_ref_shake256_squeezeblocks>

  signs = 0;
  for(i = 0; i < 8; ++i)
    signs |= (uint64_t)buf[i] << 8*i;
    2b20:	00a14783          	lbu	a5,10(sp)
    2b24:	00914603          	lbu	a2,9(sp)
    2b28:	00d14683          	lbu	a3,13(sp)
    2b2c:	00c14503          	lbu	a0,12(sp)
    2b30:	00e14703          	lbu	a4,14(sp)
    2b34:	00814583          	lbu	a1,8(sp)
    2b38:	00b14483          	lbu	s1,11(sp)
    2b3c:	00f14903          	lbu	s2,15(sp)
    2b40:	00861613          	slli	a2,a2,0x8
    2b44:	01079793          	slli	a5,a5,0x10
    2b48:	00869693          	slli	a3,a3,0x8
    2b4c:	00a6e6b3          	or	a3,a3,a0
    2b50:	00c7e7b3          	or	a5,a5,a2
    2b54:	01071713          	slli	a4,a4,0x10
    2b58:	00b7e7b3          	or	a5,a5,a1
    2b5c:	00d76733          	or	a4,a4,a3
    2b60:	01849493          	slli	s1,s1,0x18
    2b64:	01891913          	slli	s2,s2,0x18
  pos = 8;

  for(i = 0; i < N; ++i)
    c->coeffs[i] = 0;
    2b68:	40000613          	li	a2,1024
    2b6c:	00000593          	li	a1,0
    2b70:	000a0513          	mv	a0,s4
    signs |= (uint64_t)buf[i] << 8*i;
    2b74:	00f4e4b3          	or	s1,s1,a5
    2b78:	00e96933          	or	s2,s2,a4
    c->coeffs[i] = 0;
    2b7c:	4ec050ef          	jal	ra,8068 <memset>
    2b80:	310a0993          	addi	s3,s4,784
  for(i = N-TAU; i < N; ++i) {
    2b84:	0c400413          	li	s0,196
  pos = 8;
    2b88:	00800793          	li	a5,8
    do {
      if(pos >= SHAKE256_RATE) {
    2b8c:	08800b13          	li	s6,136
  for(i = N-TAU; i < N; ++i) {
    2b90:	10000a93          	li	s5,256
      if(pos >= SHAKE256_RATE) {
    2b94:	09678063          	beq	a5,s6,2c14 <pqcrystals_dilithium5_ref_poly_challenge+0x150>
        shake256_squeezeblocks(buf, 1, &state);
        pos = 0;
      }

      b = buf[pos++];
    2b98:	16078713          	addi	a4,a5,352
    2b9c:	00270733          	add	a4,a4,sp
    2ba0:	ea874703          	lbu	a4,-344(a4)
    2ba4:	00178793          	addi	a5,a5,1
    } while(b > i);
    2ba8:	fee466e3          	bltu	s0,a4,2b94 <pqcrystals_dilithium5_ref_poly_challenge+0xd0>

    c->coeffs[i] = c->coeffs[b];
    2bac:	00271713          	slli	a4,a4,0x2
    2bb0:	00ea0733          	add	a4,s4,a4
    2bb4:	00072683          	lw	a3,0(a4)
    c->coeffs[b] = 1 - 2*(signs & 1);
    2bb8:	0014f613          	andi	a2,s1,1
    2bbc:	00161613          	slli	a2,a2,0x1
    c->coeffs[i] = c->coeffs[b];
    2bc0:	00d9a023          	sw	a3,0(s3)
    c->coeffs[b] = 1 - 2*(signs & 1);
    2bc4:	00100693          	li	a3,1
    2bc8:	40c686b3          	sub	a3,a3,a2
    signs >>= 1;
    2bcc:	0014d493          	srli	s1,s1,0x1
    2bd0:	01f91613          	slli	a2,s2,0x1f
    c->coeffs[b] = 1 - 2*(signs & 1);
    2bd4:	00d72023          	sw	a3,0(a4)
  for(i = N-TAU; i < N; ++i) {
    2bd8:	00140413          	addi	s0,s0,1
    signs >>= 1;
    2bdc:	009664b3          	or	s1,a2,s1
    2be0:	00195913          	srli	s2,s2,0x1
  for(i = N-TAU; i < N; ++i) {
    2be4:	00498993          	addi	s3,s3,4
    2be8:	fb5416e3          	bne	s0,s5,2b94 <pqcrystals_dilithium5_ref_poly_challenge+0xd0>
  }
}
    2bec:	17c12083          	lw	ra,380(sp)
    2bf0:	17812403          	lw	s0,376(sp)
    2bf4:	17412483          	lw	s1,372(sp)
    2bf8:	17012903          	lw	s2,368(sp)
    2bfc:	16c12983          	lw	s3,364(sp)
    2c00:	16812a03          	lw	s4,360(sp)
    2c04:	16412a83          	lw	s5,356(sp)
    2c08:	16012b03          	lw	s6,352(sp)
    2c0c:	18010113          	addi	sp,sp,384
    2c10:	00008067          	ret
        shake256_squeezeblocks(buf, 1, &state);
    2c14:	09010613          	addi	a2,sp,144
    2c18:	00100593          	li	a1,1
    2c1c:	00810513          	addi	a0,sp,8
    2c20:	395030ef          	jal	ra,67b4 <pqcrystals_dilithium_fips202_ref_shake256_squeezeblocks>
      b = buf[pos++];
    2c24:	00814703          	lbu	a4,8(sp)
    } while(b > i);
    2c28:	00100793          	li	a5,1
    2c2c:	f6e466e3          	bltu	s0,a4,2b98 <pqcrystals_dilithium5_ref_poly_challenge+0xd4>
    2c30:	f7dff06f          	j	2bac <pqcrystals_dilithium5_ref_poly_challenge+0xe8>

00002c34 <pqcrystals_dilithium5_ref_polyeta_pack>:
  unsigned int i;
  uint8_t t[8];
  DBENCH_START();

#if ETA == 2
  for(i = 0; i < N/8; ++i) {
    2c34:	40058893          	addi	a7,a1,1024
    t[0] = ETA - a->coeffs[8*i+0];
    t[1] = ETA - a->coeffs[8*i+1];
    t[2] = ETA - a->coeffs[8*i+2];
    2c38:	00200813          	li	a6,2
    t[3] = ETA - a->coeffs[8*i+3];
    2c3c:	00c5a783          	lw	a5,12(a1)
    t[4] = ETA - a->coeffs[8*i+4];
    2c40:	0105af03          	lw	t5,16(a1)
    t[2] = ETA - a->coeffs[8*i+2];
    2c44:	0085a303          	lw	t1,8(a1)
    t[5] = ETA - a->coeffs[8*i+5];
    t[6] = ETA - a->coeffs[8*i+6];
    2c48:	0185a703          	lw	a4,24(a1)
    t[7] = ETA - a->coeffs[8*i+7];
    2c4c:	01c5ae03          	lw	t3,28(a1)
    t[1] = ETA - a->coeffs[8*i+1];
    2c50:	0045a683          	lw	a3,4(a1)
    t[5] = ETA - a->coeffs[8*i+5];
    2c54:	0145a603          	lw	a2,20(a1)
    t[3] = ETA - a->coeffs[8*i+3];
    2c58:	40f807b3          	sub	a5,a6,a5
    t[4] = ETA - a->coeffs[8*i+4];
    2c5c:	41e80f33          	sub	t5,a6,t5
    t[0] = ETA - a->coeffs[8*i+0];
    2c60:	0005ae83          	lw	t4,0(a1)
    t[2] = ETA - a->coeffs[8*i+2];
    2c64:	40680333          	sub	t1,a6,t1
    t[3] = ETA - a->coeffs[8*i+3];
    2c68:	0ff7f793          	zext.b	a5,a5
    t[4] = ETA - a->coeffs[8*i+4];
    2c6c:	0fff7f13          	zext.b	t5,t5
    t[6] = ETA - a->coeffs[8*i+6];
    2c70:	40e80733          	sub	a4,a6,a4
    t[7] = ETA - a->coeffs[8*i+7];
    2c74:	41c80e33          	sub	t3,a6,t3
    t[1] = ETA - a->coeffs[8*i+1];
    2c78:	40d806b3          	sub	a3,a6,a3
    t[2] = ETA - a->coeffs[8*i+2];
    2c7c:	0ff37313          	zext.b	t1,t1
    t[5] = ETA - a->coeffs[8*i+5];
    2c80:	40c80633          	sub	a2,a6,a2
    t[6] = ETA - a->coeffs[8*i+6];
    2c84:	0ff77713          	zext.b	a4,a4
    t[7] = ETA - a->coeffs[8*i+7];
    2c88:	0ffe7e13          	zext.b	t3,t3

    r[3*i+0]  = (t[0] >> 0) | (t[1] << 3) | (t[2] << 6);
    2c8c:	0ff6f693          	zext.b	a3,a3
    r[3*i+1]  = (t[2] >> 2) | (t[3] << 1) | (t[4] << 4) | (t[5] << 7);
    2c90:	00179793          	slli	a5,a5,0x1
    2c94:	004f1f13          	slli	t5,t5,0x4
    t[5] = ETA - a->coeffs[8*i+5];
    2c98:	0ff67613          	zext.b	a2,a2
    r[3*i+0]  = (t[0] >> 0) | (t[1] << 3) | (t[2] << 6);
    2c9c:	00631f93          	slli	t6,t1,0x6
    2ca0:	00369693          	slli	a3,a3,0x3
    r[3*i+1]  = (t[2] >> 2) | (t[3] << 1) | (t[4] << 4) | (t[5] << 7);
    2ca4:	00235313          	srli	t1,t1,0x2
    2ca8:	01e7e7b3          	or	a5,a5,t5
    r[3*i+2]  = (t[5] >> 1) | (t[6] << 2) | (t[7] << 5);
    2cac:	00271713          	slli	a4,a4,0x2
    2cb0:	005e1e13          	slli	t3,t3,0x5
    r[3*i+1]  = (t[2] >> 2) | (t[3] << 1) | (t[4] << 4) | (t[5] << 7);
    2cb4:	0067e7b3          	or	a5,a5,t1
    r[3*i+0]  = (t[0] >> 0) | (t[1] << 3) | (t[2] << 6);
    2cb8:	01f6e6b3          	or	a3,a3,t6
    r[3*i+1]  = (t[2] >> 2) | (t[3] << 1) | (t[4] << 4) | (t[5] << 7);
    2cbc:	00761313          	slli	t1,a2,0x7
    t[0] = ETA - a->coeffs[8*i+0];
    2cc0:	41d80eb3          	sub	t4,a6,t4
    r[3*i+2]  = (t[5] >> 1) | (t[6] << 2) | (t[7] << 5);
    2cc4:	01c76733          	or	a4,a4,t3
    2cc8:	00165613          	srli	a2,a2,0x1
    r[3*i+0]  = (t[0] >> 0) | (t[1] << 3) | (t[2] << 6);
    2ccc:	01d6e6b3          	or	a3,a3,t4
    r[3*i+1]  = (t[2] >> 2) | (t[3] << 1) | (t[4] << 4) | (t[5] << 7);
    2cd0:	0067e7b3          	or	a5,a5,t1
    r[3*i+2]  = (t[5] >> 1) | (t[6] << 2) | (t[7] << 5);
    2cd4:	00c76733          	or	a4,a4,a2
    r[3*i+0]  = (t[0] >> 0) | (t[1] << 3) | (t[2] << 6);
    2cd8:	00d50023          	sb	a3,0(a0)
    r[3*i+1]  = (t[2] >> 2) | (t[3] << 1) | (t[4] << 4) | (t[5] << 7);
    2cdc:	00f500a3          	sb	a5,1(a0)
    r[3*i+2]  = (t[5] >> 1) | (t[6] << 2) | (t[7] << 5);
    2ce0:	00e50123          	sb	a4,2(a0)
  for(i = 0; i < N/8; ++i) {
    2ce4:	02058593          	addi	a1,a1,32
    2ce8:	00350513          	addi	a0,a0,3
    2cec:	f51598e3          	bne	a1,a7,2c3c <pqcrystals_dilithium5_ref_polyeta_pack+0x8>
    r[i] = t[0] | (t[1] << 4);
  }
#endif

  DBENCH_STOP(*tpack);
}
    2cf0:	00008067          	ret

00002cf4 <pqcrystals_dilithium5_ref_polyeta_unpack>:
void polyeta_unpack(poly *r, const uint8_t *a) {
  unsigned int i;
  DBENCH_START();

#if ETA == 2
  for(i = 0; i < N/8; ++i) {
    2cf4:	40050e93          	addi	t4,a0,1024
    r->coeffs[8*i+4] =  (a[3*i+1] >> 4) & 7;
    r->coeffs[8*i+5] = ((a[3*i+1] >> 7) | (a[3*i+2] << 1)) & 7;
    r->coeffs[8*i+6] =  (a[3*i+2] >> 2) & 7;
    r->coeffs[8*i+7] =  (a[3*i+2] >> 5) & 7;

    r->coeffs[8*i+0] = ETA - r->coeffs[8*i+0];
    2cf8:	00200313          	li	t1,2
    r->coeffs[8*i+0] =  (a[3*i+0] >> 0) & 7;
    2cfc:	0005ce03          	lbu	t3,0(a1)
  for(i = 0; i < N/8; ++i) {
    2d00:	02050513          	addi	a0,a0,32
    2d04:	00358593          	addi	a1,a1,3
    r->coeffs[8*i+0] =  (a[3*i+0] >> 0) & 7;
    2d08:	007e7e13          	andi	t3,t3,7
    2d0c:	ffc52023          	sw	t3,-32(a0)
    r->coeffs[8*i+1] =  (a[3*i+0] >> 3) & 7;
    2d10:	ffd5c883          	lbu	a7,-3(a1)
    r->coeffs[8*i+0] = ETA - r->coeffs[8*i+0];
    2d14:	41c30e33          	sub	t3,t1,t3
    r->coeffs[8*i+1] =  (a[3*i+0] >> 3) & 7;
    2d18:	0038d893          	srli	a7,a7,0x3
    2d1c:	0078f893          	andi	a7,a7,7
    2d20:	ff152223          	sw	a7,-28(a0)
    r->coeffs[8*i+2] = ((a[3*i+0] >> 6) | (a[3*i+1] << 2)) & 7;
    2d24:	ffd5c703          	lbu	a4,-3(a1)
    2d28:	ffe5c783          	lbu	a5,-2(a1)
    r->coeffs[8*i+1] = ETA - r->coeffs[8*i+1];
    2d2c:	411308b3          	sub	a7,t1,a7
    r->coeffs[8*i+2] = ((a[3*i+0] >> 6) | (a[3*i+1] << 2)) & 7;
    2d30:	00675713          	srli	a4,a4,0x6
    2d34:	00279793          	slli	a5,a5,0x2
    2d38:	00f76733          	or	a4,a4,a5
    2d3c:	00777713          	andi	a4,a4,7
    2d40:	fee52423          	sw	a4,-24(a0)
    r->coeffs[8*i+3] =  (a[3*i+1] >> 1) & 7;
    2d44:	ffe5c783          	lbu	a5,-2(a1)
    r->coeffs[8*i+2] = ETA - r->coeffs[8*i+2];
    2d48:	40e30833          	sub	a6,t1,a4
    r->coeffs[8*i+3] =  (a[3*i+1] >> 1) & 7;
    2d4c:	0017d793          	srli	a5,a5,0x1
    2d50:	0077f793          	andi	a5,a5,7
    2d54:	fef52623          	sw	a5,-20(a0)
    r->coeffs[8*i+4] =  (a[3*i+1] >> 4) & 7;
    2d58:	ffe5c703          	lbu	a4,-2(a1)
    r->coeffs[8*i+3] = ETA - r->coeffs[8*i+3];
    2d5c:	40f30633          	sub	a2,t1,a5
    r->coeffs[8*i+4] =  (a[3*i+1] >> 4) & 7;
    2d60:	00475713          	srli	a4,a4,0x4
    2d64:	00777713          	andi	a4,a4,7
    2d68:	fee52823          	sw	a4,-16(a0)
    r->coeffs[8*i+5] = ((a[3*i+1] >> 7) | (a[3*i+2] << 1)) & 7;
    2d6c:	fff5cf03          	lbu	t5,-1(a1)
    2d70:	ffe5c783          	lbu	a5,-2(a1)
    r->coeffs[8*i+4] = ETA - r->coeffs[8*i+4];
    2d74:	40e306b3          	sub	a3,t1,a4
    r->coeffs[8*i+5] = ((a[3*i+1] >> 7) | (a[3*i+2] << 1)) & 7;
    2d78:	001f1713          	slli	a4,t5,0x1
    2d7c:	0077d793          	srli	a5,a5,0x7
    2d80:	00e7e7b3          	or	a5,a5,a4
    2d84:	0077f793          	andi	a5,a5,7
    2d88:	fef52a23          	sw	a5,-12(a0)
    r->coeffs[8*i+6] =  (a[3*i+2] >> 2) & 7;
    2d8c:	fff5c703          	lbu	a4,-1(a1)
    r->coeffs[8*i+5] = ETA - r->coeffs[8*i+5];
    2d90:	40f307b3          	sub	a5,t1,a5
    r->coeffs[8*i+6] =  (a[3*i+2] >> 2) & 7;
    2d94:	00275713          	srli	a4,a4,0x2
    2d98:	00777713          	andi	a4,a4,7
    2d9c:	fee52c23          	sw	a4,-8(a0)
    r->coeffs[8*i+7] =  (a[3*i+2] >> 5) & 7;
    2da0:	fff5cf03          	lbu	t5,-1(a1)
    r->coeffs[8*i+0] = ETA - r->coeffs[8*i+0];
    2da4:	ffc52023          	sw	t3,-32(a0)
    r->coeffs[8*i+6] = ETA - r->coeffs[8*i+6];
    2da8:	40e30733          	sub	a4,t1,a4
    r->coeffs[8*i+7] =  (a[3*i+2] >> 5) & 7;
    2dac:	005f5e13          	srli	t3,t5,0x5
    r->coeffs[8*i+7] = ETA - r->coeffs[8*i+7];
    2db0:	41c30e33          	sub	t3,t1,t3
    r->coeffs[8*i+1] = ETA - r->coeffs[8*i+1];
    2db4:	ff152223          	sw	a7,-28(a0)
    r->coeffs[8*i+2] = ETA - r->coeffs[8*i+2];
    2db8:	ff052423          	sw	a6,-24(a0)
    r->coeffs[8*i+3] = ETA - r->coeffs[8*i+3];
    2dbc:	fec52623          	sw	a2,-20(a0)
    r->coeffs[8*i+4] = ETA - r->coeffs[8*i+4];
    2dc0:	fed52823          	sw	a3,-16(a0)
    r->coeffs[8*i+5] = ETA - r->coeffs[8*i+5];
    2dc4:	fef52a23          	sw	a5,-12(a0)
    r->coeffs[8*i+6] = ETA - r->coeffs[8*i+6];
    2dc8:	fee52c23          	sw	a4,-8(a0)
    r->coeffs[8*i+7] = ETA - r->coeffs[8*i+7];
    2dcc:	ffc52e23          	sw	t3,-4(a0)
  for(i = 0; i < N/8; ++i) {
    2dd0:	f3d516e3          	bne	a0,t4,2cfc <pqcrystals_dilithium5_ref_polyeta_unpack+0x8>
    r->coeffs[2*i+1] = ETA - r->coeffs[2*i+1];
  }
#endif

  DBENCH_STOP(*tpack);
}
    2dd4:	00008067          	ret

00002dd8 <pqcrystals_dilithium5_ref_polyt1_pack>:
**************************************************/
void polyt1_pack(uint8_t *r, const poly *a) {
  unsigned int i;
  DBENCH_START();

  for(i = 0; i < N/4; ++i) {
    2dd8:	40058693          	addi	a3,a1,1024
    r[5*i+0] = (a->coeffs[4*i+0] >> 0);
    2ddc:	0005a783          	lw	a5,0(a1)
  for(i = 0; i < N/4; ++i) {
    2de0:	01058593          	addi	a1,a1,16
    2de4:	00550513          	addi	a0,a0,5
    r[5*i+0] = (a->coeffs[4*i+0] >> 0);
    2de8:	fef50da3          	sb	a5,-5(a0)
    r[5*i+1] = (a->coeffs[4*i+0] >> 8) | (a->coeffs[4*i+1] << 2);
    2dec:	ff05a783          	lw	a5,-16(a1)
    2df0:	ff45a703          	lw	a4,-12(a1)
    2df4:	4087d793          	srai	a5,a5,0x8
    2df8:	00271713          	slli	a4,a4,0x2
    2dfc:	00e7e7b3          	or	a5,a5,a4
    2e00:	fef50e23          	sb	a5,-4(a0)
    r[5*i+2] = (a->coeffs[4*i+1] >> 6) | (a->coeffs[4*i+2] << 4);
    2e04:	ff45a783          	lw	a5,-12(a1)
    2e08:	ff85a703          	lw	a4,-8(a1)
    2e0c:	4067d793          	srai	a5,a5,0x6
    2e10:	00471713          	slli	a4,a4,0x4
    2e14:	00e7e7b3          	or	a5,a5,a4
    2e18:	fef50ea3          	sb	a5,-3(a0)
    r[5*i+3] = (a->coeffs[4*i+2] >> 4) | (a->coeffs[4*i+3] << 6);
    2e1c:	ff85a783          	lw	a5,-8(a1)
    2e20:	ffc5a703          	lw	a4,-4(a1)
    2e24:	4047d793          	srai	a5,a5,0x4
    2e28:	00671713          	slli	a4,a4,0x6
    2e2c:	00e7e7b3          	or	a5,a5,a4
    2e30:	fef50f23          	sb	a5,-2(a0)
    r[5*i+4] = (a->coeffs[4*i+3] >> 2);
    2e34:	ffc5a783          	lw	a5,-4(a1)
    2e38:	4027d793          	srai	a5,a5,0x2
    2e3c:	fef50fa3          	sb	a5,-1(a0)
  for(i = 0; i < N/4; ++i) {
    2e40:	f8d59ee3          	bne	a1,a3,2ddc <pqcrystals_dilithium5_ref_polyt1_pack+0x4>
  }

  DBENCH_STOP(*tpack);
}
    2e44:	00008067          	ret

00002e48 <pqcrystals_dilithium5_ref_polyt1_unpack>:
**************************************************/
void polyt1_unpack(poly *r, const uint8_t *a) {
  unsigned int i;
  DBENCH_START();

  for(i = 0; i < N/4; ++i) {
    2e48:	14058693          	addi	a3,a1,320
    r->coeffs[4*i+0] = ((a[5*i+0] >> 0) | ((uint32_t)a[5*i+1] << 8)) & 0x3FF;
    2e4c:	0015c783          	lbu	a5,1(a1)
    2e50:	0005c703          	lbu	a4,0(a1)
  for(i = 0; i < N/4; ++i) {
    2e54:	00558593          	addi	a1,a1,5
    r->coeffs[4*i+0] = ((a[5*i+0] >> 0) | ((uint32_t)a[5*i+1] << 8)) & 0x3FF;
    2e58:	00879793          	slli	a5,a5,0x8
    2e5c:	00e7e7b3          	or	a5,a5,a4
    2e60:	3ff7f793          	andi	a5,a5,1023
    2e64:	00f52023          	sw	a5,0(a0)
    r->coeffs[4*i+1] = ((a[5*i+1] >> 2) | ((uint32_t)a[5*i+2] << 6)) & 0x3FF;
    2e68:	ffc5c783          	lbu	a5,-4(a1)
    2e6c:	ffd5c703          	lbu	a4,-3(a1)
  for(i = 0; i < N/4; ++i) {
    2e70:	01050513          	addi	a0,a0,16
    r->coeffs[4*i+1] = ((a[5*i+1] >> 2) | ((uint32_t)a[5*i+2] << 6)) & 0x3FF;
    2e74:	0027d793          	srli	a5,a5,0x2
    2e78:	00671713          	slli	a4,a4,0x6
    2e7c:	00e7e7b3          	or	a5,a5,a4
    2e80:	3ff7f793          	andi	a5,a5,1023
    2e84:	fef52a23          	sw	a5,-12(a0)
    r->coeffs[4*i+2] = ((a[5*i+2] >> 4) | ((uint32_t)a[5*i+3] << 4)) & 0x3FF;
    2e88:	ffd5c783          	lbu	a5,-3(a1)
    2e8c:	ffe5c703          	lbu	a4,-2(a1)
    2e90:	0047d793          	srli	a5,a5,0x4
    2e94:	00471713          	slli	a4,a4,0x4
    2e98:	00e7e7b3          	or	a5,a5,a4
    2e9c:	3ff7f793          	andi	a5,a5,1023
    2ea0:	fef52c23          	sw	a5,-8(a0)
    r->coeffs[4*i+3] = ((a[5*i+3] >> 6) | ((uint32_t)a[5*i+4] << 2)) & 0x3FF;
    2ea4:	ffe5c783          	lbu	a5,-2(a1)
    2ea8:	fff5c703          	lbu	a4,-1(a1)
    2eac:	0067d793          	srli	a5,a5,0x6
    2eb0:	00271713          	slli	a4,a4,0x2
    2eb4:	00e7e7b3          	or	a5,a5,a4
    2eb8:	fef52e23          	sw	a5,-4(a0)
  for(i = 0; i < N/4; ++i) {
    2ebc:	f8b698e3          	bne	a3,a1,2e4c <pqcrystals_dilithium5_ref_polyt1_unpack+0x4>
  }

  DBENCH_STOP(*tpack);
}
    2ec0:	00008067          	ret

00002ec4 <pqcrystals_dilithium5_ref_polyt0_pack>:
*
* Arguments:   - uint8_t *r: pointer to output byte array with at least
*                            POLYT0_PACKEDBYTES bytes
*              - const poly *a: pointer to input polynomial
**************************************************/
void polyt0_pack(uint8_t *r, const poly *a) {
    2ec4:	fd010113          	addi	sp,sp,-48
    2ec8:	02812623          	sw	s0,44(sp)
    2ecc:	02912423          	sw	s1,40(sp)
    2ed0:	03212223          	sw	s2,36(sp)
    2ed4:	03312023          	sw	s3,32(sp)
    2ed8:	01412e23          	sw	s4,28(sp)
    2edc:	01512c23          	sw	s5,24(sp)
    2ee0:	01612a23          	sw	s6,20(sp)
    2ee4:	01712823          	sw	s7,16(sp)
    2ee8:	01812623          	sw	s8,12(sp)
    2eec:	1a050293          	addi	t0,a0,416
  unsigned int i;
  uint32_t t[8];
  DBENCH_START();

  for(i = 0; i < N/8; ++i) {
    t[0] = (1 << (D-1)) - a->coeffs[8*i+0];
    2ef0:	00001e37          	lui	t3,0x1
    2ef4:	0005af03          	lw	t5,0(a1)
    t[1] = (1 << (D-1)) - a->coeffs[8*i+1];
    2ef8:	0045a883          	lw	a7,4(a1)
    t[2] = (1 << (D-1)) - a->coeffs[8*i+2];
    2efc:	0085a803          	lw	a6,8(a1)
    t[3] = (1 << (D-1)) - a->coeffs[8*i+3];
    2f00:	00c5ae83          	lw	t4,12(a1)
    t[4] = (1 << (D-1)) - a->coeffs[8*i+4];
    2f04:	0105a703          	lw	a4,16(a1)
    t[5] = (1 << (D-1)) - a->coeffs[8*i+5];
    2f08:	0145a603          	lw	a2,20(a1)
    t[6] = (1 << (D-1)) - a->coeffs[8*i+6];
    2f0c:	0185a783          	lw	a5,24(a1)
    t[7] = (1 << (D-1)) - a->coeffs[8*i+7];
    2f10:	01c5a683          	lw	a3,28(a1)
    t[1] = (1 << (D-1)) - a->coeffs[8*i+1];
    2f14:	411e08b3          	sub	a7,t3,a7
    t[3] = (1 << (D-1)) - a->coeffs[8*i+3];
    2f18:	41de0eb3          	sub	t4,t3,t4
    t[4] = (1 << (D-1)) - a->coeffs[8*i+4];
    2f1c:	40ee0733          	sub	a4,t3,a4
    t[6] = (1 << (D-1)) - a->coeffs[8*i+6];
    2f20:	40fe07b3          	sub	a5,t3,a5
    t[0] = (1 << (D-1)) - a->coeffs[8*i+0];
    2f24:	41ee0f33          	sub	t5,t3,t5
    t[2] = (1 << (D-1)) - a->coeffs[8*i+2];
    2f28:	410e0833          	sub	a6,t3,a6
    t[5] = (1 << (D-1)) - a->coeffs[8*i+5];
    2f2c:	40ce0633          	sub	a2,t3,a2
    t[7] = (1 << (D-1)) - a->coeffs[8*i+7];
    2f30:	40de06b3          	sub	a3,t3,a3

    r[13*i+ 0]  =  t[0];
    r[13*i+ 1]  =  t[0] >>  8;
    r[13*i+ 1] |=  t[1] <<  5;
    2f34:	00589c13          	slli	s8,a7,0x5
    r[13*i+ 2]  =  t[1] >>  3;
    r[13*i+ 3]  =  t[1] >> 11;
    2f38:	00b8d413          	srli	s0,a7,0xb
    r[13*i+ 3] |=  t[2] <<  2;
    2f3c:	00281b93          	slli	s7,a6,0x2
    r[13*i+ 4]  =  t[2] >>  6;
    r[13*i+ 4] |=  t[3] <<  7;
    2f40:	007e9b13          	slli	s6,t4,0x7
    r[13*i+ 5]  =  t[3] >>  1;
    r[13*i+ 6]  =  t[3] >>  9;
    2f44:	009ed393          	srli	t2,t4,0x9
    r[13*i+ 6] |=  t[4] <<  4;
    2f48:	00471a93          	slli	s5,a4,0x4
    r[13*i+ 7]  =  t[4] >>  4;
    r[13*i+ 8]  =  t[4] >> 12;
    2f4c:	00c75f93          	srli	t6,a4,0xc
    r[13*i+ 8] |=  t[5] <<  1;
    2f50:	00161a13          	slli	s4,a2,0x1
    r[13*i+ 9]  =  t[5] >>  7;
    r[13*i+ 9] |=  t[6] <<  6;
    2f54:	00679993          	slli	s3,a5,0x6
    r[13*i+10]  =  t[6] >>  2;
    r[13*i+11]  =  t[6] >> 10;
    2f58:	00a7d313          	srli	t1,a5,0xa
    r[13*i+11] |=  t[7] <<  3;
    2f5c:	00369913          	slli	s2,a3,0x3
    r[13*i+ 1]  =  t[0] >>  8;
    2f60:	008f5493          	srli	s1,t5,0x8
    r[13*i+ 4]  =  t[2] >>  6;
    2f64:	00685813          	srli	a6,a6,0x6
    r[13*i+ 9]  =  t[5] >>  7;
    2f68:	00765613          	srli	a2,a2,0x7
    r[13*i+ 1] |=  t[1] <<  5;
    2f6c:	0184e4b3          	or	s1,s1,s8
    r[13*i+ 2]  =  t[1] >>  3;
    2f70:	0038d893          	srli	a7,a7,0x3
    r[13*i+ 3] |=  t[2] <<  2;
    2f74:	01746433          	or	s0,s0,s7
    r[13*i+ 4] |=  t[3] <<  7;
    2f78:	01686833          	or	a6,a6,s6
    r[13*i+ 5]  =  t[3] >>  1;
    2f7c:	001ede93          	srli	t4,t4,0x1
    r[13*i+ 6] |=  t[4] <<  4;
    2f80:	0153e3b3          	or	t2,t2,s5
    r[13*i+ 7]  =  t[4] >>  4;
    2f84:	00475713          	srli	a4,a4,0x4
    r[13*i+ 8] |=  t[5] <<  1;
    2f88:	014fefb3          	or	t6,t6,s4
    r[13*i+ 9] |=  t[6] <<  6;
    2f8c:	01366633          	or	a2,a2,s3
    r[13*i+10]  =  t[6] >>  2;
    2f90:	0027d793          	srli	a5,a5,0x2
    r[13*i+11] |=  t[7] <<  3;
    2f94:	01236333          	or	t1,t1,s2
    r[13*i+12]  =  t[7] >>  5;
    2f98:	0056d693          	srli	a3,a3,0x5
    r[13*i+ 0]  =  t[0];
    2f9c:	01e50023          	sb	t5,0(a0)
    r[13*i+ 1] |=  t[1] <<  5;
    2fa0:	009500a3          	sb	s1,1(a0)
    r[13*i+ 2]  =  t[1] >>  3;
    2fa4:	01150123          	sb	a7,2(a0)
    r[13*i+ 3] |=  t[2] <<  2;
    2fa8:	008501a3          	sb	s0,3(a0)
    r[13*i+ 4] |=  t[3] <<  7;
    2fac:	01050223          	sb	a6,4(a0)
    r[13*i+ 5]  =  t[3] >>  1;
    2fb0:	01d502a3          	sb	t4,5(a0)
    r[13*i+ 6] |=  t[4] <<  4;
    2fb4:	00750323          	sb	t2,6(a0)
    r[13*i+ 7]  =  t[4] >>  4;
    2fb8:	00e503a3          	sb	a4,7(a0)
    r[13*i+ 8] |=  t[5] <<  1;
    2fbc:	01f50423          	sb	t6,8(a0)
    r[13*i+ 9] |=  t[6] <<  6;
    2fc0:	00c504a3          	sb	a2,9(a0)
    r[13*i+10]  =  t[6] >>  2;
    2fc4:	00f50523          	sb	a5,10(a0)
    r[13*i+11] |=  t[7] <<  3;
    2fc8:	006505a3          	sb	t1,11(a0)
    r[13*i+12]  =  t[7] >>  5;
    2fcc:	00d50623          	sb	a3,12(a0)
  for(i = 0; i < N/8; ++i) {
    2fd0:	00d50513          	addi	a0,a0,13
    2fd4:	02058593          	addi	a1,a1,32
    2fd8:	f0a29ee3          	bne	t0,a0,2ef4 <pqcrystals_dilithium5_ref_polyt0_pack+0x30>
  }

  DBENCH_STOP(*tpack);
}
    2fdc:	02c12403          	lw	s0,44(sp)
    2fe0:	02812483          	lw	s1,40(sp)
    2fe4:	02412903          	lw	s2,36(sp)
    2fe8:	02012983          	lw	s3,32(sp)
    2fec:	01c12a03          	lw	s4,28(sp)
    2ff0:	01812a83          	lw	s5,24(sp)
    2ff4:	01412b03          	lw	s6,20(sp)
    2ff8:	01012b83          	lw	s7,16(sp)
    2ffc:	00c12c03          	lw	s8,12(sp)
    3000:	03010113          	addi	sp,sp,48
    3004:	00008067          	ret

00003008 <pqcrystals_dilithium5_ref_polyt0_unpack>:
  DBENCH_START();

  for(i = 0; i < N/8; ++i) {
    r->coeffs[8*i+0]  = a[13*i+0];
    r->coeffs[8*i+0] |= (uint32_t)a[13*i+1] << 8;
    r->coeffs[8*i+0] &= 0x1FFF;
    3008:	00002eb7          	lui	t4,0x2
    300c:	1a058f13          	addi	t5,a1,416
    3010:	fffe8e93          	addi	t4,t4,-1 # 1fff <pqcrystals_dilithium5_ref_polyveck_shiftl+0x37>

    r->coeffs[8*i+7]  = a[13*i+11] >> 3;
    r->coeffs[8*i+7] |= (uint32_t)a[13*i+12] << 5;
    r->coeffs[8*i+7] &= 0x1FFF;

    r->coeffs[8*i+0] = (1 << (D-1)) - r->coeffs[8*i+0];
    3014:	00001e37          	lui	t3,0x1
    r->coeffs[8*i+0]  = a[13*i+0];
    3018:	0005c783          	lbu	a5,0(a1)
  for(i = 0; i < N/8; ++i) {
    301c:	00d58593          	addi	a1,a1,13
    3020:	02050513          	addi	a0,a0,32
    r->coeffs[8*i+0]  = a[13*i+0];
    3024:	fef52023          	sw	a5,-32(a0)
    r->coeffs[8*i+0] |= (uint32_t)a[13*i+1] << 8;
    3028:	ff45c303          	lbu	t1,-12(a1)
    302c:	00831313          	slli	t1,t1,0x8
    3030:	00f36333          	or	t1,t1,a5
    r->coeffs[8*i+0] &= 0x1FFF;
    3034:	01d37333          	and	t1,t1,t4
    3038:	fe652023          	sw	t1,-32(a0)
    r->coeffs[8*i+1]  = a[13*i+1] >> 5;
    303c:	ff45c703          	lbu	a4,-12(a1)
    r->coeffs[8*i+0] = (1 << (D-1)) - r->coeffs[8*i+0];
    3040:	406e0333          	sub	t1,t3,t1
    r->coeffs[8*i+1]  = a[13*i+1] >> 5;
    3044:	00575713          	srli	a4,a4,0x5
    3048:	fee52223          	sw	a4,-28(a0)
    r->coeffs[8*i+1] |= (uint32_t)a[13*i+2] << 3;
    304c:	ff55c783          	lbu	a5,-11(a1)
    3050:	00379793          	slli	a5,a5,0x3
    3054:	00e7e7b3          	or	a5,a5,a4
    3058:	fef52223          	sw	a5,-28(a0)
    r->coeffs[8*i+1] |= (uint32_t)a[13*i+3] << 11;
    305c:	ff65c883          	lbu	a7,-10(a1)
    3060:	00b89893          	slli	a7,a7,0xb
    3064:	00f8e8b3          	or	a7,a7,a5
    r->coeffs[8*i+1] &= 0x1FFF;
    3068:	01d8f8b3          	and	a7,a7,t4
    306c:	ff152223          	sw	a7,-28(a0)
    r->coeffs[8*i+2]  = a[13*i+3] >> 2;
    3070:	ff65c783          	lbu	a5,-10(a1)
    r->coeffs[8*i+1] = (1 << (D-1)) - r->coeffs[8*i+1];
    3074:	411e08b3          	sub	a7,t3,a7
    r->coeffs[8*i+2]  = a[13*i+3] >> 2;
    3078:	0027d793          	srli	a5,a5,0x2
    307c:	fef52423          	sw	a5,-24(a0)
    r->coeffs[8*i+2] |= (uint32_t)a[13*i+4] << 6;
    3080:	ff75c803          	lbu	a6,-9(a1)
    3084:	00681813          	slli	a6,a6,0x6
    3088:	00f86833          	or	a6,a6,a5
    r->coeffs[8*i+2] &= 0x1FFF;
    308c:	01d87833          	and	a6,a6,t4
    3090:	ff052423          	sw	a6,-24(a0)
    r->coeffs[8*i+3]  = a[13*i+4] >> 7;
    3094:	ff75c783          	lbu	a5,-9(a1)
    r->coeffs[8*i+2] = (1 << (D-1)) - r->coeffs[8*i+2];
    3098:	410e0833          	sub	a6,t3,a6
    r->coeffs[8*i+3]  = a[13*i+4] >> 7;
    309c:	0077d793          	srli	a5,a5,0x7
    30a0:	fef52623          	sw	a5,-20(a0)
    r->coeffs[8*i+3] |= (uint32_t)a[13*i+5] << 1;
    30a4:	ff85c703          	lbu	a4,-8(a1)
    30a8:	00171713          	slli	a4,a4,0x1
    30ac:	00f76733          	or	a4,a4,a5
    30b0:	fee52623          	sw	a4,-20(a0)
    r->coeffs[8*i+3] |= (uint32_t)a[13*i+6] << 9;
    30b4:	ff95c783          	lbu	a5,-7(a1)
    30b8:	00979793          	slli	a5,a5,0x9
    30bc:	00e7e7b3          	or	a5,a5,a4
    r->coeffs[8*i+3] &= 0x1FFF;
    30c0:	01d7f7b3          	and	a5,a5,t4
    30c4:	fef52623          	sw	a5,-20(a0)
    r->coeffs[8*i+4]  = a[13*i+6] >> 4;
    30c8:	ff95c703          	lbu	a4,-7(a1)
    r->coeffs[8*i+3] = (1 << (D-1)) - r->coeffs[8*i+3];
    30cc:	40fe0633          	sub	a2,t3,a5
    r->coeffs[8*i+4]  = a[13*i+6] >> 4;
    30d0:	00475793          	srli	a5,a4,0x4
    30d4:	fef52823          	sw	a5,-16(a0)
    r->coeffs[8*i+4] |= (uint32_t)a[13*i+7] << 4;
    30d8:	ffa5c703          	lbu	a4,-6(a1)
    30dc:	00471713          	slli	a4,a4,0x4
    30e0:	00f76733          	or	a4,a4,a5
    30e4:	fee52823          	sw	a4,-16(a0)
    r->coeffs[8*i+4] |= (uint32_t)a[13*i+8] << 12;
    30e8:	ffb5c783          	lbu	a5,-5(a1)
    30ec:	00c79793          	slli	a5,a5,0xc
    30f0:	00e7e7b3          	or	a5,a5,a4
    r->coeffs[8*i+4] &= 0x1FFF;
    30f4:	01d7f7b3          	and	a5,a5,t4
    30f8:	fef52823          	sw	a5,-16(a0)
    r->coeffs[8*i+5]  = a[13*i+8] >> 1;
    30fc:	ffb5c703          	lbu	a4,-5(a1)
    r->coeffs[8*i+4] = (1 << (D-1)) - r->coeffs[8*i+4];
    3100:	40fe06b3          	sub	a3,t3,a5
    r->coeffs[8*i+5]  = a[13*i+8] >> 1;
    3104:	00175713          	srli	a4,a4,0x1
    3108:	fee52a23          	sw	a4,-12(a0)
    r->coeffs[8*i+5] |= (uint32_t)a[13*i+9] << 7;
    310c:	ffc5c783          	lbu	a5,-4(a1)
    3110:	00779793          	slli	a5,a5,0x7
    3114:	00e7e7b3          	or	a5,a5,a4
    r->coeffs[8*i+5] &= 0x1FFF;
    3118:	01d7f7b3          	and	a5,a5,t4
    311c:	fef52a23          	sw	a5,-12(a0)
    r->coeffs[8*i+6]  = a[13*i+9] >> 6;
    3120:	ffc5cf83          	lbu	t6,-4(a1)
    r->coeffs[8*i+5] = (1 << (D-1)) - r->coeffs[8*i+5];
    3124:	40fe0733          	sub	a4,t3,a5
    r->coeffs[8*i+6]  = a[13*i+9] >> 6;
    3128:	006fd793          	srli	a5,t6,0x6
    312c:	fef52c23          	sw	a5,-8(a0)
    r->coeffs[8*i+6] |= (uint32_t)a[13*i+10] << 2;
    3130:	ffd5cf83          	lbu	t6,-3(a1)
    3134:	002f9f93          	slli	t6,t6,0x2
    3138:	00ffefb3          	or	t6,t6,a5
    313c:	fff52c23          	sw	t6,-8(a0)
    r->coeffs[8*i+6] |= (uint32_t)a[13*i+11] << 10;
    3140:	ffe5c783          	lbu	a5,-2(a1)
    3144:	00a79793          	slli	a5,a5,0xa
    3148:	01f7e7b3          	or	a5,a5,t6
    r->coeffs[8*i+6] &= 0x1FFF;
    314c:	01d7f7b3          	and	a5,a5,t4
    3150:	fef52c23          	sw	a5,-8(a0)
    r->coeffs[8*i+7]  = a[13*i+11] >> 3;
    3154:	ffe5c283          	lbu	t0,-2(a1)
    r->coeffs[8*i+6] = (1 << (D-1)) - r->coeffs[8*i+6];
    3158:	40fe07b3          	sub	a5,t3,a5
    r->coeffs[8*i+7]  = a[13*i+11] >> 3;
    315c:	0032d293          	srli	t0,t0,0x3
    3160:	fe552e23          	sw	t0,-4(a0)
    r->coeffs[8*i+7] |= (uint32_t)a[13*i+12] << 5;
    3164:	fff5cf83          	lbu	t6,-1(a1)
    r->coeffs[8*i+1] = (1 << (D-1)) - r->coeffs[8*i+1];
    3168:	ff152223          	sw	a7,-28(a0)
    r->coeffs[8*i+0] = (1 << (D-1)) - r->coeffs[8*i+0];
    316c:	fe652023          	sw	t1,-32(a0)
    r->coeffs[8*i+7] |= (uint32_t)a[13*i+12] << 5;
    3170:	005f9893          	slli	a7,t6,0x5
    3174:	0058e8b3          	or	a7,a7,t0
    r->coeffs[8*i+7] = (1 << (D-1)) - r->coeffs[8*i+7];
    3178:	411e08b3          	sub	a7,t3,a7
    r->coeffs[8*i+2] = (1 << (D-1)) - r->coeffs[8*i+2];
    317c:	ff052423          	sw	a6,-24(a0)
    r->coeffs[8*i+3] = (1 << (D-1)) - r->coeffs[8*i+3];
    3180:	fec52623          	sw	a2,-20(a0)
    r->coeffs[8*i+4] = (1 << (D-1)) - r->coeffs[8*i+4];
    3184:	fed52823          	sw	a3,-16(a0)
    r->coeffs[8*i+5] = (1 << (D-1)) - r->coeffs[8*i+5];
    3188:	fee52a23          	sw	a4,-12(a0)
    r->coeffs[8*i+6] = (1 << (D-1)) - r->coeffs[8*i+6];
    318c:	fef52c23          	sw	a5,-8(a0)
    r->coeffs[8*i+7] = (1 << (D-1)) - r->coeffs[8*i+7];
    3190:	ff152e23          	sw	a7,-4(a0)
  for(i = 0; i < N/8; ++i) {
    3194:	e8bf12e3          	bne	t5,a1,3018 <pqcrystals_dilithium5_ref_polyt0_unpack+0x10>
  }

  DBENCH_STOP(*tpack);
}
    3198:	00008067          	ret

0000319c <pqcrystals_dilithium5_ref_polyz_pack>:
    r[9*i+6] |= t[3] << 6;
    r[9*i+7]  = t[3] >> 2;
    r[9*i+8]  = t[3] >> 10;
  }
#elif GAMMA1 == (1 << 19)
  for(i = 0; i < N/2; ++i) {
    319c:	28050313          	addi	t1,a0,640
    t[0] = GAMMA1 - a->coeffs[2*i+0];
    31a0:	00080637          	lui	a2,0x80
    31a4:	0005a703          	lw	a4,0(a1)
    t[1] = GAMMA1 - a->coeffs[2*i+1];
    31a8:	0045a783          	lw	a5,4(a1)
  for(i = 0; i < N/2; ++i) {
    31ac:	00550513          	addi	a0,a0,5
    t[0] = GAMMA1 - a->coeffs[2*i+0];
    31b0:	40e60733          	sub	a4,a2,a4
    t[1] = GAMMA1 - a->coeffs[2*i+1];
    31b4:	40f607b3          	sub	a5,a2,a5

    r[5*i+0]  = t[0];
    r[5*i+1]  = t[0] >> 8;
    r[5*i+2]  = t[0] >> 16;
    r[5*i+2] |= t[1] << 4;
    31b8:	00479813          	slli	a6,a5,0x4
    r[5*i+2]  = t[0] >> 16;
    31bc:	01075693          	srli	a3,a4,0x10
    r[5*i+2] |= t[1] << 4;
    31c0:	0106e6b3          	or	a3,a3,a6
    r[5*i+1]  = t[0] >> 8;
    31c4:	00875893          	srli	a7,a4,0x8
    r[5*i+3]  = t[1] >> 4;
    31c8:	0047d813          	srli	a6,a5,0x4
    r[5*i+4]  = t[1] >> 12;
    31cc:	00c7d793          	srli	a5,a5,0xc
    r[5*i+0]  = t[0];
    31d0:	fee50da3          	sb	a4,-5(a0)
    r[5*i+1]  = t[0] >> 8;
    31d4:	ff150e23          	sb	a7,-4(a0)
    r[5*i+2] |= t[1] << 4;
    31d8:	fed50ea3          	sb	a3,-3(a0)
    r[5*i+3]  = t[1] >> 4;
    31dc:	ff050f23          	sb	a6,-2(a0)
    r[5*i+4]  = t[1] >> 12;
    31e0:	fef50fa3          	sb	a5,-1(a0)
  for(i = 0; i < N/2; ++i) {
    31e4:	00858593          	addi	a1,a1,8
    31e8:	faa31ee3          	bne	t1,a0,31a4 <pqcrystals_dilithium5_ref_polyz_pack+0x8>
  }
#endif

  DBENCH_STOP(*tpack);
}
    31ec:	00008067          	ret

000031f0 <pqcrystals_dilithium5_ref_polyz_unpack>:
#elif GAMMA1 == (1 << 19)
  for(i = 0; i < N/2; ++i) {
    r->coeffs[2*i+0]  = a[5*i+0];
    r->coeffs[2*i+0] |= (uint32_t)a[5*i+1] << 8;
    r->coeffs[2*i+0] |= (uint32_t)a[5*i+2] << 16;
    r->coeffs[2*i+0] &= 0xFFFFF;
    31f0:	00100837          	lui	a6,0x100
    31f4:	28058893          	addi	a7,a1,640
    31f8:	fff80813          	addi	a6,a6,-1 # fffff <_end_of_memory+0xcffff>
    r->coeffs[2*i+1]  = a[5*i+2] >> 4;
    r->coeffs[2*i+1] |= (uint32_t)a[5*i+3] << 4;
    r->coeffs[2*i+1] |= (uint32_t)a[5*i+4] << 12;
    r->coeffs[2*i+0] &= 0xFFFFF;

    r->coeffs[2*i+0] = GAMMA1 - r->coeffs[2*i+0];
    31fc:	00080637          	lui	a2,0x80
    r->coeffs[2*i+0]  = a[5*i+0];
    3200:	0005c783          	lbu	a5,0(a1)
  for(i = 0; i < N/2; ++i) {
    3204:	00558593          	addi	a1,a1,5
    3208:	00850513          	addi	a0,a0,8
    r->coeffs[2*i+0]  = a[5*i+0];
    320c:	fef52c23          	sw	a5,-8(a0)
    r->coeffs[2*i+0] |= (uint32_t)a[5*i+1] << 8;
    3210:	ffc5c703          	lbu	a4,-4(a1)
    3214:	00871713          	slli	a4,a4,0x8
    3218:	00f76733          	or	a4,a4,a5
    321c:	fee52c23          	sw	a4,-8(a0)
    r->coeffs[2*i+0] |= (uint32_t)a[5*i+2] << 16;
    3220:	ffd5c783          	lbu	a5,-3(a1)
    3224:	01079793          	slli	a5,a5,0x10
    3228:	00e7e7b3          	or	a5,a5,a4
    r->coeffs[2*i+0] &= 0xFFFFF;
    322c:	0107f7b3          	and	a5,a5,a6
    3230:	fef52c23          	sw	a5,-8(a0)
    r->coeffs[2*i+1]  = a[5*i+2] >> 4;
    3234:	ffd5c703          	lbu	a4,-3(a1)
    r->coeffs[2*i+0] = GAMMA1 - r->coeffs[2*i+0];
    3238:	40f607b3          	sub	a5,a2,a5
    r->coeffs[2*i+1]  = a[5*i+2] >> 4;
    323c:	00475713          	srli	a4,a4,0x4
    3240:	fee52e23          	sw	a4,-4(a0)
    r->coeffs[2*i+1] |= (uint32_t)a[5*i+3] << 4;
    3244:	ffe5c683          	lbu	a3,-2(a1)
    3248:	00469693          	slli	a3,a3,0x4
    324c:	00e6e6b3          	or	a3,a3,a4
    3250:	fed52e23          	sw	a3,-4(a0)
    r->coeffs[2*i+1] |= (uint32_t)a[5*i+4] << 12;
    3254:	fff5c703          	lbu	a4,-1(a1)
    r->coeffs[2*i+0] = GAMMA1 - r->coeffs[2*i+0];
    3258:	fef52c23          	sw	a5,-8(a0)
    r->coeffs[2*i+1] |= (uint32_t)a[5*i+4] << 12;
    325c:	00c71793          	slli	a5,a4,0xc
    3260:	00d7e7b3          	or	a5,a5,a3
    r->coeffs[2*i+1] = GAMMA1 - r->coeffs[2*i+1];
    3264:	40f607b3          	sub	a5,a2,a5
    3268:	fef52e23          	sw	a5,-4(a0)
  for(i = 0; i < N/2; ++i) {
    326c:	f9159ae3          	bne	a1,a7,3200 <pqcrystals_dilithium5_ref_polyz_unpack+0x10>
  }
#endif

  DBENCH_STOP(*tpack);
}
    3270:	00008067          	ret

00003274 <pqcrystals_dilithium5_ref_poly_uniform_gamma1>:
{
    3274:	c7010113          	addi	sp,sp,-912
    3278:	38812423          	sw	s0,904(sp)
    327c:	00050413          	mv	s0,a0
  stream256_init(&state, seed, nonce);
    3280:	00810513          	addi	a0,sp,8
{
    3284:	38112623          	sw	ra,908(sp)
  stream256_init(&state, seed, nonce);
    3288:	7bd030ef          	jal	ra,7244 <pqcrystals_dilithium5_ref_dilithium_shake256_stream_init>
  stream256_squeezeblocks(buf, POLY_UNIFORM_GAMMA1_NBLOCKS, &state);
    328c:	00810613          	addi	a2,sp,8
    3290:	0d810513          	addi	a0,sp,216
    3294:	00500593          	li	a1,5
    3298:	51c030ef          	jal	ra,67b4 <pqcrystals_dilithium_fips202_ref_shake256_squeezeblocks>
  polyz_unpack(a, buf);
    329c:	0d810593          	addi	a1,sp,216
    32a0:	00040513          	mv	a0,s0
    32a4:	f4dff0ef          	jal	ra,31f0 <pqcrystals_dilithium5_ref_polyz_unpack>
}
    32a8:	38c12083          	lw	ra,908(sp)
    32ac:	38812403          	lw	s0,904(sp)
    32b0:	39010113          	addi	sp,sp,912
    32b4:	00008067          	ret

000032b8 <pqcrystals_dilithium5_ref_polyw1_pack>:
    r[3*i+1] |= a->coeffs[4*i+2] << 4;
    r[3*i+2]  = a->coeffs[4*i+2] >> 4;
    r[3*i+2] |= a->coeffs[4*i+3] << 2;
  }
#elif GAMMA2 == (Q-1)/32
  for(i = 0; i < N/2; ++i)
    32b8:	40058693          	addi	a3,a1,1024
    r[i] = a->coeffs[2*i+0] | (a->coeffs[2*i+1] << 4);
    32bc:	0045a783          	lw	a5,4(a1)
    32c0:	0005a703          	lw	a4,0(a1)
  for(i = 0; i < N/2; ++i)
    32c4:	00858593          	addi	a1,a1,8
    r[i] = a->coeffs[2*i+0] | (a->coeffs[2*i+1] << 4);
    32c8:	00479793          	slli	a5,a5,0x4
    32cc:	00e7e7b3          	or	a5,a5,a4
    32d0:	00f50023          	sb	a5,0(a0)
  for(i = 0; i < N/2; ++i)
    32d4:	00150513          	addi	a0,a0,1
    32d8:	feb692e3          	bne	a3,a1,32bc <pqcrystals_dilithium5_ref_polyw1_pack+0x4>
#endif

  DBENCH_STOP(*tpack);
}
    32dc:	00008067          	ret

000032e0 <pqcrystals_dilithium5_ref_ntt>:
* Description: Forward NTT, in-place. No modular reduction is performed after
*              additions or subtractions. Output vector is in bitreversed order.
*
* Arguments:   - uint32_t p[N]: input/output coefficient array
**************************************************/
void ntt(int32_t a[N]) {
    32e0:	fe010113          	addi	sp,sp,-32
    32e4:	01312a23          	sw	s3,20(sp)
    32e8:	01912223          	sw	s9,4(sp)
    32ec:	00912e23          	sw	s1,28(sp)
    32f0:	01212c23          	sw	s2,24(sp)
    32f4:	01412823          	sw	s4,16(sp)
    32f8:	01612623          	sw	s6,12(sp)
    32fc:	01712423          	sw	s7,8(sp)
  #else
  unsigned int len, start, j, k;
  int32_t zeta, t;
  #endif

  k = 0;
    3300:	00000993          	li	s3,0
  for(len = 128; len > 0; len >>= 1) {
    3304:	08000c93          	li	s9,128
    3308:	00005617          	auipc	a2,0x5
    330c:	3d860613          	addi	a2,a2,984 # 86e0 <zetas>
    for(start = 0; start < N; start = j + len) {
    3310:	0ff00693          	li	a3,255
      zeta = zetas[++k];
      for(j = start; j < start + len; ++j) {
    3314:	000c8713          	mv	a4,s9
    for(start = 0; start < N; start = j + len) {
    3318:	00000493          	li	s1,0
      zeta = zetas[++k];
    331c:	00198993          	addi	s3,s3,1
    3320:	00299793          	slli	a5,s3,0x2
      for(j = start; j < start + len; ++j) {
    3324:	00048913          	mv	s2,s1
      zeta = zetas[++k];
    3328:	00f607b3          	add	a5,a2,a5
      for(j = start; j < start + len; ++j) {
    332c:	00e484b3          	add	s1,s1,a4
      zeta = zetas[++k];
    3330:	0007aa03          	lw	s4,0(a5)
      for(j = start; j < start + len; ++j) {
    3334:	04997663          	bgeu	s2,s1,3380 <pqcrystals_dilithium5_ref_ntt+0xa0>
        #ifdef FPAU
        //coeff0 = a[j];
        //coeff1 = a[j + len];

        // load coeff0
        asm volatile("mv t0, s2");
    3338:	00090293          	mv	t0,s2
        asm volatile("slli t0, t0, 0x2");
    333c:	00229293          	slli	t0,t0,0x2
        asm volatile("add t0, a0, t0");
    3340:	005502b3          	add	t0,a0,t0
        asm volatile("lw s6, 0(t0)");
    3344:	0002ab03          	lw	s6,0(t0) # 16000 <_gp+0xc9ec>

        // load coeff1
        asm volatile("add t1, s2, s9");
    3348:	01990333          	add	t1,s2,s9
        asm volatile("slli t1, t1, 0x2");
    334c:	00231313          	slli	t1,t1,0x2
        asm volatile("add t1, a0, t1");
    3350:	00650333          	add	t1,a0,t1
        asm volatile("lw s7, 0(t1)");
    3354:	00032b83          	lw	s7,0(t1)

        // Compute butterfly operation
#ifndef STEEL
        asm volatile ("nop"); //ORCA
    3358:	00000013          	nop
        asm volatile ("nop"); //ORCA
    335c:	00000013          	nop
        asm volatile ("nop"); //ORCA
    3360:	00000013          	nop
#endif
        asm volatile("fpau.dil.bf %0, %1,%2\n":"=r"(coeff0):"r"(coeff1),"r"(zeta): );
    3364:	614bab33          	fpau.dil.bf	s6,s7,s4
        
        // Store results in same position
        asm volatile("sw s6, 0(t0)");
    3368:	0162a023          	sw	s6,0(t0)
        asm volatile("nop"); //ORCA and STEEL (2nd output written in next cycle)
    336c:	00000013          	nop
        asm volatile("sw s7, 0(t1)");
    3370:	01732023          	sw	s7,0(t1)
      for(j = start; j < start + len; ++j) {
    3374:	00190913          	addi	s2,s2,1 # 2001 <pqcrystals_dilithium5_ref_polyveck_shiftl+0x39>
    3378:	fc9960e3          	bltu	s2,s1,3338 <pqcrystals_dilithium5_ref_ntt+0x58>
    for(start = 0; start < N; start = j + len) {
    337c:	00e904b3          	add	s1,s2,a4
    3380:	f896fee3          	bgeu	a3,s1,331c <pqcrystals_dilithium5_ref_ntt+0x3c>
  for(len = 128; len > 0; len >>= 1) {
    3384:	001cdc93          	srli	s9,s9,0x1
    3388:	f80c96e3          	bnez	s9,3314 <pqcrystals_dilithium5_ref_ntt+0x34>
        a[j] = a[j] + t;
        #endif
      }
    }
  }
}
    338c:	01c12483          	lw	s1,28(sp)
    3390:	01812903          	lw	s2,24(sp)
    3394:	01412983          	lw	s3,20(sp)
    3398:	01012a03          	lw	s4,16(sp)
    339c:	00c12b03          	lw	s6,12(sp)
    33a0:	00812b83          	lw	s7,8(sp)
    33a4:	00412c83          	lw	s9,4(sp)
    33a8:	02010113          	addi	sp,sp,32
    33ac:	00008067          	ret

000033b0 <pqcrystals_dilithium5_ref_invntt_tomont>:
*              Q in absolute value. Output coefficient are smaller than Q in
*              absolute value.
*
* Arguments:   - uint32_t p[N]: input/output coefficient array
**************************************************/
void invntt_tomont(int32_t a[N]) {
    33b0:	fe010113          	addi	sp,sp,-32
    33b4:	01312a23          	sw	s3,20(sp)
    33b8:	01912223          	sw	s9,4(sp)
    33bc:	00912e23          	sw	s1,28(sp)
    33c0:	01212c23          	sw	s2,24(sp)
    33c4:	01412823          	sw	s4,16(sp)
    33c8:	01612623          	sw	s6,12(sp)
    33cc:	01712423          	sw	s7,8(sp)
  unsigned int start, len, j, k;
  int32_t t, zeta;
  const int32_t f = 41978; // mont^2/256
#endif

  k = 256;
    33d0:	10000993          	li	s3,256
  for(len = 1; len < N; len <<= 1) {
    33d4:	00100c93          	li	s9,1
    33d8:	00005617          	auipc	a2,0x5
    33dc:	30860613          	addi	a2,a2,776 # 86e0 <zetas>
    for(start = 0; start < N; start = j + len) {
    33e0:	0ff00693          	li	a3,255
      zeta = -zetas[--k];
      for(j = start; j < start + len; ++j) {
    33e4:	000c8713          	mv	a4,s9
    for(start = 0; start < N; start = j + len) {
    33e8:	00000493          	li	s1,0
      zeta = -zetas[--k];
    33ec:	fff98993          	addi	s3,s3,-1
    33f0:	00299793          	slli	a5,s3,0x2
    33f4:	00f607b3          	add	a5,a2,a5
    33f8:	0007aa03          	lw	s4,0(a5)
      for(j = start; j < start + len; ++j) {
    33fc:	00048913          	mv	s2,s1
    3400:	00e484b3          	add	s1,s1,a4
      zeta = -zetas[--k];
    3404:	41400a33          	neg	s4,s4
      for(j = start; j < start + len; ++j) {
    3408:	04997663          	bgeu	s2,s1,3454 <pqcrystals_dilithium5_ref_invntt_tomont+0xa4>
#ifdef FPAU
        //coeff0 = a[j];
        //coeff1 = a[j + len];

        // load coeff0
        asm volatile("mv t0, s2");
    340c:	00090293          	mv	t0,s2
        asm volatile("slli t0, t0, 0x2");
    3410:	00229293          	slli	t0,t0,0x2
        asm volatile("add t0, a0, t0");
    3414:	005502b3          	add	t0,a0,t0
        asm volatile("lw s6, 0(t0)");
    3418:	0002ab03          	lw	s6,0(t0)

        // load coeff1
        asm volatile("add t1, s2, s9");
    341c:	01990333          	add	t1,s2,s9
        asm volatile("slli t1, t1, 0x2");
    3420:	00231313          	slli	t1,t1,0x2
        asm volatile("add t1, a0, t1");
    3424:	00650333          	add	t1,a0,t1
        asm volatile("lw s7, 0(t1)");
    3428:	00032b83          	lw	s7,0(t1)

        // Compute butterfly operation
#ifndef STEEL
        asm volatile ("nop"); //ORCA
    342c:	00000013          	nop
        asm volatile ("nop"); //ORCA
    3430:	00000013          	nop
        asm volatile ("nop"); //ORCA cached
    3434:	00000013          	nop
#endif
        asm volatile("fpau.dil.bfinv %0, %1,%2\n":"=r"(coeff0):"r"(coeff1),"r"(zeta): );
    3438:	714bab33          	fpau.dil.bfinv	s6,s7,s4

        // Store results in same position
        asm volatile("sw s6, 0(t0)");
    343c:	0162a023          	sw	s6,0(t0)
        asm volatile("nop"); //ORCA and STEEL (2nd output written in next cycle)
    3440:	00000013          	nop
        asm volatile("sw s7, 0(t1)");
    3444:	01732023          	sw	s7,0(t1)
      for(j = start; j < start + len; ++j) {
    3448:	00190913          	addi	s2,s2,1
    344c:	fc9960e3          	bltu	s2,s1,340c <pqcrystals_dilithium5_ref_invntt_tomont+0x5c>
    for(start = 0; start < N; start = j + len) {
    3450:	00e904b3          	add	s1,s2,a4
    3454:	f896fce3          	bgeu	a3,s1,33ec <pqcrystals_dilithium5_ref_invntt_tomont+0x3c>
  for(len = 1; len < N; len <<= 1) {
    3458:	001c9c93          	slli	s9,s9,0x1
    345c:	f996f4e3          	bgeu	a3,s9,33e4 <pqcrystals_dilithium5_ref_invntt_tomont+0x34>
#ifndef STEEL
        asm volatile("nop"); //ORCA
        asm volatile("nop"); //ORCA
        asm volatile("nop"); //ORCA
#endif
        asm volatile("fpau.dil.bfinv %0, %1,%2\n":"=r"(coeff0):"r"(coeff1),"r"(ninv): );  //bfinv instead of mac to not overwrite ninv constant
    3460:	007f67b7          	lui	a5,0x7f6
  for(j = 0; j < N; ++j) {
    3464:	00000913          	li	s2,0
        asm volatile("fpau.dil.bfinv %0, %1,%2\n":"=r"(coeff0):"r"(coeff1),"r"(ninv): );  //bfinv instead of mac to not overwrite ninv constant
    3468:	02178793          	addi	a5,a5,33 # 7f6021 <_end_of_memory+0x7c6021>
  for(j = 0; j < N; ++j) {
    346c:	0ff00713          	li	a4,255
        asm volatile("mv t0, s2");
    3470:	00090293          	mv	t0,s2
        asm volatile("slli t0, t0, 0x2");
    3474:	00229293          	slli	t0,t0,0x2
        asm volatile("add t0, a0, t0");
    3478:	005502b3          	add	t0,a0,t0
        asm volatile("lw s6, 0(t0)");
    347c:	0002ab03          	lw	s6,0(t0)
        asm volatile("li s7, 0"); // coeff1
    3480:	00000b93          	li	s7,0
        asm volatile("nop"); //ORCA
    3484:	00000013          	nop
        asm volatile("nop"); //ORCA
    3488:	00000013          	nop
        asm volatile("nop"); //ORCA
    348c:	00000013          	nop
        asm volatile("fpau.dil.bfinv %0, %1,%2\n":"=r"(coeff0):"r"(coeff1),"r"(ninv): );  //bfinv instead of mac to not overwrite ninv constant
    3490:	70fbab33          	fpau.dil.bfinv	s6,s7,a5
        asm volatile("nop");
    3494:	00000013          	nop
        asm volatile("nop"); //ORCA and STEEL (2nd output written in next cycle)
    3498:	00000013          	nop

        // store result
        asm volatile("sw s7, 0(t0)");
    349c:	0172a023          	sw	s7,0(t0)
  for(j = 0; j < N; ++j) {
    34a0:	00190913          	addi	s2,s2,1
    34a4:	fd2776e3          	bgeu	a4,s2,3470 <pqcrystals_dilithium5_ref_invntt_tomont+0xc0>
#else
  for(j = 0; j < N; ++j) {
    a[j] = montgomery_reduce((int64_t)f * a[j]);
  }
#endif
}
    34a8:	01c12483          	lw	s1,28(sp)
    34ac:	01812903          	lw	s2,24(sp)
    34b0:	01412983          	lw	s3,20(sp)
    34b4:	01012a03          	lw	s4,16(sp)
    34b8:	00c12b03          	lw	s6,12(sp)
    34bc:	00812b83          	lw	s7,8(sp)
    34c0:	00412c83          	lw	s9,4(sp)
    34c4:	02010113          	addi	sp,sp,32
    34c8:	00008067          	ret

000034cc <pqcrystals_dilithium5_ref_montgomery_reduce>:
* Returns r.
**************************************************/
int32_t montgomery_reduce(int64_t a) {
  int32_t t;

  t = (int64_t)(int32_t)a*QINV;
    34cc:	03802737          	lui	a4,0x3802
    34d0:	00170713          	addi	a4,a4,1 # 3802001 <_end_of_memory+0x37d2001>
    34d4:	02e50733          	mul	a4,a0,a4
  t = (a - (int64_t)t*Q) >> 32;
    34d8:	41f75813          	srai	a6,a4,0x1f
    34dc:	01675613          	srli	a2,a4,0x16
    34e0:	00a81793          	slli	a5,a6,0xa
    34e4:	00a71693          	slli	a3,a4,0xa
    34e8:	40d706b3          	sub	a3,a4,a3
    34ec:	00f667b3          	or	a5,a2,a5
    34f0:	40f807b3          	sub	a5,a6,a5
    34f4:	00d73633          	sltu	a2,a4,a3
    34f8:	40c787b3          	sub	a5,a5,a2
    34fc:	00d79793          	slli	a5,a5,0xd
    3500:	00d69613          	slli	a2,a3,0xd
    3504:	0136d693          	srli	a3,a3,0x13
    3508:	40e60733          	sub	a4,a2,a4
    350c:	00f6e7b3          	or	a5,a3,a5
    3510:	00e63633          	sltu	a2,a2,a4
    3514:	410787b3          	sub	a5,a5,a6
    3518:	40c787b3          	sub	a5,a5,a2
    351c:	00a70533          	add	a0,a4,a0
    3520:	00e53533          	sltu	a0,a0,a4
    3524:	00b787b3          	add	a5,a5,a1
  return t;
}
    3528:	00f50533          	add	a0,a0,a5
    352c:	00008067          	ret

00003530 <pqcrystals_dilithium5_ref_reduce32>:
* Returns r.
**************************************************/
int32_t reduce32(int32_t a) {
  int32_t t;

  t = (a + (1 << 22)) >> 23;
    3530:	004007b7          	lui	a5,0x400
    3534:	00f507b3          	add	a5,a0,a5
  t = a - t*Q;
    3538:	ff802737          	lui	a4,0xff802
    353c:	fff70713          	addi	a4,a4,-1 # ff801fff <_end_of_memory+0xff7d1fff>
  t = (a + (1 << 22)) >> 23;
    3540:	4177d793          	srai	a5,a5,0x17
  t = a - t*Q;
    3544:	02e787b3          	mul	a5,a5,a4
  return t;
}
    3548:	00a78533          	add	a0,a5,a0
    354c:	00008067          	ret

00003550 <pqcrystals_dilithium5_ref_caddq>:
* Arguments:   - int32_t: finite field element a
*
* Returns r.
**************************************************/
int32_t caddq(int32_t a) {
  a += (a >> 31) & Q;
    3550:	007fe737          	lui	a4,0x7fe
    3554:	41f55793          	srai	a5,a0,0x1f
    3558:	00170713          	addi	a4,a4,1 # 7fe001 <_end_of_memory+0x7ce001>
    355c:	00e7f7b3          	and	a5,a5,a4
  return a;
}
    3560:	00a78533          	add	a0,a5,a0
    3564:	00008067          	ret

00003568 <pqcrystals_dilithium5_ref_freeze>:
  t = (a + (1 << 22)) >> 23;
    3568:	004007b7          	lui	a5,0x400
    356c:	00f507b3          	add	a5,a0,a5
  t = a - t*Q;
    3570:	ff802737          	lui	a4,0xff802
    3574:	fff70713          	addi	a4,a4,-1 # ff801fff <_end_of_memory+0xff7d1fff>
  t = (a + (1 << 22)) >> 23;
    3578:	4177d793          	srai	a5,a5,0x17
  t = a - t*Q;
    357c:	02e787b3          	mul	a5,a5,a4
  a += (a >> 31) & Q;
    3580:	007fe737          	lui	a4,0x7fe
    3584:	00170713          	addi	a4,a4,1 # 7fe001 <_end_of_memory+0x7ce001>
  t = a - t*Q;
    3588:	00f50533          	add	a0,a0,a5
  a += (a >> 31) & Q;
    358c:	41f55793          	srai	a5,a0,0x1f
    3590:	00e7f7b3          	and	a5,a5,a4
**************************************************/
int32_t freeze(int32_t a) {
  a = reduce32(a);
  a = caddq(a);
  return a;
}
    3594:	00a78533          	add	a0,a5,a0
    3598:	00008067          	ret

0000359c <pqcrystals_dilithium5_ref_power2round>:
* Returns a1.
**************************************************/
int32_t power2round(int32_t *a0, int32_t a)  {
  int32_t a1;

  a1 = (a + (1 << (D-1)) - 1) >> D;
    359c:	000017b7          	lui	a5,0x1
    35a0:	fff78793          	addi	a5,a5,-1 # fff <pqcrystals_dilithium5_ref_pack_pk+0x83>
    35a4:	00f587b3          	add	a5,a1,a5
  *a0 = a - (a1 << D);
    35a8:	ffffe737          	lui	a4,0xffffe
    35ac:	00e7f733          	and	a4,a5,a4
    35b0:	40e585b3          	sub	a1,a1,a4
    35b4:	00b52023          	sw	a1,0(a0)
  return a1;
}
    35b8:	40d7d513          	srai	a0,a5,0xd
    35bc:	00008067          	ret

000035c0 <pqcrystals_dilithium5_ref_decompose>:
* Returns a1.
**************************************************/
int32_t decompose(int32_t *a0, int32_t a) {
  int32_t a1;

  a1  = (a + 127) >> 7;
    35c0:	07f58713          	addi	a4,a1,127
    35c4:	40775713          	srai	a4,a4,0x7
#if GAMMA2 == (Q-1)/32
  a1  = (a1*1025 + (1 << 21)) >> 22;
    35c8:	00a71793          	slli	a5,a4,0xa
    35cc:	00e787b3          	add	a5,a5,a4
    35d0:	00200737          	lui	a4,0x200
    35d4:	00e787b3          	add	a5,a5,a4
    35d8:	4167d793          	srai	a5,a5,0x16
  a1 &= 15;
    35dc:	00f7f793          	andi	a5,a5,15
#elif GAMMA2 == (Q-1)/88
  a1  = (a1*11275 + (1 << 23)) >> 24;
  a1 ^= ((43 - a1) >> 31) & a1;
#endif

  *a0  = a - a1*2*GAMMA2;
    35e0:	00a79713          	slli	a4,a5,0xa
    35e4:	40e78733          	sub	a4,a5,a4
    35e8:	00971713          	slli	a4,a4,0x9
    35ec:	00b705b3          	add	a1,a4,a1
  *a0 -= (((Q-1)/2 - *a0) >> 31) & Q;
    35f0:	003ff737          	lui	a4,0x3ff
    35f4:	40b70733          	sub	a4,a4,a1
    35f8:	007fe6b7          	lui	a3,0x7fe
    35fc:	00168693          	addi	a3,a3,1 # 7fe001 <_end_of_memory+0x7ce001>
    3600:	41f75713          	srai	a4,a4,0x1f
    3604:	00d77733          	and	a4,a4,a3
    3608:	40e585b3          	sub	a1,a1,a4
    360c:	00b52023          	sw	a1,0(a0)
  return a1;
}
    3610:	00078513          	mv	a0,a5
    3614:	00008067          	ret

00003618 <pqcrystals_dilithium5_ref_make_hint>:
*              - int32_t a1: high bits of input element
*
* Returns 1 if overflow.
**************************************************/
unsigned int make_hint(int32_t a0, int32_t a1) {
  if(a0 > GAMMA2 || a0 < -GAMMA2 || (a0 == -GAMMA2 && a1 != 0))
    3618:	000407b7          	lui	a5,0x40
    361c:	f0078793          	addi	a5,a5,-256 # 3ff00 <_end_of_memory+0xff00>
    3620:	000806b7          	lui	a3,0x80
    3624:	00f507b3          	add	a5,a0,a5
    3628:	e0068693          	addi	a3,a3,-512 # 7fe00 <_end_of_memory+0x4fe00>
unsigned int make_hint(int32_t a0, int32_t a1) {
    362c:	00050713          	mv	a4,a0
  if(a0 > GAMMA2 || a0 < -GAMMA2 || (a0 == -GAMMA2 && a1 != 0))
    3630:	02f6e063          	bltu	a3,a5,3650 <pqcrystals_dilithium5_ref_make_hint+0x38>
    3634:	fffc07b7          	lui	a5,0xfffc0
    3638:	10078793          	addi	a5,a5,256 # fffc0100 <_end_of_memory+0xfff90100>
    return 1;

  return 0;
    363c:	00000513          	li	a0,0
  if(a0 > GAMMA2 || a0 < -GAMMA2 || (a0 == -GAMMA2 && a1 != 0))
    3640:	00f70463          	beq	a4,a5,3648 <pqcrystals_dilithium5_ref_make_hint+0x30>
}
    3644:	00008067          	ret
  if(a0 > GAMMA2 || a0 < -GAMMA2 || (a0 == -GAMMA2 && a1 != 0))
    3648:	00b03533          	snez	a0,a1
    364c:	00008067          	ret
    return 1;
    3650:	00100513          	li	a0,1
}
    3654:	00008067          	ret

00003658 <pqcrystals_dilithium5_ref_use_hint>:
  a1  = (a + 127) >> 7;
    3658:	07f50713          	addi	a4,a0,127
    365c:	40775713          	srai	a4,a4,0x7
  a1  = (a1*1025 + (1 << 21)) >> 22;
    3660:	00a71793          	slli	a5,a4,0xa
    3664:	00e787b3          	add	a5,a5,a4
    3668:	00200737          	lui	a4,0x200
    366c:	00e787b3          	add	a5,a5,a4
    3670:	4167d793          	srai	a5,a5,0x16
* Arguments:   - int32_t a: input element
*              - unsigned int hint: hint bit
*
* Returns corrected high bits.
**************************************************/
int32_t use_hint(int32_t a, unsigned int hint) {
    3674:	00050693          	mv	a3,a0
  a1 &= 15;
    3678:	00f7f513          	andi	a0,a5,15
  int32_t a0, a1;

  a1 = decompose(&a0, a);
  if(hint == 0)
    367c:	04058263          	beqz	a1,36c0 <pqcrystals_dilithium5_ref_use_hint+0x68>
  *a0  = a - a1*2*GAMMA2;
    3680:	00a51793          	slli	a5,a0,0xa
    3684:	40f507b3          	sub	a5,a0,a5
    3688:	00979793          	slli	a5,a5,0x9
    368c:	00d787b3          	add	a5,a5,a3
  *a0 -= (((Q-1)/2 - *a0) >> 31) & Q;
    3690:	003ff737          	lui	a4,0x3ff
    3694:	40f70733          	sub	a4,a4,a5
    3698:	007fe6b7          	lui	a3,0x7fe
    369c:	41f75713          	srai	a4,a4,0x1f
    36a0:	00168693          	addi	a3,a3,1 # 7fe001 <_end_of_memory+0x7ce001>
    36a4:	00d77733          	and	a4,a4,a3
    return a1;

#if GAMMA2 == (Q-1)/32
  if(a0 > 0)
    36a8:	00f75863          	bge	a4,a5,36b8 <pqcrystals_dilithium5_ref_use_hint+0x60>
    return (a1 + 1) & 15;
    36ac:	00150513          	addi	a0,a0,1
    36b0:	00f57513          	andi	a0,a0,15
    36b4:	00008067          	ret
  else
    return (a1 - 1) & 15;
    36b8:	fff50513          	addi	a0,a0,-1
    36bc:	00f57513          	andi	a0,a0,15
  if(a0 > 0)
    return (a1 == 43) ?  0 : a1 + 1;
  else
    return (a1 ==  0) ? 43 : a1 - 1;
#endif
}
    36c0:	00008067          	ret

000036c4 <itoa>:
char str[21] = {0};
char* pbuf = &str[0];

void itoa(char *buf, unsigned int d, int base)
{
	int div = 1;
    36c4:	00100793          	li	a5,1
	while (d/div >= base)
    36c8:	04c5ea63          	bltu	a1,a2,371c <itoa+0x58>
		div *= base;
    36cc:	02c787b3          	mul	a5,a5,a2
	while (d/div >= base)
    36d0:	02f5d6b3          	divu	a3,a1,a5
    36d4:	fec6fce3          	bgeu	a3,a2,36cc <itoa+0x8>

	while (div != 0)
    36d8:	02078e63          	beqz	a5,3714 <itoa+0x50>
	{
		int num = d/div;
		d = d%div;
		div /= base;
		if (num > 9)
    36dc:	00900893          	li	a7,9
    36e0:	0080006f          	j	36e8 <itoa+0x24>
    36e4:	02f5d6b3          	divu	a3,a1,a5
			*(buf++) = (num-10) + 'A';
    36e8:	0ff6f713          	zext.b	a4,a3
    36ec:	03770813          	addi	a6,a4,55 # 3ff037 <_end_of_memory+0x3cf037>
		else
			*(buf++) = num + '0';
    36f0:	03070713          	addi	a4,a4,48
			*(buf++) = (num-10) + 'A';
    36f4:	00150513          	addi	a0,a0,1
			*(buf++) = num + '0';
    36f8:	0ff77713          	zext.b	a4,a4
		d = d%div;
    36fc:	02f5f5b3          	remu	a1,a1,a5
		div /= base;
    3700:	02c7c7b3          	div	a5,a5,a2
		if (num > 9)
    3704:	00d8d463          	bge	a7,a3,370c <itoa+0x48>
			*(buf++) = (num-10) + 'A';
    3708:	0ff87713          	zext.b	a4,a6
    370c:	fee50fa3          	sb	a4,-1(a0)
	while (div != 0)
    3710:	fc079ae3          	bnez	a5,36e4 <itoa+0x20>
	}
  *(buf++) = '\0';
    3714:	00050023          	sb	zero,0(a0)
}
    3718:	00008067          	ret
    371c:	00058693          	mv	a3,a1
    3720:	fbdff06f          	j	36dc <itoa+0x18>

00003724 <print_runtime>:

void print_runtime(unsigned int cycle_start, unsigned int cycle_end)
{
  unsigned int clock_cycles = cycle_end - cycle_start;

  itoa(pbuf, cycle_start, 10);
    3724:	00005817          	auipc	a6,0x5
    3728:	6f080813          	addi	a6,a6,1776 # 8e14 <pbuf>
	while (d/div >= base)
    372c:	00900793          	li	a5,9
  itoa(pbuf, cycle_start, 10);
    3730:	00082883          	lw	a7,0(a6)
  unsigned int clock_cycles = cycle_end - cycle_start;
    3734:	40a58633          	sub	a2,a1,a0
	while (d/div >= base)
    3738:	24a7f063          	bgeu	a5,a0,3978 <print_runtime+0x254>
	int div = 1;
    373c:	00100793          	li	a5,1
	while (d/div >= base)
    3740:	00900693          	li	a3,9
		div *= base;
    3744:	00279713          	slli	a4,a5,0x2
    3748:	00f707b3          	add	a5,a4,a5
    374c:	00179793          	slli	a5,a5,0x1
	while (d/div >= base)
    3750:	02f55733          	divu	a4,a0,a5
    3754:	fee6e8e3          	bltu	a3,a4,3744 <print_runtime+0x20>
		div /= base;
    3758:	00a00e93          	li	t4,10
		if (num > 9)
    375c:	00900e13          	li	t3,9
		int num = d/div;
    3760:	02f55333          	divu	t1,a0,a5
			*(buf++) = (num-10) + 'A';
    3764:	00188893          	addi	a7,a7,1
    3768:	0ff37693          	zext.b	a3,t1
    376c:	03768713          	addi	a4,a3,55
		d = d%div;
    3770:	02f57533          	remu	a0,a0,a5
			*(buf++) = num + '0';
    3774:	03068693          	addi	a3,a3,48
			*(buf++) = (num-10) + 'A';
    3778:	0ff77713          	zext.b	a4,a4
		div /= base;
    377c:	03d7c7b3          	div	a5,a5,t4
		if (num > 9)
    3780:	006e4463          	blt	t3,t1,3788 <print_runtime+0x64>
			*(buf++) = num + '0';
    3784:	0ff6f713          	zext.b	a4,a3
    3788:	fee88fa3          	sb	a4,-1(a7)
	while (div != 0)
    378c:	fc079ae3          	bnez	a5,3760 <print_runtime+0x3c>
  *(buf++) = '\0';
    3790:	00088023          	sb	zero,0(a7)
  while (XUartChanged_IsTransmitFull(BaseAddress));
  X_mWriteReg(BaseAddress, PS7_UART_DATA_OUT_REGISTER, Data);
}

void uart_send_string(char *ptr) {
  while (*ptr) {
    3794:	02000513          	li	a0,32
  *(buf++) = '\0';
    3798:	00005697          	auipc	a3,0x5
    379c:	64468693          	addi	a3,a3,1604 # 8ddc <__clz_tab+0x200>
    while (XUartChanged_IsTransmitFull(BASE_ADDRESS_U));
    37a0:	e0001737          	lui	a4,0xe0001
    37a4:	02c72783          	lw	a5,44(a4) # e000102c <_end_of_memory+0xdffd102c>
    37a8:	0107f793          	andi	a5,a5,16
    37ac:	fe079ce3          	bnez	a5,37a4 <print_runtime+0x80>
    X_mWriteReg(BASE_ADDRESS_U, PS7_UART_DATA_OUT_REGISTER, *ptr++);
    37b0:	00168693          	addi	a3,a3,1
    37b4:	02a72823          	sw	a0,48(a4)
  while (*ptr) {
    37b8:	0006c503          	lbu	a0,0(a3)
    37bc:	fe0514e3          	bnez	a0,37a4 <print_runtime+0x80>
    37c0:	00005517          	auipc	a0,0x5
    37c4:	68850513          	addi	a0,a0,1672 # 8e48 <str>
    37c8:	00054683          	lbu	a3,0(a0)
    37cc:	00050893          	mv	a7,a0
    while (XUartChanged_IsTransmitFull(BASE_ADDRESS_U));
    37d0:	e0001737          	lui	a4,0xe0001
  while (*ptr) {
    37d4:	02068063          	beqz	a3,37f4 <print_runtime+0xd0>
    while (XUartChanged_IsTransmitFull(BASE_ADDRESS_U));
    37d8:	02c72783          	lw	a5,44(a4) # e000102c <_end_of_memory+0xdffd102c>
    37dc:	0107f793          	andi	a5,a5,16
    37e0:	fe079ce3          	bnez	a5,37d8 <print_runtime+0xb4>
    X_mWriteReg(BASE_ADDRESS_U, PS7_UART_DATA_OUT_REGISTER, *ptr++);
    37e4:	00188893          	addi	a7,a7,1
    37e8:	02d72823          	sw	a3,48(a4)
  while (*ptr) {
    37ec:	0008c683          	lbu	a3,0(a7)
    37f0:	fe0694e3          	bnez	a3,37d8 <print_runtime+0xb4>
	while (d/div >= base)
    37f4:	00900713          	li	a4,9
  itoa(pbuf, cycle_end, 10);
    37f8:	00082883          	lw	a7,0(a6)
	int div = 1;
    37fc:	00100793          	li	a5,1
	while (d/div >= base)
    3800:	00900693          	li	a3,9
    3804:	00b77c63          	bgeu	a4,a1,381c <print_runtime+0xf8>
		div *= base;
    3808:	00279713          	slli	a4,a5,0x2
    380c:	00f707b3          	add	a5,a4,a5
    3810:	00179793          	slli	a5,a5,0x1
	while (d/div >= base)
    3814:	02f5d733          	divu	a4,a1,a5
    3818:	fee6e8e3          	bltu	a3,a4,3808 <print_runtime+0xe4>
		div /= base;
    381c:	00a00e93          	li	t4,10
		if (num > 9)
    3820:	00900e13          	li	t3,9
		int num = d/div;
    3824:	02f5d333          	divu	t1,a1,a5
			*(buf++) = (num-10) + 'A';
    3828:	00188893          	addi	a7,a7,1
    382c:	0ff37693          	zext.b	a3,t1
    3830:	03768713          	addi	a4,a3,55
		d = d%div;
    3834:	02f5f5b3          	remu	a1,a1,a5
			*(buf++) = num + '0';
    3838:	03068693          	addi	a3,a3,48
			*(buf++) = (num-10) + 'A';
    383c:	0ff77713          	zext.b	a4,a4
		div /= base;
    3840:	03d7c7b3          	div	a5,a5,t4
		if (num > 9)
    3844:	006e4463          	blt	t3,t1,384c <print_runtime+0x128>
			*(buf++) = num + '0';
    3848:	0ff6f713          	zext.b	a4,a3
    384c:	fee88fa3          	sb	a4,-1(a7)
	while (div != 0)
    3850:	fc079ae3          	bnez	a5,3824 <print_runtime+0x100>
  *(buf++) = '\0';
    3854:	00088023          	sb	zero,0(a7)
  while (*ptr) {
    3858:	02000593          	li	a1,32
  *(buf++) = '\0';
    385c:	00005697          	auipc	a3,0x5
    3860:	59068693          	addi	a3,a3,1424 # 8dec <__clz_tab+0x210>
    while (XUartChanged_IsTransmitFull(BASE_ADDRESS_U));
    3864:	e0001737          	lui	a4,0xe0001
    3868:	02c72783          	lw	a5,44(a4) # e000102c <_end_of_memory+0xdffd102c>
    386c:	0107f793          	andi	a5,a5,16
    3870:	fe079ce3          	bnez	a5,3868 <print_runtime+0x144>
    X_mWriteReg(BASE_ADDRESS_U, PS7_UART_DATA_OUT_REGISTER, *ptr++);
    3874:	00168693          	addi	a3,a3,1
    3878:	02b72823          	sw	a1,48(a4)
  while (*ptr) {
    387c:	0006c583          	lbu	a1,0(a3)
    3880:	fe0594e3          	bnez	a1,3868 <print_runtime+0x144>
    3884:	00054683          	lbu	a3,0(a0)
    3888:	00005597          	auipc	a1,0x5
    388c:	5c058593          	addi	a1,a1,1472 # 8e48 <str>
    while (XUartChanged_IsTransmitFull(BASE_ADDRESS_U));
    3890:	e0001737          	lui	a4,0xe0001
  while (*ptr) {
    3894:	02068063          	beqz	a3,38b4 <print_runtime+0x190>
    while (XUartChanged_IsTransmitFull(BASE_ADDRESS_U));
    3898:	02c72783          	lw	a5,44(a4) # e000102c <_end_of_memory+0xdffd102c>
    389c:	0107f793          	andi	a5,a5,16
    38a0:	fe079ce3          	bnez	a5,3898 <print_runtime+0x174>
    X_mWriteReg(BASE_ADDRESS_U, PS7_UART_DATA_OUT_REGISTER, *ptr++);
    38a4:	00158593          	addi	a1,a1,1
    38a8:	02d72823          	sw	a3,48(a4)
  while (*ptr) {
    38ac:	0005c683          	lbu	a3,0(a1)
    38b0:	fe0694e3          	bnez	a3,3898 <print_runtime+0x174>
	while (d/div >= base)
    38b4:	00900713          	li	a4,9
  itoa(pbuf, clock_cycles, 10);
    38b8:	00082583          	lw	a1,0(a6)
	int div = 1;
    38bc:	00100793          	li	a5,1
	while (d/div >= base)
    38c0:	00900693          	li	a3,9
    38c4:	00c77c63          	bgeu	a4,a2,38dc <print_runtime+0x1b8>
		div *= base;
    38c8:	00279713          	slli	a4,a5,0x2
    38cc:	00f707b3          	add	a5,a4,a5
    38d0:	00179793          	slli	a5,a5,0x1
	while (d/div >= base)
    38d4:	02f65733          	divu	a4,a2,a5
    38d8:	fee6e8e3          	bltu	a3,a4,38c8 <print_runtime+0x1a4>
		div /= base;
    38dc:	00a00313          	li	t1,10
		if (num > 9)
    38e0:	00900893          	li	a7,9
		int num = d/div;
    38e4:	02f65833          	divu	a6,a2,a5
			*(buf++) = (num-10) + 'A';
    38e8:	00158593          	addi	a1,a1,1
    38ec:	0ff87693          	zext.b	a3,a6
    38f0:	03768713          	addi	a4,a3,55
		d = d%div;
    38f4:	02f67633          	remu	a2,a2,a5
			*(buf++) = num + '0';
    38f8:	03068693          	addi	a3,a3,48
			*(buf++) = (num-10) + 'A';
    38fc:	0ff77713          	zext.b	a4,a4
		div /= base;
    3900:	0267c7b3          	div	a5,a5,t1
		if (num > 9)
    3904:	0108c463          	blt	a7,a6,390c <print_runtime+0x1e8>
			*(buf++) = num + '0';
    3908:	0ff6f713          	zext.b	a4,a3
    390c:	fee58fa3          	sb	a4,-1(a1)
	while (div != 0)
    3910:	fc079ae3          	bnez	a5,38e4 <print_runtime+0x1c0>
  *(buf++) = '\0';
    3914:	00058023          	sb	zero,0(a1)
  while (*ptr) {
    3918:	02000613          	li	a2,32
  *(buf++) = '\0';
    391c:	00005697          	auipc	a3,0x5
    3920:	4e068693          	addi	a3,a3,1248 # 8dfc <__clz_tab+0x220>
    while (XUartChanged_IsTransmitFull(BASE_ADDRESS_U));
    3924:	e0001737          	lui	a4,0xe0001
    3928:	02c72783          	lw	a5,44(a4) # e000102c <_end_of_memory+0xdffd102c>
    392c:	0107f793          	andi	a5,a5,16
    3930:	fe079ce3          	bnez	a5,3928 <print_runtime+0x204>
    X_mWriteReg(BASE_ADDRESS_U, PS7_UART_DATA_OUT_REGISTER, *ptr++);
    3934:	00168693          	addi	a3,a3,1
    3938:	02c72823          	sw	a2,48(a4)
  while (*ptr) {
    393c:	0006c603          	lbu	a2,0(a3)
    3940:	fe0614e3          	bnez	a2,3928 <print_runtime+0x204>
    3944:	00054683          	lbu	a3,0(a0)
    3948:	00005617          	auipc	a2,0x5
    394c:	50060613          	addi	a2,a2,1280 # 8e48 <str>
    while (XUartChanged_IsTransmitFull(BASE_ADDRESS_U));
    3950:	e0001737          	lui	a4,0xe0001
  while (*ptr) {
    3954:	02068063          	beqz	a3,3974 <print_runtime+0x250>
    while (XUartChanged_IsTransmitFull(BASE_ADDRESS_U));
    3958:	02c72783          	lw	a5,44(a4) # e000102c <_end_of_memory+0xdffd102c>
    395c:	0107f793          	andi	a5,a5,16
    3960:	fe079ce3          	bnez	a5,3958 <print_runtime+0x234>
    X_mWriteReg(BASE_ADDRESS_U, PS7_UART_DATA_OUT_REGISTER, *ptr++);
    3964:	00160613          	addi	a2,a2,1
    3968:	02d72823          	sw	a3,48(a4)
  while (*ptr) {
    396c:	00064683          	lbu	a3,0(a2)
    3970:	fe0694e3          	bnez	a3,3958 <print_runtime+0x234>
}
    3974:	00008067          	ret
	int div = 1;
    3978:	00100793          	li	a5,1
    397c:	dddff06f          	j	3758 <print_runtime+0x34>

00003980 <XUARTChanged_SendByte>:
  while (XUartChanged_IsTransmitFull(BaseAddress));
    3980:	02c50713          	addi	a4,a0,44
    3984:	00072783          	lw	a5,0(a4)
    3988:	0107f793          	andi	a5,a5,16
    398c:	fe079ce3          	bnez	a5,3984 <XUARTChanged_SendByte+0x4>
  X_mWriteReg(BaseAddress, PS7_UART_DATA_OUT_REGISTER, Data);
    3990:	02b52823          	sw	a1,48(a0)
}
    3994:	00008067          	ret

00003998 <uart_send_string>:
  while (*ptr) {
    3998:	00054683          	lbu	a3,0(a0)
    399c:	02068263          	beqz	a3,39c0 <uart_send_string+0x28>
    while (XUartChanged_IsTransmitFull(BASE_ADDRESS_U));
    39a0:	e0001737          	lui	a4,0xe0001
    39a4:	02c72783          	lw	a5,44(a4) # e000102c <_end_of_memory+0xdffd102c>
    39a8:	0107f793          	andi	a5,a5,16
    39ac:	fe079ce3          	bnez	a5,39a4 <uart_send_string+0xc>
    X_mWriteReg(BASE_ADDRESS_U, PS7_UART_DATA_OUT_REGISTER, *ptr++);
    39b0:	00150513          	addi	a0,a0,1
    39b4:	02d72823          	sw	a3,48(a4)
  while (*ptr) {
    39b8:	00054683          	lbu	a3,0(a0)
    39bc:	fe0694e3          	bnez	a3,39a4 <uart_send_string+0xc>
  }
}
    39c0:	00008067          	ret

000039c4 <XUART_Reset>:

void XUART_Reset(void)
{
  X_mWriteReg(BASE_ADDRESS_U, PS7_UART_CONTROL_REGISTER, UART_CR_RESET_TX_RX); // Ctrl_reg disable interrupts, reset FIFOs
    39c4:	e00017b7          	lui	a5,0xe0001
    39c8:	00300713          	li	a4,3
    39cc:	00e7a023          	sw	a4,0(a5) # e0001000 <_end_of_memory+0xdffd1000>
}
    39d0:	00008067          	ret

000039d4 <KeccakF1600_StatePermute>:
        uint64_t Eka, Eke, Eki, Eko, Eku;
        uint64_t Ema, Eme, Emi, Emo, Emu;
        uint64_t Esa, Ese, Esi, Eso, Esu;

        //copyFromState(A, state)
        Aba = state[ 0];
    39d4:	00052783          	lw	a5,0(a0)
{
    39d8:	e8010113          	addi	sp,sp,-384
    39dc:	17212a23          	sw	s2,372(sp)
        Aba = state[ 0];
    39e0:	0af12823          	sw	a5,176(sp)
    39e4:	00452783          	lw	a5,4(a0)
{
